BL51 BANKED LINKER/LOCATER V6.22                                                        01/10/2015  21:25:33  PAGE 1


BL51 BANKED LINKER/LOCATER V6.22, INVOKED BY:
C:\KEIL\C51\BIN\BL51.EXE COMMON {.\obj\STARTUP.obj}, COMMON {.\obj\L51_PALM_BANK.obj}, COMMON {.\obj\CONF_TNY.obj}, COMM
>> ON {.\obj\clear_char.obj}, COMMON {.\obj\hal_common.obj}, COMMON {.\obj\hal_main.obj}, BANK0 {.\obj\fm.obj}, COMMON {
>> .\obj\list.obj}, COMMON {.\obj\utils.obj}, COMMON {.\obj\ism.obj}, BANK0 {.\obj\hal_hpgpRx.obj}, BANK0 {.\obj\ehal_ts
>> t.obj}, BANK0 {.\obj\chal_tst.obj}, BANK0 {.\obj\ihal_ui.obj}, BANK0 {.\obj\ihal_tst.obj}, BANK1 {.\obj\hal_hpgp.obj}
>> , BANK1 {.\obj\sys_common.obj}, BANK3 {.\obj\hal_hpgpTx.obj}, BANK3 {.\obj\datapath.obj}, BANK3 {.\obj\FrameTask.obj}
>> , BANK3 {.\obj\prod_test_correct_endieness.obj}, BANK4 {.\obj\hhal_tst.obj}, BANK4 {.\obj\hal_eth.obj}, BANK4 {.\obj\
>> hhal_led.obj}, BANK4 {.\obj\hal_spi.obj}, BANK4 {.\obj\hal_prod_tst.obj} TO .\obj\gc_hpgp BANKAREA (0XA000, 0XFFFF) R
>> TX51TINY PRINT (.\lst\gc_hpgp.m51) RAMSIZE (256) CODE (0X2100-0X9FFF) XDATA (0X2000-0XDFFF)


MEMORY MODEL: LARGE


INPUT MODULES INCLUDED:
  .\obj\STARTUP.obj (?C_STARTUP)
  .\obj\L51_PALM_BANK.obj (?BANK?SWITCHING)
  .\obj\CONF_TNY.obj (?RTX51_TINY_KERNAL)
  .\obj\clear_char.obj (CLEAR_CHAR)
  .\obj\hal_common.obj (HAL_COMMON)
  .\obj\hal_main.obj (HAL_MAIN)
  .\obj\fm.obj (FM)
  .\obj\list.obj (LIST)
  .\obj\utils.obj (UTILS)
  .\obj\ism.obj (ISM)
  .\obj\hal_hpgpRx.obj (HAL_HPGPRX)
  .\obj\ehal_tst.obj (EHAL_TST)
  .\obj\chal_tst.obj (CHAL_TST)
  .\obj\ihal_ui.obj (IHAL_UI)
  .\obj\ihal_tst.obj (IHAL_TST)
  .\obj\hal_hpgp.obj (HAL_HPGP)
  .\obj\sys_common.obj (SYS_COMMON)
  .\obj\hal_hpgpTx.obj (HAL_HPGPTX)
  .\obj\datapath.obj (DATAPATH)
  .\obj\FrameTask.obj (FRAMETASK)
  .\obj\prod_test_correct_endieness.obj (PROD_TEST_CORRECT_ENDIENESS)
  .\obj\hhal_tst.obj (HHAL_TST)
  .\obj\hal_eth.obj (HAL_ETH)
  .\obj\hhal_led.obj (HHAL_LED)
  .\obj\hal_spi.obj (HAL_SPI)
  .\obj\hal_prod_tst.obj (HAL_PROD_TST)
  C:\KEIL\C51\LIB\RTX51BT.LIB (?RTX51_TINY_OS_CREATE)
  C:\KEIL\C51\LIB\RTX51BT.LIB (?RTX51_TINY_OS_SEND_RUN)
  C:\KEIL\C51\LIB\C51L.LIB (?C_INIT)
  C:\KEIL\C51\LIB\C51L.LIB (?C?COPY)
  C:\KEIL\C51\LIB\C51L.LIB (?C?CLDPTR)
  C:\KEIL\C51\LIB\C51L.LIB (?C?CLDOPTR)
  C:\KEIL\C51\LIB\C51L.LIB (?C?CSTPTR)
  C:\KEIL\C51\LIB\C51L.LIB (?C?CSTOPTR)
  C:\KEIL\C51\LIB\C51L.LIB (?C?IMUL)
  C:\KEIL\C51\LIB\C51L.LIB (?C?SIDIV)
  C:\KEIL\C51\LIB\C51L.LIB (?C?IILDX)
  C:\KEIL\C51\LIB\C51L.LIB (?C?ILDIX)
  C:\KEIL\C51\LIB\C51L.LIB (?C?ILDPTR)
  C:\KEIL\C51\LIB\C51L.LIB (?C?ILDOPTR)
  C:\KEIL\C51\LIB\C51L.LIB (?C?ISTPTR)
  C:\KEIL\C51\LIB\C51L.LIB (?C?ISTOPTR)
  C:\KEIL\C51\LIB\C51L.LIB (?C?LADD)
BL51 BANKED LINKER/LOCATER V6.22                                                      01/10/2015  21:25:33  PAGE 2


  C:\KEIL\C51\LIB\C51L.LIB (?C?LSUB)
  C:\KEIL\C51\LIB\C51L.LIB (?C?LMUL)
  C:\KEIL\C51\LIB\C51L.LIB (?C?ULDIV)
  C:\KEIL\C51\LIB\C51L.LIB (?C?LAND)
  C:\KEIL\C51\LIB\C51L.LIB (?C?LOR)
  C:\KEIL\C51\LIB\C51L.LIB (?C?LNOT)
  C:\KEIL\C51\LIB\C51L.LIB (?C?LNEG)
  C:\KEIL\C51\LIB\C51L.LIB (?C?ULCMP)
  C:\KEIL\C51\LIB\C51L.LIB (?C?ULSHR)
  C:\KEIL\C51\LIB\C51L.LIB (?C?LSHL)
  C:\KEIL\C51\LIB\C51L.LIB (?C?LLDPTR)
  C:\KEIL\C51\LIB\C51L.LIB (?C?LLDOPTR)
  C:\KEIL\C51\LIB\C51L.LIB (?C?LSTPTR)
  C:\KEIL\C51\LIB\C51L.LIB (?C?LSTOPTR)
  C:\KEIL\C51\LIB\C51L.LIB (?C?LLDXDATA)
  C:\KEIL\C51\LIB\C51L.LIB (?C?LLDXDATA0)
  C:\KEIL\C51\LIB\C51L.LIB (?C?LLDPTR0)
  C:\KEIL\C51\LIB\C51L.LIB (?C?LLDIXDATA)
  C:\KEIL\C51\LIB\C51L.LIB (?C?LSTXDATA)
  C:\KEIL\C51\LIB\C51L.LIB (?C?LSTKXDATA)
  C:\KEIL\C51\LIB\C51L.LIB (?C?LSTKOPTR)
  C:\KEIL\C51\LIB\C51L.LIB (?C?OFFXADD)
  C:\KEIL\C51\LIB\C51L.LIB (?C?PLDXDATA)
  C:\KEIL\C51\LIB\C51L.LIB (?C?PSTXDATA)
  C:\KEIL\C51\LIB\C51L.LIB (?C?PLDPTR)
  C:\KEIL\C51\LIB\C51L.LIB (?C?PSTPTR)
  C:\KEIL\C51\LIB\C51L.LIB (?C?PLDOPTR)
  C:\KEIL\C51\LIB\C51L.LIB (?C?PSTOPTR)
  C:\KEIL\C51\LIB\C51L.LIB (?C?CCASE)
  C:\KEIL\C51\LIB\C51L.LIB (?C_XBP)
  C:\KEIL\C51\LIB\C51L.LIB (PRINTF)
  C:\KEIL\C51\LIB\C51L.LIB (GETCHAR)
  C:\KEIL\C51\LIB\C51L.LIB (SCANF)
  C:\KEIL\C51\LIB\C51L.LIB (?C?STRCMP)
  C:\KEIL\C51\LIB\C51L.LIB (?C?MEMCMP)
  C:\KEIL\C51\LIB\C51L.LIB (?C?MEMSET)
  C:\KEIL\C51\LIB\C51L.LIB (?C?LROL)
  C:\KEIL\C51\LIB\C51L.LIB (VPRINTF)
  C:\KEIL\C51\LIB\C51L.LIB (?C?UIDIV)
  C:\KEIL\C51\LIB\C51L.LIB (?C?LLDIDATA)
  C:\KEIL\C51\LIB\C51L.LIB (?C?LLDPDATA)
  C:\KEIL\C51\LIB\C51L.LIB (?C?LLDCODE)
  C:\KEIL\C51\LIB\C51L.LIB (?C?LLDIDATA0)
  C:\KEIL\C51\LIB\C51L.LIB (?C?LLDPDATA0)
  C:\KEIL\C51\LIB\C51L.LIB (?C?LLDCODE0)
  C:\KEIL\C51\LIB\C51L.LIB (?C?LSTIDATA)
  C:\KEIL\C51\LIB\C51L.LIB (?C?LSTPDATA)
  C:\KEIL\C51\LIB\C51L.LIB (?C?LSTKIDATA)
  C:\KEIL\C51\LIB\C51L.LIB (?C?LSTKPDATA)
  C:\KEIL\C51\LIB\C51L.LIB (?C?PLDIDATA)
  C:\KEIL\C51\LIB\C51L.LIB (?C?PSTIDATA)
  C:\KEIL\C51\LIB\C51L.LIB (?C?PLDIXDATA)
  C:\KEIL\C51\LIB\C51L.LIB (?C?PILDXDATA)
  C:\KEIL\C51\LIB\C51L.LIB (?C?PLDPDATA)
  C:\KEIL\C51\LIB\C51L.LIB (?C?PSTPDATA)
  C:\KEIL\C51\LIB\C51L.LIB (?C?PLDCODE)
  C:\KEIL\C51\LIB\C51L.LIB (UNGETC)
BL51 BANKED LINKER/LOCATER V6.22                                                      01/10/2015  21:25:33  PAGE 3


  C:\KEIL\C51\LIB\C51L.LIB (ISSPACE)


TASK TABLE OF MODULE:  .\obj\gc_hpgp (?C_STARTUP)

TASKID   PRIORITY   REG-BANK   SEGMENT NAME
-------------------------------------------
0        0          0          ?PR?GREEN_MAIN?HAL_MAIN
2        0          0          ?PR?FRAME_TASK?FRAMETASK
3        0          0          ?PR?LHTM_TASK?HAL_MAIN



LINK MAP OF MODULE:  .\obj\gc_hpgp (?C_STARTUP)


            TYPE    BASE      LENGTH    RELOCATION   SEGMENT NAME
            -----------------------------------------------------

            * * * * * * *   D A T A   M E M O R Y   * * * * * * *
            REG     0000H     0008H     ABSOLUTE     "REG BANK 0"
            DATA    0008H     0005H     ABSOLUTE     
            DATA    000DH     0002H     UNIT         ?C?LIB_DATA
                    000FH     0001H                  *** GAP ***
            REG     0010H     0008H     ABSOLUTE     "REG BANK 2"
            IDATA   0018H     0008H     UNIT         ?RTX?TASKSTATE?S
            BIT     0020H.0   0003H.5   UNIT         _BIT_GROUP_
            BIT     0023H.5   0000H.1   UNIT         ?RTX?BITS
            BIT     0023H.6   0000H.1   UNIT         ?BI?GETCHAR
                    0023H.7   0000H.1                *** GAP ***
            DATA    0024H     000FH     UNIT         _DATA_GROUP_
            IDATA   0033H     0004H     UNIT         ?RTX?TASKSP?S
            IDATA   0037H     0001H     UNIT         ?STACK

            * * * * * * *  X D A T A   M E M O R Y  * * * * * * *
                    0000H     0400H                  *** GAP ***
            XDATA   0400H     0001H     ABSOLUTE     
            XDATA   0401H     0001H     ABSOLUTE     
            XDATA   0402H     0001H     ABSOLUTE     
            XDATA   0403H     0001H     ABSOLUTE     
            XDATA   0404H     0001H     ABSOLUTE     
            XDATA   0405H     0001H     ABSOLUTE     
            XDATA   0406H     0001H     ABSOLUTE     
            XDATA   0407H     0001H     ABSOLUTE     
                    0408H     0034H                  *** GAP ***
            XDATA   043CH     0001H     ABSOLUTE     
            XDATA   043DH     0001H     ABSOLUTE     
            XDATA   043EH     0001H     ABSOLUTE     
            XDATA   043FH     0001H     ABSOLUTE     
                    0440H     1BC0H                  *** GAP ***
            XDATA   2000H     10A7H     UNIT         ?XD?DATAPATH
            XDATA   30A7H     0601H     UNIT         ?XD?IHAL_TST
            XDATA   36A8H     0544H     UNIT         _XDATA_GROUP_
            XDATA   3BECH     02E6H     UNIT         ?XD?HAL_HPGP
            XDATA   3ED2H     01D8H     UNIT         ?XD?HAL_COMMON
            XDATA   40AAH     00E6H     UNIT         ?XD?ISM
            XDATA   4190H     00BFH     UNIT         ?XD?HHAL_BCNRXINTHANDLER?HAL_HPGPRX
BL51 BANKED LINKER/LOCATER V6.22                                                      01/10/2015  21:25:33  PAGE 4


            XDATA   424FH     00ACH     UNIT         ?XD?HHAL_TST
            XDATA   42FBH     0080H     UNIT         ?XD?HAL_MAIN
            XDATA   437BH     005DH     UNIT         ?XD?HAL_PROD_TST
            XDATA   43D8H     0040H     UNIT         ?XD?HAL_HPGPRX
            XDATA   4418H     002EH     UNIT         ?XD?HAL_HPGPTX
            XDATA   4446H     002BH     UNIT         ?XD?_FILLBUFFER?HAL_PROD_TST
            XDATA   4471H     0026H     UNIT         ?XD?EHAL_TST
            XDATA   4497H     0026H     UNIT         ?XD?_SENDSINGLEFRAME?HHAL_TST
            XDATA   44BDH     0026H     UNIT         ?XD?HAL_SPI
            XDATA   44E3H     0020H     UNIT         ?XD?HAL_ETH
            XDATA   4503H     0019H     UNIT         ?XD?_HAL_SPI_TX_DMA_CP?HAL_SPI
            XDATA   451CH     0016H     UNIT         ?XD?_CHAL_READFRAME?HAL_HPGPRX
            XDATA   4532H     0014H     UNIT         ?XD?SYS_COMMON
            XDATA   4546H     0010H     UNIT         ?XD?_HHAL_REMOVEPPEK?HAL_HPGP
            XDATA   4556H     000FH     UNIT         ?XD?SETCSMA_ONCCO1?HAL_HPGPTX
            XDATA   4565H     000EH     UNIT         ?XD?_HAL_COMMON_BIT_FIELD_REG_READ?HAL_COMMON
            XDATA   4573H     000DH     UNIT         ?XD?_HHAL_REMOVENEK?HAL_HPGP
            XDATA   4580H     000CH     UNIT         ?XD?MAC_UTILS_64_BIT_TO_BYTE_ARRAY?UTILS
            XDATA   458CH     000CH     UNIT         ?XD?_MAC_UTILS_BYTE_ARRAY_TO_64_BIT?UTILS
            XDATA   4598H     000CH     UNIT         ?XD?FRAMETASK
            XDATA   45A4H     000BH     UNIT         ?XD?_CONNEXISTMASTER?HAL_ETH
            XDATA   45AFH     0009H     UNIT         ?XD?_HAL_COMMON_BIT_FIELD_GET?HAL_COMMON
            XDATA   45B8H     0009H     UNIT         ?XD?_GV701X_GPIO_CONFIG?HAL_COMMON
            XDATA   45C1H     0009H     UNIT         ?XD?_GV701X_GPIO_WRITE?HAL_COMMON
            XDATA   45CAH     0009H     UNIT         ?XD?_SLIST_ADD?LIST
            XDATA   45D3H     0009H     UNIT         ?XD?_SLIST_REMOVE?LIST
            XDATA   45DCH     0009H     UNIT         ?XD?_HHAL_SETCSMAREGIONS?HAL_HPGP
            XDATA   45E5H     0008H     UNIT         ?XD?_GV701X_GPIO_READ?HAL_COMMON
            XDATA   45EDH     0008H     UNIT         ?XD?_MAC_UTILS_32_BIT_TO_BYTE_ARRAY?UTILS
            XDATA   45F5H     0008H     UNIT         ?XD?_HHT_GETROBOMODFRMLEN?HHAL_TST
            XDATA   45FDH     0008H     UNIT         ?XD?_CONNEXISTSLAVE?HAL_ETH
            XDATA   4605H     0007H     UNIT         ?XD?_MAC_UTILS_BYTE_ARRAY_TO_32_BIT?UTILS
            XDATA   460CH     0007H     UNIT         ?XD?_ISM_REGISTERINTHANDLER?ISM
            XDATA   4613H     0007H     UNIT         ?XD?_HAL_SPI_TX_DIRECT?HAL_SPI
            XDATA   461AH     0006H     UNIT         ?XD?_HAL_COMMON_REG_16_WRITE?HAL_COMMON
            XDATA   4620H     0006H     UNIT         ?XD?_SLIST_PUSH?LIST
            XDATA   4626H     0006H     UNIT         ?XD?_SLIST_PUT?LIST
            XDATA   462CH     0006H     UNIT         ?XD?_SLIST_POP?LIST
            XDATA   4632H     0006H     UNIT         ?XD?_DLIST_PUSH?LIST
            XDATA   4638H     0006H     UNIT         ?XD?_DLIST_PUT?LIST
            XDATA   463EH     0006H     UNIT         ?XD?_HAL_SPI_SET_DIRECT_MODE?HAL_SPI
            XDATA   4644H     0005H     UNIT         ?XD?_CHAL_ALLOCFRAMECP?HAL_COMMON
            XDATA   4649H     0005H     UNIT         ?XD?_MAC_UTILS_CMD_GET?UTILS
            XDATA   464EH     0005H     UNIT         ?XD?_HHAL_SETLMBCNBUF?HAL_HPGP
            XDATA   4653H     0005H     UNIT         ?XD?_HHT_DEMOMODETX?HHAL_LED
            XDATA   4658H     0004H     UNIT         ?XD?CHAL_GETCPUTXQFRMCOUNT?HAL_COMMON
            XDATA   465CH     0004H     UNIT         ?XD?_MAC_UTILS_CMD_SPI_WRITE?UTILS
            XDATA   4660H     0004H     UNIT         ?XD?_MAC_UTILS_CMD_WRITE?UTILS
            XDATA   4664H     0004H     UNIT         ?XD?HHAL_RXSOUNDINTHANDLER?HAL_HPGPRX
            XDATA   4668H     0004H     UNIT         ?XD?HHAL_POWERSAVECONFIG?HAL_HPGP
            XDATA   466CH     0004H     UNIT         ?XD?HAL_HPGP_SOFT_RESET?HAL_HPGP
            XDATA   4670H     0004H     UNIT         ?XD?HHAL_SETSTASNIDVALID?HAL_HPGP
            XDATA   4674H     0003H     UNIT         ?XD?_DLIST_REMOVE?LIST
            XDATA   4677H     0003H     UNIT         ?XD?_HHT_TXLEDDEMO?HHAL_LED
            XDATA   467AH     0003H     UNIT         ?XD?_HHT_LEDDEMOTXMENU?HHAL_LED
            XDATA   467DH     0003H     UNIT         ?XD?_HHT_DEMOMODERX?HHAL_LED
            XDATA   4680H     0003H     UNIT         ?XD?HHAL_LED
BL51 BANKED LINKER/LOCATER V6.22                                                      01/10/2015  21:25:33  PAGE 5


            XDATA   4683H     0002H     UNIT         ?XD?_HAL_COMMON_REG_16_READ?HAL_COMMON
            XDATA   4685H     0002H     UNIT         ?XD?FM
            XDATA   4687H     0002H     UNIT         ?XD?_CRC_CCITT_UPDATE?UTILS
            XDATA   4689H     0002H     UNIT         ?XD?_MAC_UTILS_CMD_SPI_READ?UTILS
            XDATA   468BH     0002H     UNIT         ?XD?_MAC_UTILS_CMD_READ?UTILS
            XDATA   468DH     0002H     UNIT         ?XD?_HHAL_ADJUSTNEXTBCNTIME?HAL_HPGP
            XDATA   468FH     0001H     UNIT         ?XD?CHT_PKTBUFBANKSELTST?CHAL_TST
            XDATA   4690H     0001H     UNIT         ?XD?GETCHAR

            * * * * * * *   C O D E   M E M O R Y   * * * * * * *
                    0000H     2100H                  *** GAP ***
            CODE    2100H     0003H     ABSOLUTE     
            CODE    2103H     0008H     UNIT         ?RTX?TASKENT?S
            CODE    210BH     0003H     ABSOLUTE     
            CODE    210EH     1870H     UNIT         ?CO?HHAL_TST
            CODE    397EH     0BA3H     UNIT         ?C?LIB_CODE
            CODE    4521H     0AEBH     UNIT         ?CO?EHAL_TST
            CODE    500CH     0428H     UNIT         ?CO?HAL_MAIN
            CODE    5434H     0403H     UNIT         ?CO?HAL_HPGP
            CODE    5837H     03E8H     UNIT         ?CO?CHAL_TST
            CODE    5C1FH     03E7H     UNIT         ?PR?ISM_POLLINT?ISM
            CODE    6006H     0365H     UNIT         ?PR?PRINTF?PRINTF
            CODE    636BH     0322H     UNIT         ?PR?SCANF?SCANF
            CODE    668DH     0272H     UNIT         ?PR?CMDRUN?HAL_MAIN
            CODE    68FFH     0271H     UNIT         ?C_INITSEG
            CODE    6B70H     0264H     UNIT         ?PR?CHAL_CPUTXQNEMPTYINTHANDLER?HAL_COMMON
            CODE    6DD4H     0221H     INBLOCK      ?BANK?SELECT
            CODE    6FF5H     021CH     UNIT         ?CO?HAL_ETH
            CODE    7211H     0209H     UNIT         ?PR?_CMDREAD?HAL_MAIN
            CODE    741AH     0206H     UNIT         ?PR?_CMDWRITE?HAL_MAIN
            CODE    7620H     01FCH     UNIT         ?RTX?CODE
            CODE    781CH     014AH     UNIT         ?PR?HAL_COMMON
            CODE    7966H     013EH     UNIT         ?PR?HAL_MAIN
            CODE    7AA4H     0101H     UNIT         ?PR?ISM
            CODE    7BA5H     00DEH     UNIT         ?CO?IHAL_UI
            CODE    7C83H     00DDH     UNIT         ?PR?_GETLINE?HAL_MAIN
            CODE    7D60H     00D8H     UNIT         ?CO?HAL_COMMON
            CODE    7E38H     00D5H     UNIT         ?PR?_CMDSPI?HAL_MAIN
            CODE    7F0DH     00CDH     UNIT         ?CO?HAL_PROD_TST
            CODE    7FDAH     00CAH     UNIT         ?CO?IHAL_TST
            CODE    80A4H     00C9H     UNIT         ?PR?_ISM_ENABLEMACIRQ?ISM
            CODE    816DH     00C8H     UNIT         ?CO?HAL_SPI
            CODE    8235H     00B8H     UNIT         ?PR?UTILS
            CODE    82EDH     00B4H     UNIT         ?PR?_ISM_DISABLEMACIRQ?ISM
            CODE    83A1H     009DH     UNIT         ?PR?CMDGET?HAL_MAIN
            CODE    843EH     009DH     UNIT         ?PR?_ISM_ENABLECPUIRQ?ISM
            CODE    84DBH     009DH     UNIT         ?PR?_ISM_DISABLECPUIRQ?ISM
            CODE    8578H     009BH     UNIT         ?PR?_MAC_UTILS_CMD_GET?UTILS
            CODE    8613H     0092H     UNIT         ?C_C51STARTUP
            CODE    86A5H     008CH     UNIT         ?PR?_CHAL_REQUESTCP?HAL_COMMON
            CODE    8731H     0082H     UNIT         ?PR?_SLIST_POP?LIST
            CODE    87B3H     007DH     UNIT         ?PR?HAL_COMMON_DISPLAY_QC_ERROR_STATS?HAL_COMMON
            CODE    8830H     007DH     UNIT         ?PR?_SLIST_PUSH?LIST
            CODE    88ADH     0074H     UNIT         ?PR?_HAL_COMMON_BIT_FIELD_SET?HAL_COMMON
            CODE    8921H     0072H     UNIT         ?PR?_SLIST_ADD?LIST
            CODE    8993H     0068H     UNIT         ?PR?_SLIST_PUT?LIST
            CODE    89FBH     0066H     UNIT         ?CO?UTILS
BL51 BANKED LINKER/LOCATER V6.22                                                      01/10/2015  21:25:33  PAGE 6


            CODE    8A61H     0065H     UNIT         ?PR?_DLIST_PUT?LIST
            CODE    8AC6H     0063H     UNIT         ?PR?_CHAL_ALLOCFRAMECP?HAL_COMMON
            CODE    8B29H     0063H     UNIT         ?PR?_DLIST_PUSH?LIST
            CODE    8B8CH     005FH     UNIT         ?PR?_SLIST_REMOVE?LIST
            CODE    8BEBH     005AH     UNIT         ?PR?_HAL_COMMON_BIT_FIELD_REG_WRITE?HAL_COMMON
            CODE    8C45H     0055H     UNIT         ?PR?HHAL_REQ_GNT_READ_CPU_QD?HAL_COMMON
            CODE    8C9AH     0055H     UNIT         ?PR?_DLIST_REMOVE?LIST
            CODE    8CEFH     004CH     UNIT         ?CO?DATAPATH
            CODE    8D3BH     004AH     UNIT         ?PR?_MAC_UTILS_CMD_WRITE?UTILS
            CODE    8D85H     0049H     UNIT         ?PR?_CHAL_INCREMENTCPUSAGECNT?HAL_COMMON
            CODE    8DCEH     0047H     UNIT         ?PR?_GV701X_GPIO_WRITE?HAL_COMMON
            CODE    8E15H     0047H     UNIT         ?PR?MAC_UTILS_64_BIT_TO_BYTE_ARRAY?UTILS
            CODE    8E5CH     0043H     UNIT         ?PR?_MAC_UTILS_CMD_READ?UTILS
            CODE    8E9FH     0042H     UNIT         ?PR?_CHAL_FREECP?HAL_COMMON
            CODE    8EE1H     0042H     UNIT         ?PR?_CHAL_FREEFRAMECP?HAL_COMMON
            CODE    8F23H     0041H     UNIT         ?PR?_CHAL_GETACCESSTOCP?HAL_COMMON
            CODE    8F64H     0041H     UNIT         ?PR?_HAL_COMMON_REG_32_WRITE?HAL_COMMON
            CODE    8FA5H     0040H     UNIT         ?PR?_GV701X_GPIO_CONFIG?HAL_COMMON
            CODE    8FE5H     003FH     UNIT         ?PR?_MAC_UTILS_CMD_SPI_WRITE?UTILS
            CODE    9024H     003EH     UNIT         ?PR?_HAL_COMMON_FREE_FRAME?HAL_COMMON
            CODE    9062H     003EH     UNIT         ?PR?_HAL_COMMON_REG_32_READ?HAL_COMMON
            CODE    90A0H     003CH     UNIT         ?PR?CHAL_INITHW?HAL_COMMON
            CODE    90DCH     003CH     UNIT         ?PR?_HAL_COMMON_REG_BIT_CLEAR?HAL_COMMON
            CODE    9118H     003BH     UNIT         ?PR?_HAL_COMMON_REG_BIT_SET?HAL_COMMON
            CODE    9153H     0039H     UNIT         ?PR?_MAC_UTILS_BYTE_ARRAY_TO_32_BIT?UTILS
            CODE    918CH     0036H     UNIT         ?PR?_HAL_COMMON_BIT_FIELD_REG_READ?HAL_COMMON
            CODE    91C2H     0035H     UNIT         ?PR?_CHAL_GETCPUSAGECNT?HAL_COMMON
            CODE    91F7H     0008H     UNIT         ?PR?_HAL_COMMON_REG_8_BIT_SET?HAL_COMMON
            CODE    91FFH     0001H     UNIT         ?PR?COM_INIT?HAL_MAIN
            CODE    9200H     0036H     PAGE         ?BANK?SWITCH
            CODE    9236H     0035H     UNIT         ?PR?_VPRINTF?VPRINTF
            CODE    926BH     0034H     UNIT         ?PR?_MAC_UTILS_CMD_SPI_READ?UTILS
            CODE    929FH     0033H     UNIT         ?PR?_MAC_UTILS_DELAY_MS?UTILS
            CODE    92D2H     002FH     UNIT         ?PR?_CRC_CCITT_UPDATE?UTILS
            CODE    9301H     002EH     UNIT         ?PR?_SLIST_INIT?LIST
            CODE    932FH     002EH     UNIT         ?PR?_MAC_UTILS_BYTE_ARRAY_TO_64_BIT?UTILS
            CODE    935DH     002DH     UNIT         ?PR?_MAC_UTILS_32_BIT_TO_BYTE_ARRAY?UTILS
            CODE    938AH     002DH     UNIT         ?PR?CHECKSPITXDONE?ISM
            CODE    93B7H     0027H     UNIT         ?PR?POLL_KEY?HAL_MAIN
            CODE    93DEH     0027H     UNIT         ?PR?_MAC_UTILS_SPI_READ?UTILS
            CODE    9405H     0026H     UNIT         ?PR?_GV701X_GPIO_READ?HAL_COMMON
            CODE    942BH     0026H     UNIT         ?PR?GREEN_MAIN?HAL_MAIN
            CODE    9451H     0025H     UNIT         ?PR?_HAL_COMMON_BIT_FIELD_GET?HAL_COMMON
            CODE    9476H     0024H     UNIT         ?PR?_ISM_UNREGISTERINTRHANDLER?ISM
            CODE    949AH     0023H     UNIT         ?PR?CHAL_GETCPUTXQDESCCOUNT?HAL_COMMON
            CODE    94BDH     0023H     UNIT         ?PR?TIMER_HANDLER?HAL_COMMON
            CODE    94E0H     0023H     UNIT         ?PR?CMDHELP?HAL_MAIN
            CODE    9503H     0022H     UNIT         ?CO?FM
            CODE    9525H     0022H     UNIT         ?PR?LIST
            CODE    9547H     0022H     UNIT         ?PR?_ISM_REGISTERINTHANDLER?ISM
            CODE    9569H     001FH     UNIT         ?PR?_HAL_COMMON_REG_16_WRITE?HAL_COMMON
            CODE    9588H     001EH     UNIT         ?PR?_HAL_COMMON_REG_BIT_TEST?HAL_COMMON
            CODE    95A6H     001DH     UNIT         ?PR?_HAL_COMMON_REG_16_READ?HAL_COMMON
            CODE    95C3H     001DH     UNIT         ?PR?_MAC_UTILS_SPI_WRITE?UTILS
            CODE    95E0H     001DH     UNIT         ?CO?HAL_HPGPRX
            CODE    95FDH     001CH     UNIT         ?PR?_CHAL_DELAYTICKS?HAL_COMMON
            CODE    9619H     0018H     UNIT         ?PR?_PUTCHAR?HAL_MAIN
BL51 BANKED LINKER/LOCATER V6.22                                                      01/10/2015  21:25:33  PAGE 7


            CODE    9631H     0017H     UNIT         ?CO?HHAL_LED
            CODE    9648H     0016H     UNIT         ?PR?HHAL_REL_GNT_READ_CPU_QD?HAL_COMMON
            CODE    965EH     0015H     UNIT         ?PR?_CHAL_DECREMENTRELEASECPCNT?HAL_COMMON
            CODE    9673H     0015H     UNIT         ?PR?_MAC_UTILS_AFE_SPI_ENABLE?UTILS
            CODE    9688H     0014H     UNIT         ?PR?CHAL_GETCPUTXQFRMCOUNT?HAL_COMMON
            CODE    969CH     0014H     UNIT         ?PR?CHAL_INCTIMERINTCNT?HAL_COMMON
            CODE    96B0H     0014H     UNIT         ?PR?GETCHAR?GETCHAR
            CODE    96C4H     0014H     UNIT         ?PR?_ISSPACE?ISSPACE
            CODE    96D8H     0013H     UNIT         ?PR?_GETCHAR?HAL_MAIN
            CODE    96EBH     0012H     UNIT         ?PR?CHAL_GETFREECPCNT?HAL_COMMON
            CODE    96FDH     0012H     UNIT         ?PR?_GETKEY?HAL_MAIN
            CODE    970FH     0012H     UNIT         ?PR?ISM_INIT?ISM
            CODE    9721H     0011H     UNIT         ?PR?READ_FLASHPROFILE?HAL_MAIN
            CODE    9732H     000EH     UNIT         ?PR?_MAC_UTILS_BYTE_ARRAY_TO_16_BIT?UTILS
            CODE    9740H     000DH     UNIT         ?PR?_HAL_COMMON_REG_8_BIT_CLEAR?HAL_COMMON
            CODE    974DH     000CH     UNIT         ?PR?_HAL_COMMON_REG_8_BIT_TEST?HAL_COMMON
            CODE    9759H     000BH     UNIT         ?PR?_MAC_UTILS_16_BIT_TO_BYTE_ARRAY?UTILS
            CODE    9764H     0008H     UNIT         ?PR?LHTM_INIT?HAL_MAIN
            CODE    976CH     0008H     UNIT         ?PR?GETCHAR?UNGETCHAR
            CODE    9774H     0007H     UNIT         ?PR?GET_TIMERTICK?HAL_COMMON
            CODE    977BH     0007H     UNIT         ?PR?CHT_POLL?HAL_COMMON
            CODE    9782H     0005H     UNIT         ?PR?LHTM_TASK?HAL_MAIN
            CODE    9787H     0003H     UNIT         ?PR?CLEAR_GETCHAR
            CODE    978AH     0003H     UNIT         ?PR?ISM_ENABLEINTERRUPTS?ISM
            CODE    978DH     0001H     UNIT         ?PR?ISM_ENABLEINTPOLLING?ISM

            * * * * * * *   C O D E   B A N K   0   * * * * * * *
                    0000H     A000H                  *** GAP ***
            BANK0   A000H     04E7H     UNIT         ?PR?_EHT_BASICTXRXMENU?EHAL_TST
            BANK0   A4E7H     04D6H     UNIT         ?PR?_EHT_SIMULATETX?EHAL_TST
            BANK0   A9BDH     037BH     UNIT         ?PR?_EHT_XMITDATA?EHAL_TST
            BANK0   AD38H     0296H     UNIT         ?PR?EHAL_TST
            BANK0   AFCEH     027CH     UNIT         ?PR?_HHAL_RXINTHANDLER?HAL_HPGPRX
            BANK0   B24AH     01E9H     UNIT         ?PR?_IHAL_TST_SLAVE_TX_DMA?IHAL_TST
            BANK0   B433H     01D1H     UNIT         ?PR?_HAL_BEACONRXHANDLER?HAL_HPGPRX
            BANK0   B604H     01ADH     UNIT         ?PR?_HHAL_PROCBCNLOW?HAL_HPGPRX
            BANK0   B7B1H     01A6H     UNIT         ?PR?_CHAL_READFRAME?HAL_HPGPRX
            BANK0   B957H     01A1H     UNIT         ?PR?HAL_HPGPRX
            BANK0   BAF8H     018CH     UNIT         ?PR?CHT_TESTMEM?CHAL_TST
            BANK0   BC84H     0144H     UNIT         ?PR?_EHAL_CMDHALPROCESS?EHAL_TST
            BANK0   BDC8H     0133H     UNIT         ?PR?CHT_PKTBUFBANKSELTST?CHAL_TST
            BANK0   BEFBH     011CH     UNIT         ?PR?CHT_TESTCPS?CHAL_TST
            BANK0   C017H     0116H     UNIT         ?PR?_FM_HEXDUMP?FM
            BANK0   C12DH     0102H     UNIT         ?PR?_IHAL_TST_RX?IHAL_TST
            BANK0   C22FH     0100H     UNIT         ?PR?_PROCESS_REGION?HAL_HPGPRX
            BANK0   C32FH     00F3H     UNIT         ?PR?HHAL_BCNRXINTHANDLER?HAL_HPGPRX
            BANK0   C422H     00EAH     UNIT         ?PR?_ETH_ALLOC1STCP?EHAL_TST
            BANK0   C50CH     00E7H     UNIT         ?PR?_EHT_TESTTXRXSTATIONS?EHAL_TST
            BANK0   C5F3H     00E4H     UNIT         ?PR?_EHT_OPENCONN?EHAL_TST
            BANK0   C6D7H     00BBH     UNIT         ?PR?_ETH_XMITCMDPKT?EHAL_TST
            BANK0   C792H     00BBH     UNIT         ?PR?IHAL_UI_TX_MENU?IHAL_UI
            BANK0   C84DH     00B9H     UNIT         ?PR?CHT_DUMPMEM?CHAL_TST
            BANK0   C906H     00A8H     UNIT         ?PR?CHAL_TST
            BANK0   C9AEH     00A3H     UNIT         ?PR?_CHAL_CMDHALPROCESS?CHAL_TST
            BANK0   CA51H     0094H     UNIT         ?PR?_EHT_CLOSECONN?EHAL_TST
            BANK0   CAE5H     0072H     UNIT         ?PR?_IHAL_UI_CMD_PROCESS?IHAL_UI
            BANK0   CB57H     0064H     UNIT         ?PR?_HAL_SETCSMAREGIONS?HAL_HPGPRX
BL51 BANKED LINKER/LOCATER V6.22                                                      01/10/2015  21:25:33  PAGE 8


            BANK0   CBBBH     0055H     UNIT         ?PR?IHAL_TST
            BANK0   CC10H     0048H     UNIT         ?PR?IHAL_UI_RX_MENU?IHAL_UI
            BANK0   CC58H     003CH     UNIT         ?PR?_ETH_ALLOCONECP?EHAL_TST
            BANK0   CC94H     0039H     UNIT         ?PR?_FM_PRINTF?FM
            BANK0   CCCDH     0034H     UNIT         ?PR?FM
            BANK0   CD01H     0031H     UNIT         ?PR?CHT_CPUSAGEDISPLAY?CHAL_TST
            BANK0   CD32H     0026H     UNIT         ?PR?IHAL_UI
            BANK0   CD58H     0016H     UNIT         ?PR?_FM_SETDEBUG?FM
            BANK0   CD6EH     000CH     UNIT         ?PR?HHAL_RXSOUNDINTHANDLER?HAL_HPGPRX
            BANK0   CD7AH     000AH     UNIT         ?PR?CHAL_CMDHELP?CHAL_TST
            BANK0   CD84H     0001H     UNIT         ?PR?HHAL_BCNRXTIMEOUTINTHANDLER?HAL_HPGPRX

            * * * * * * *   C O D E   B A N K   1   * * * * * * *
                    0000H     A000H                  *** GAP ***
            BANK1   A000H     08F9H     UNIT         ?PR?_HHT_SIMULATETX?HAL_HPGP
            BANK1   A8F9H     0592H     UNIT         ?PR?HHAL_INIT?HAL_HPGP
            BANK1   AE8BH     04A7H     UNIT         ?PR?HAL_HPGP
            BANK1   B332H     0403H     UNIT         ?PR?_HHAL_SYNCNET?HAL_HPGP
            BANK1   B735H     03FFH     UNIT         ?PR?_HHAL_ADDPPEK?HAL_HPGP
            BANK1   BB34H     0295H     UNIT         ?PR?DOSYNCHRONIZATION?HAL_HPGP
            BANK1   BDC9H     0281H     UNIT         ?PR?_HHAL_ADDNEK?HAL_HPGP
            BANK1   C04AH     0267H     UNIT         ?PR?_HHAL_SETDEVMODE?HAL_HPGP
            BANK1   C2B1H     01C3H     UNIT         ?PR?_FREQDET_FREQSETTING?HAL_HPGP
            BANK1   C474H     01A4H     UNIT         ?PR?PLC_INIT_PARAMETERS?HAL_HPGP
            BANK1   C618H     014DH     UNIT         ?PR?FREQDET_DETECTFREQUENCYUSINGZC?HAL_HPGP
            BANK1   C765H     012BH     UNIT         ?PR?_HHAL_REMOVEPPEK?HAL_HPGP
            BANK1   C890H     0125H     UNIT         ?PR?_HHT_GETMINMAXLEN?HAL_HPGP
            BANK1   C9B5H     00D0H     UNIT         ?PR?_HHAL_SETCSMAREGIONS?HAL_HPGP
            BANK1   CA85H     00BFH     UNIT         ?PR?_HHAL_ADJUSTNEXTBCNTIME?HAL_HPGP
            BANK1   CB44H     00B4H     UNIT         ?PR?HAL_HPGP_MAC_MONITORING?HAL_HPGP
            BANK1   CBF8H     008AH     UNIT         ?PR?_HHAL_SETSWSTATREQSCANFLAG?HAL_HPGP
            BANK1   CC82H     0071H     UNIT         ?PR?_SET_PLC_PARAMTER?HAL_HPGP
            BANK1   CCF3H     006FH     UNIT         ?PR?HHAL_RESETPLCSTAT?HAL_HPGP
            BANK1   CD62H     006BH     UNIT         ?PR?FREQDET_DETECTFREQUENCYUSINGBCN?HAL_HPGP
            BANK1   CDCDH     005EH     UNIT         ?PR?_HHAL_SETSNID?HAL_HPGP
            BANK1   CE2BH     005CH     UNIT         ?PR?_HHAL_REMOVENEK?HAL_HPGP
            BANK1   CE87H     0052H     UNIT         ?PR?_HHAL_PHYPGMROBOMD?HAL_HPGP
            BANK1   CED9H     0036H     UNIT         ?PR?_HHAL_SETLMBCNBUF?HAL_HPGP
            BANK1   CF0FH     002FH     UNIT         ?PR?_HHAL_SETDIAGMODE?HAL_HPGP
            BANK1   CF3EH     002FH     UNIT         ?PR?HAL_HPGP_SOFT_RESET?HAL_HPGP
            BANK1   CF6DH     002DH     UNIT         ?PR?HHAL_SETDEFADDRCONFIG?HAL_HPGP
            BANK1   CF9AH     0027H     UNIT         ?PR?_HHAL_GETPLCTXQFREEDESCCNT?HAL_HPGP
            BANK1   CFC1H     0023H     UNIT         ?PR?_HHAL_SETDIAGMODENOSACK?HAL_HPGP
            BANK1   CFE4H     0021H     UNIT         ?PR?HHAL_SETSTASNIDVALID?HAL_HPGP
            BANK1   D005H     001AH     UNIT         ?PR?_HHAL_SETPLCDEVMODE?HAL_HPGP
            BANK1   D01FH     001AH     UNIT         ?PR?_HHAL_SETTEI?HAL_HPGP
            BANK1   D039H     0017H     UNIT         ?PR?_HHAL_DISABLELMBCNBUF?HAL_HPGP
            BANK1   D050H     0016H     UNIT         ?PR?HHAL_AFEINIT?HAL_HPGP
            BANK1   D066H     0013H     UNIT         ?PR?HHAL_SETBCNINIT?HAL_HPGP
            BANK1   D079H     0011H     UNIT         ?PR?HHAL_GETPLCDEVMODE?HAL_HPGP
            BANK1   D08AH     0011H     UNIT         ?PR?HHAL_GETSNID?HAL_HPGP
            BANK1   D09BH     000FH     UNIT         ?PR?HHAL_GETTEI?HAL_HPGP
            BANK1   D0AAH     000CH     UNIT         ?PR?HHAL_POWERSAVECONFIG?HAL_HPGP
            BANK1   D0B6H     0007H     UNIT         ?PR?GET_VERSION?SYS_COMMON
            BANK1   D0BDH     0006H     UNIT         ?PR?HHAL_CLEARBCNINIT?HAL_HPGP
            BANK1   D0C3H     0006H     UNIT         ?PR?FREQDET_FREQDETECTINIT?HAL_HPGP
            BANK1   D0C9H     0006H     UNIT         ?PR?FREQDET_FREQDETECTRESET?HAL_HPGP
BL51 BANKED LINKER/LOCATER V6.22                                                      01/10/2015  21:25:33  PAGE 9



            * * * * * * *   C O D E   B A N K   3   * * * * * * *
                    0000H     A000H                  *** GAP ***
            BANK3   A000H     07ADH     UNIT         ?PR?_HHAL_PLCTXQWRITE?HAL_HPGPTX
            BANK3   A7ADH     03AAH     UNIT         ?PR?_DATAPATH_QUEUETOHOST?DATAPATH
            BANK3   AB57H     0344H     UNIT         ?PR?_HOST_RXHANDLER?DATAPATH
            BANK3   AE9BH     02E5H     UNIT         ?PR?HAL_HPGPTX
            BANK3   B180H     0219H     UNIT         ?PR?DATAPATH
            BANK3   B399H     020CH     UNIT         ?PR?_HHAL_PLCBCNWRITE?HAL_HPGPTX
            BANK3   B5A5H     01A7H     UNIT         ?PR?SETCSMA_ONSTA?HAL_HPGPTX
            BANK3   B74CH     018CH     UNIT         ?PR?_EHT_FROMPLCBCNTX?DATAPATH
            BANK3   B8D8H     015BH     UNIT         ?PR?DATAPATH_TRANSMITDATAPLC?DATAPATH
            BANK3   BA33H     0127H     UNIT         ?PR?SETCSMA_ONCCO?HAL_HPGPTX
            BANK3   BB5AH     0104H     UNIT         ?PR?_HOSTRXPOSTPROCESS?DATAPATH
            BANK3   BC5EH     0101H     UNIT         ?PR?_CORRECTENDIENESS_SPLCSIMTXTESTPARAMS?PROD_TEST_CORRECT_ENDIENE
>> SS
            BANK3   BD5FH     00E2H     UNIT         ?PR?SETCSMA_ONCCO1?HAL_HPGPTX
            BANK3   BE41H     00E0H     UNIT         ?PR?HHAL_BPINTHANDLER?HAL_HPGPTX
            BANK3   BF21H     009EH     UNIT         ?PR?_DATAPATH_QUEUE?DATAPATH
            BANK3   BFBFH     008BH     UNIT         ?PR?_FWDAGENT_HANDLEDATA?FRAMETASK
            BANK3   C04AH     0087H     UNIT         ?PR?_ETH_FILLHYBRIIHEADER?DATAPATH
            BANK3   C0D1H     0083H     UNIT         ?PR?_DATAPATH_WRITEHOSTINTF?DATAPATH
            BANK3   C154H     0077H     UNIT         ?PR?_DATAPATH_GETHEADDESC?DATAPATH
            BANK3   C1CBH     0072H     UNIT         ?PR?_EHT_SETFRAMETYPELEN?DATAPATH
            BANK3   C23DH     005EH     UNIT         ?PR?_FWDAGENT_QUEUETOHOST?FRAMETASK
            BANK3   C29BH     004BH     UNIT         ?PR?HHAL_ISPLCIDLE?HAL_HPGPTX
            BANK3   C2E6H     003AH     UNIT         ?PR?_DATAPATH_QUEUE_DEPTH?DATAPATH
            BANK3   C320H     0039H     UNIT         ?PR?DATAPATH_TRANSMITDATAHOST?DATAPATH
            BANK3   C359H     0038H     UNIT         ?PR?FRAME_PROC?FRAMETASK
            BANK3   C391H     0034H     UNIT         ?PR?PROD_TEST_CORRECT_ENDIENESS
            BANK3   C3C5H     0032H     UNIT         ?PR?_EHT_FILLETHERHEADER?DATAPATH
            BANK3   C3F7H     002DH     UNIT         ?PR?_DATAPATH_ISQUEUEFULL?DATAPATH
            BANK3   C424H     0025H     UNIT         ?PR?DATAPATH_HANDLEPLCTXDONE?DATAPATH
            BANK3   C449H     0023H     UNIT         ?PR?_EHT_GETSNIFFHDRSIZE?DATAPATH
            BANK3   C46CH     001EH     UNIT         ?PR?_DATAPATH_ISQUEUEEMPTY?DATAPATH
            BANK3   C48AH     0017H     UNIT         ?PR?FWDAGENT_ISHOSTIDLE?FRAMETASK
            BANK3   C4A1H     0012H     UNIT         ?PR?HHAL_BCN3SENTINTHANDLER?HAL_HPGPTX
            BANK3   C4B3H     0012H     UNIT         ?PR?FRAMETASK
            BANK3   C4C5H     0011H     UNIT         ?PR?FRAME_TASK_INIT?FRAMETASK
            BANK3   C4D6H     000FH     UNIT         ?PR?DATAPATH_INIT?DATAPATH
            BANK3   C4E5H     0008H     UNIT         ?PR?FRAME_TASK?FRAMETASK
            BANK3   C4EDH     0005H     UNIT         ?PR?_FWDAGENT_QUEUETOPLC?FRAMETASK
            BANK3   C4F2H     0001H     UNIT         ?PR?HHAL_PLCPENDINGTX?HAL_HPGPTX

            * * * * * * *   C O D E   B A N K   4   * * * * * * *
                    0000H     A000H                  *** GAP ***
            BANK4   A000H     04D7H     UNIT         ?PR?HHT_SIMULATETXTESTMENU?HHAL_TST
            BANK4   A4D7H     0403H     UNIT         ?PR?_HHAL_CMDHALPROCESS?HHAL_TST
            BANK4   A8DAH     03F9H     UNIT         ?PR?HHAL_DISPLAYPLCSTAT?HHAL_TST
            BANK4   ACD3H     03E4H     UNIT         ?PR?HHAL_TST
            BANK4   B0B7H     03D5H     UNIT         ?PR?HHT_TESTMEMORYTABLES?HHAL_TST
            BANK4   B48CH     032CH     UNIT         ?PR?_PRODTESTEXECCMD?HAL_PROD_TST
            BANK4   B7B8H     02FEH     UNIT         ?PR?_COPY_PLCTXTESTSTATS?HAL_PROD_TST
            BANK4   BAB6H     02E2H     UNIT         ?PR?_HHT_SENDBCN?HHAL_TST
            BANK4   BD98H     02DDH     UNIT         ?PR?HHT_BASICTXMENU?HHAL_TST
            BANK4   C075H     02BCH     UNIT         ?PR?_UPDATESTATISTICDATA?HHAL_TST
            BANK4   C331H     027AH     UNIT         ?PR?_HAL_SPI_TX_DMA?HAL_SPI
BL51 BANKED LINKER/LOCATER V6.22                                                      01/10/2015  21:25:33  PAGE 10


            BANK4   C5ABH     01C4H     UNIT         ?PR?HAL_SPI
            BANK4   C76FH     01ADH     UNIT         ?PR?_HAL_SPI_TX_DMA_CP?HAL_SPI
            BANK4   C91CH     0173H     UNIT         ?PR?_EHAL_ETHTXQWRITE?HAL_ETH
            BANK4   CA8FH     0164H     UNIT         ?PR?HHT_SETKEY?HHAL_TST
            BANK4   CBF3H     014AH     UNIT         ?PR?EHAL_INIT?HAL_ETH
            BANK4   CD3DH     0144H     UNIT         ?PR?EHAL_PRINT_ETHHWSTAT?HAL_ETH
            BANK4   CE81H     0138H     UNIT         ?PR?HAL_SPI_RX_DONE_HANDLER?HAL_SPI
            BANK4   CFB9H     0115H     UNIT         ?PR?_EHAL_ETHPHYREGOP?HAL_ETH
            BANK4   D0CEH     0102H     UNIT         ?PR?HAL_PROD_TST
            BANK4   D1D0H     00EEH     UNIT         ?PR?_HAL_SPI_FRAME_RX?HAL_SPI
            BANK4   D2BEH     00E7H     UNIT         ?PR?HAL_SPI_INIT?HAL_SPI
            BANK4   D3A5H     00DDH     UNIT         ?PR?HHT_ADDRCFG?HHAL_TST
            BANK4   D482H     00CDH     UNIT         ?PR?_UPDATE_POWERMODE?HHAL_TST
            BANK4   D54FH     00C7H     UNIT         ?PR?_FILLBUFFER?HAL_PROD_TST
            BANK4   D616H     00C6H     UNIT         ?PR?_HAL_SPI_SET_DMA_MODE?HAL_SPI
            BANK4   D6DCH     00AFH     UNIT         ?PR?PRODTEST_INIT?HAL_PROD_TST
            BANK4   D78BH     00ACH     UNIT         ?PR?HHT_SETROBOMODE?HHAL_TST
            BANK4   D837H     00A8H     UNIT         ?PR?EHAL_DISPLAYETHSTAT?HAL_ETH
            BANK4   D8DFH     00A4H     UNIT         ?PR?HAL_SPI_ISTXREADY?HAL_SPI
            BANK4   D983H     009EH     UNIT         ?PR?_HAL_SPI_SET_DIRECT_MODE?HAL_SPI
            BANK4   DA21H     009DH     UNIT         ?PR?_HAL_SPI_SET_RX_PAYLOAD_RDY?HAL_SPI
            BANK4   DABEH     0099H     UNIT         ?PR?_HHT_PROCESSPLCMACFRAME?HHAL_TST
            BANK4   DB57H     0097H     UNIT         ?PR?HHT_DEVCFG?HHAL_TST
            BANK4   DBEEH     0095H     UNIT         ?PR?_HAL_SPI_TX_DIRECT?HAL_SPI
            BANK4   DC83H     0085H     UNIT         ?PR?HAL_ETH
            BANK4   DD08H     0080H     UNIT         ?PR?_HHT_PROCESSBCNHLE?HHAL_TST
            BANK4   DD88H     007CH     UNIT         ?PR?_SENDSINGLEFRAME?HHAL_TST
            BANK4   DE04H     0073H     UNIT         ?PR?HAL_SPI_PREPARE_RX_CMD_ENGINE?HAL_SPI
            BANK4   DE77H     006AH     UNIT         ?PR?_ISPRODTSTCMD?HAL_PROD_TST
            BANK4   DEE1H     0064H     UNIT         ?PR?_SETLATENCY?HHAL_TST
            BANK4   DF45H     0064H     UNIT         ?PR?_CONNEXISTMASTER?HAL_ETH
            BANK4   DFA9H     005EH     UNIT         ?PR?_CONNEXISTSLAVE?HAL_ETH
            BANK4   E007H     0059H     UNIT         ?PR?_HHAL_TST_SNIFF_CFG?HHAL_TST
            BANK4   E060H     0055H     UNIT         ?PR?_HHT_GETROBOMODFRMLEN?HHAL_TST
            BANK4   E0B5H     0050H     UNIT         ?PR?_HAL_SPI_SETUP_RX_BUFFER?HAL_SPI
            BANK4   E105H     004DH     UNIT         ?PR?HHT_SETDEFEKS?HHAL_TST
            BANK4   E152H     004DH     UNIT         ?PR?HAL_SPI_RX_CLEANUP?HAL_SPI
            BANK4   E19FH     004BH     UNIT         ?PR?HHT_SETDIAGMODE?HHAL_TST
            BANK4   E1EAH     0047H     UNIT         ?PR?EHAL_DORELETHTXCP?HAL_ETH
            BANK4   E231H     0041H     UNIT         ?PR?HAL_SPI_STATS_SHOW?HAL_SPI
            BANK4   E272H     0040H     UNIT         ?PR?HAL_SPI_TX_DONE_HANDLER?HAL_SPI
            BANK4   E2B2H     003DH     UNIT         ?PR?EHAL_RESETSTAT?HAL_ETH
            BANK4   E2EFH     0037H     UNIT         ?PR?_EHAL_READETHSTATREG?HAL_ETH
            BANK4   E326H     0036H     UNIT         ?PR?HAL_SPI_TX_CLEANUP?HAL_SPI
            BANK4   E35CH     002BH     UNIT         ?PR?_FILL_TOOL_HEADER?HAL_PROD_TST
            BANK4   E387H     0029H     UNIT         ?PR?_PRODTESTSENDRESPOREVENT?HAL_PROD_TST
            BANK4   E3B0H     0026H     UNIT         ?PR?_HAL_SPI_GET_RX_ERRORS_STATS?HAL_SPI
            BANK4   E3D6H     0024H     UNIT         ?PR?HAL_SPI_CMD_LEN_RX_RDY?HAL_SPI
            BANK4   E3FAH     0024H     UNIT         ?PR?HAL_SPI_PAYLOAD_RX_RDY?HAL_SPI
            BANK4   E41EH     0024H     UNIT         ?PR?HAL_SPI_SLAVE_TX_REQ?HAL_SPI
            BANK4   E442H     0020H     UNIT         ?PR?GV701X_CHIP_RESET?HAL_PROD_TST
            BANK4   E462H     0019H     UNIT         ?PR?EHAL_GETETHTXQFREEDESCCNT?HAL_ETH
            BANK4   E47BH     0019H     UNIT         ?PR?_GVSPI_SEND?HAL_PROD_TST
            BANK4   E494H     0018H     UNIT         ?PR?_HAL_SPI_GET_RX_STATS?HAL_SPI
            BANK4   E4ACH     0018H     UNIT         ?PR?_HAL_SPI_GET_TX_STATS?HAL_SPI
            BANK4   E4C4H     0017H     UNIT         ?PR?SETFREQ60?HHAL_TST
            BANK4   E4DBH     0017H     UNIT         ?PR?_HAL_SPI_GET_TX_ERRORS_STATS?HAL_SPI
BL51 BANKED LINKER/LOCATER V6.22                                                      01/10/2015  21:25:33  PAGE 11


            BANK4   E4F2H     0012H     UNIT         ?PR?EHAL_ETHSENDPAUSE?HAL_ETH
            BANK4   E504H     0012H     UNIT         ?PR?HAL_SPI_CMD_LEN_RX_NOT_RDY?HAL_SPI
            BANK4   E516H     0011H     UNIT         ?PR?_HHT_DEMOMODETX?HHAL_LED
            BANK4   E527H     000FH     UNIT         ?PR?EHAL_CLEAR_ETHHWSTAT?HAL_ETH
            BANK4   E536H     000FH     UNIT         ?PR?_HHT_LEDDEMOTXMENU?HHAL_LED
            BANK4   E545H     000FH     UNIT         ?PR?HAL_SPI_CLEAR_STATS?HAL_SPI
            BANK4   E554H     000EH     UNIT         ?PR?EHAL_ISTXREADY?HAL_ETH
            BANK4   E562H     000AH     UNIT         ?PR?HHAL_CMDHELP?HHAL_TST
            BANK4   E56CH     000AH     UNIT         ?PR?EHAL_RELEASEETHTXCPINTHANDLER?HAL_ETH
            BANK4   E576H     0009H     UNIT         ?PR?_HHT_DEMOMODERX?HHAL_LED
            BANK4   E57FH     0006H     UNIT         ?PR?_HHT_TXLEDDEMO?HHAL_LED
            BANK4   E585H     0003H     UNIT         ?PR?HAL_SPI_SET_RX_CMD_LEN_RDY?HAL_SPI
            BANK4   E588H     0001H     UNIT         ?PR?HAL_SPI_CLEANUP?HAL_SPI



OVERLAY MAP OF MODULE:   .\obj\gc_hpgp (?C_STARTUP)


SEGMENT                                             BIT_GROUP          DATA_GROUP          XDATA_GROUP
  +--> CALLED SEGMENT                            START    LENGTH     START    LENGTH     START    LENGTH
--------------------------------------------------------------------------------------------------------
?C_C51STARTUP                                    -----    -----      -----    -----      -----    -----
  +--> ?C_INITSEG

*** NEW ROOT ***************************************************

?PR?LHTM_TASK?HAL_MAIN                           -----    -----      -----    -----      -----    -----
  +--> ?PR?CMDRUN?HAL_MAIN

?PR?CMDRUN?HAL_MAIN                              -----    -----      -----    -----      36A8H    0026H
  +--> ?CO?HAL_MAIN
  +--> ?PR?PRINTF?PRINTF
  +--> ?PR?CMDGET?HAL_MAIN
  +--> ?PR?CLEAR_GETCHAR
  +--> ?PR?HAL_MAIN
  +--> ?PR?_CMDSPI?HAL_MAIN
  +--> ?PR?_CMDWRITE?HAL_MAIN
  +--> ?PR?_CHAL_CMDHALPROCESS?CHAL_TST
  +--> ?PR?_HHAL_CMDHALPROCESS?HHAL_TST
  +--> ?PR?_EHAL_CMDHALPROCESS?EHAL_TST
  +--> ?PR?_IHAL_UI_CMD_PROCESS?IHAL_UI
  +--> ?PR?_CMDREAD?HAL_MAIN
  +--> ?PR?_CHAL_DELAYTICKS?HAL_COMMON
  +--> ?PR?_HHT_SENDBCN?HHAL_TST
  +--> ?PR?CMDHELP?HAL_MAIN

?PR?PRINTF?PRINTF                                0022H.4  0001H.1    002EH    0005H      3BC4H    0028H
  +--> ?PR?_PUTCHAR?HAL_MAIN

?PR?CMDGET?HAL_MAIN                              -----    -----      -----    -----      36CEH    0002H
  +--> ?PR?_GETKEY?HAL_MAIN
  +--> ?CO?HAL_MAIN
  +--> ?PR?PRINTF?PRINTF
  +--> ?PR?_PUTCHAR?HAL_MAIN

?PR?HAL_MAIN                                     -----    -----      -----    -----      -----    -----
BL51 BANKED LINKER/LOCATER V6.22                                                      01/10/2015  21:25:33  PAGE 12


  +--> ?CO?HAL_MAIN

?PR?_CMDSPI?HAL_MAIN                             -----    -----      -----    -----      36CEH    0008H
  +--> ?PR?HAL_MAIN
  +--> ?PR?SCANF?SCANF
  +--> ?CO?HAL_MAIN
  +--> ?PR?_MAC_UTILS_SPI_WRITE?UTILS
  +--> ?PR?_MAC_UTILS_SPI_READ?UTILS
  +--> ?PR?PRINTF?PRINTF

?PR?SCANF?SCANF                                  0020H.0  0000H.6    0024H    0005H      376EH    002EH
  +--> ?PR?GETCHAR?UNGETCHAR
  +--> ?PR?_ISSPACE?ISSPACE
  +--> ?PR?GETCHAR?GETCHAR

?PR?GETCHAR?GETCHAR                              -----    -----      -----    -----      -----    -----
  +--> ?PR?_GETKEY?HAL_MAIN
  +--> ?PR?_PUTCHAR?HAL_MAIN

?PR?_MAC_UTILS_SPI_WRITE?UTILS                   -----    -----      -----    -----      -----    -----
  +--> ?PR?_MAC_UTILS_AFE_SPI_ENABLE?UTILS
  +--> ?PR?UTILS
  +--> ?PR?_MAC_UTILS_DELAY_MS?UTILS

?PR?UTILS                                        -----    -----      -----    -----      -----    -----
  +--> ?CO?UTILS

?PR?_MAC_UTILS_DELAY_MS?UTILS                    -----    -----      -----    -----      39E7H    0002H

?PR?_MAC_UTILS_SPI_READ?UTILS                    -----    -----      -----    -----      -----    -----
  +--> ?PR?_MAC_UTILS_AFE_SPI_ENABLE?UTILS
  +--> ?PR?UTILS
  +--> ?PR?_MAC_UTILS_DELAY_MS?UTILS

?PR?_CMDWRITE?HAL_MAIN                           -----    -----      -----    -----      36CEH    000CH
  +--> ?PR?HAL_MAIN
  +--> ?PR?SCANF?SCANF
  +--> ?CO?HAL_MAIN
  +--> ?PR?_HAL_COMMON_REG_32_WRITE?HAL_COMMON
  +--> ?PR?_EHAL_ETHPHYREGOP?HAL_ETH
  +--> ?PR?PRINTF?PRINTF

?PR?_HAL_COMMON_REG_32_WRITE?HAL_COMMON          -----    -----      -----    -----      3B52H    0010H
  +--> ?PR?HAL_COMMON

?PR?_EHAL_ETHPHYREGOP?HAL_ETH                    -----    -----      -----    -----      3922H    0011H
  +--> ?PR?HAL_ETH

?PR?_CHAL_CMDHALPROCESS?CHAL_TST                 -----    -----      -----    -----      36CEH    000AH
  +--> ?CO?CHAL_TST
  +--> ?PR?SCANF?SCANF
  +--> ?PR?CHAL_TST
  +--> ?PR?CHAL_CMDHELP?CHAL_TST
  +--> ?PR?CHT_TESTMEM?CHAL_TST
  +--> ?PR?CHT_TESTCPS?CHAL_TST
  +--> ?PR?CHT_CPUSAGEDISPLAY?CHAL_TST
  +--> ?PR?CHT_DUMPMEM?CHAL_TST
BL51 BANKED LINKER/LOCATER V6.22                                                      01/10/2015  21:25:33  PAGE 13



?PR?CHAL_TST                                     -----    -----      -----    -----      -----    -----
  +--> ?CO?CHAL_TST

?PR?CHAL_CMDHELP?CHAL_TST                        -----    -----      -----    -----      -----    -----
  +--> ?CO?CHAL_TST
  +--> ?PR?PRINTF?PRINTF

?PR?CHT_TESTMEM?CHAL_TST                         -----    -----      -----    -----      36D8H    0012H
  +--> ?CO?CHAL_TST
  +--> ?PR?PRINTF?PRINTF
  +--> ?PR?CHAL_TST
  +--> ?PR?SCANF?SCANF

?PR?CHT_TESTCPS?CHAL_TST                         -----    -----      -----    -----      36D8H    0087H
  +--> ?CO?CHAL_TST
  +--> ?PR?CHAL_GETFREECPCNT?HAL_COMMON
  +--> ?PR?PRINTF?PRINTF
  +--> ?PR?CHAL_TST
  +--> ?PR?SCANF?SCANF
  +--> ?PR?_CHAL_REQUESTCP?HAL_COMMON
  +--> ?PR?_CHAL_INCREMENTCPUSAGECNT?HAL_COMMON
  +--> ?PR?_CHAL_DECREMENTRELEASECPCNT?HAL_C...
  +--> ?PR?_CHAL_GETCPUSAGECNT?HAL_COMMON

?PR?CHAL_GETFREECPCNT?HAL_COMMON                 -----    -----      -----    -----      3AF2H    0004H
  +--> ?PR?HAL_COMMON

?PR?_CHAL_REQUESTCP?HAL_COMMON                   -----    -----      -----    -----      3AEAH    0008H
  +--> ?PR?HAL_COMMON
  +--> ?PR?CHAL_GETFREECPCNT?HAL_COMMON
  +--> ?PR?_CHAL_DELAYTICKS?HAL_COMMON

?PR?_CHAL_DELAYTICKS?HAL_COMMON                  -----    -----      -----    -----      3AF2H    0004H

?PR?_CHAL_INCREMENTCPUSAGECNT?HAL_COMMON         -----    -----      -----    -----      375FH    0008H
  +--> ?PR?HAL_COMMON

?PR?_CHAL_DECREMENTRELEASECPCNT?HAL_C...         -----    -----      -----    -----      -----    -----
  +--> ?PR?_CHAL_FREECP?HAL_COMMON

?PR?_CHAL_FREECP?HAL_COMMON                      -----    -----      -----    -----      3B97H    0005H
  +--> ?PR?HAL_COMMON

?PR?_CHAL_GETCPUSAGECNT?HAL_COMMON               -----    -----      -----    -----      375FH    0008H
  +--> ?PR?HAL_COMMON

?PR?CHT_CPUSAGEDISPLAY?CHAL_TST                  -----    -----      -----    -----      36D8H    0001H
  +--> ?PR?_CHAL_GETCPUSAGECNT?HAL_COMMON
  +--> ?CO?CHAL_TST
  +--> ?PR?PRINTF?PRINTF

?PR?CHT_DUMPMEM?CHAL_TST                         -----    -----      -----    -----      36D8H    000CH
  +--> ?CO?CHAL_TST
  +--> ?PR?PRINTF?PRINTF
  +--> ?PR?CHAL_TST
  +--> ?PR?_HAL_COMMON_REG_32_READ?HAL_COMMON
BL51 BANKED LINKER/LOCATER V6.22                                                      01/10/2015  21:25:33  PAGE 14


  +--> ?PR?SCANF?SCANF

?PR?_HAL_COMMON_REG_32_READ?HAL_COMMON           -----    -----      -----    -----      3B52H    000CH
  +--> ?PR?HAL_COMMON

?PR?_HHAL_CMDHALPROCESS?HHAL_TST                 -----    -----      -----    -----      36CEH    0013H
  +--> ?PR?HHAL_TST
  +--> ?CO?HHAL_TST
  +--> ?PR?SCANF?SCANF
  +--> ?PR?HHT_BASICTXMENU?HHAL_TST
  +--> ?PR?HHAL_RESETPLCSTAT?HAL_HPGP
  +--> ?PR?HHAL_DISPLAYPLCSTAT?HHAL_TST
  +--> ?PR?HHT_SETDIAGMODE?HHAL_TST
  +--> ?PR?PRINTF?PRINTF
  +--> ?PR?_DATAPATH_QUEUE_DEPTH?DATAPATH
  +--> ?PR?_HHT_SENDBCN?HHAL_TST
  +--> ?PR?HHT_SIMULATETXTESTMENU?HHAL_TST
  +--> ?PR?SETFREQ60?HHAL_TST
  +--> ?PR?HHT_ADDRCFG?HHAL_TST
  +--> ?PR?_HHAL_SETDEVMODE?HAL_HPGP
  +--> ?PR?HHT_DEVCFG?HHAL_TST
  +--> ?PR?_HHAL_SETTEI?HAL_HPGP
  +--> ?PR?_SETLATENCY?HHAL_TST
  +--> ?PR?HHT_SETKEY?HHAL_TST
  +--> ?PR?HHT_SETDEFEKS?HHAL_TST
  +--> ?PR?HHT_TESTMEMORYTABLES?HHAL_TST
  +--> ?PR?HHT_SETROBOMODE?HHAL_TST
  +--> ?PR?_HHAL_SETSWSTATREQSCANFLAG?HAL_HPGP
  +--> ?PR?_HHAL_TST_SNIFF_CFG?HHAL_TST
  +--> ?PR?_UPDATE_POWERMODE?HHAL_TST
  +--> ?PR?GET_VERSION?SYS_COMMON
  +--> ?PR?_FM_PRINTF?FM
  +--> ?PR?_FM_SETDEBUG?FM
  +--> ?PR?HHAL_CMDHELP?HHAL_TST

?PR?HHAL_TST                                     -----    -----      -----    -----      -----    -----
  +--> ?CO?HHAL_TST

?PR?HHT_BASICTXMENU?HHAL_TST                     -----    -----      -----    -----      36E1H    0044H
  +--> ?PR?HHAL_TST
  +--> ?CO?HHAL_TST
  +--> ?PR?PRINTF?PRINTF
  +--> ?PR?_GETLINE?HAL_MAIN
  +--> ?PR?SCANF?SCANF
  +--> ?PR?_HHT_SIMULATETX?HAL_HPGP

?PR?_GETLINE?HAL_MAIN                            -----    -----      -----    -----      376EH    000CH
  +--> ?PR?HAL_MAIN
  +--> ?PR?_GETKEY?HAL_MAIN
  +--> ?PR?_PUTCHAR?HAL_MAIN

?PR?_HHT_SIMULATETX?HAL_HPGP                     -----    -----      -----    -----      39E7H    0103H
  +--> ?PR?HAL_HPGP
  +--> ?CO?HAL_HPGP
  +--> ?PR?_FM_HEXDUMP?FM
  +--> ?PR?_HHT_GETMINMAXLEN?HAL_HPGP
  +--> ?PR?_FM_PRINTF?FM
BL51 BANKED LINKER/LOCATER V6.22                                                      01/10/2015  21:25:33  PAGE 15


  +--> ?PR?_CHAL_REQUESTCP?HAL_COMMON
  +--> ?PR?CHAL_GETFREECPCNT?HAL_COMMON
  +--> ?PR?_CHAL_GETACCESSTOCP?HAL_COMMON
  +--> ?PR?_HHAL_PLCTXQWRITE?HAL_HPGPTX
  +--> ?PR?_CHAL_DELAYTICKS?HAL_COMMON
  +--> ?PR?PRINTF?PRINTF
  +--> ?PR?CHT_POLL?HAL_COMMON

?PR?HAL_HPGP                                     -----    -----      -----    -----      -----    -----
  +--> ?PR?_FREQDET_FREQSETTING?HAL_HPGP
  +--> ?CO?HAL_HPGP

?PR?_FM_HEXDUMP?FM                               -----    -----      -----    -----      3AEAH    0011H
  +--> ?PR?FM
  +--> ?CO?FM
  +--> ?PR?PRINTF?PRINTF

?PR?_HHT_GETMINMAXLEN?HAL_HPGP                   -----    -----      -----    -----      3AEAH    000CH
  +--> ?PR?HAL_HPGP

?PR?_FM_PRINTF?FM                                -----    -----      -----    -----      3B91H    0030H
  +--> ?PR?FM
  +--> ?PR?_VPRINTF?VPRINTF

?PR?_VPRINTF?VPRINTF                             -----    -----      -----    -----      3BC1H    0003H
  +--> ?PR?PRINTF?PRINTF

?PR?_CHAL_GETACCESSTOCP?HAL_COMMON               -----    -----      -----    -----      3AEAH    0004H
  +--> ?PR?HAL_COMMON

?PR?_HHAL_PLCTXQWRITE?HAL_HPGPTX                 -----    -----      -----    -----      3B55H    004AH
  +--> ?PR?HAL_HPGPTX

?PR?CHT_POLL?HAL_COMMON                          -----    -----      -----    -----      -----    -----
  +--> ?PR?POLL_KEY?HAL_MAIN

?PR?POLL_KEY?HAL_MAIN                            -----    -----      -----    -----      3AEAH    0001H
  +--> ?PR?HHAL_DISPLAYPLCSTAT?HHAL_TST
  +--> ?PR?EHAL_DISPLAYETHSTAT?HAL_ETH

?PR?HHAL_DISPLAYPLCSTAT?HHAL_TST                 -----    -----      -----    -----      3AEBH    0004H
  +--> ?PR?_HHAL_GETPLCTXQFREEDESCCNT?HAL_HPGP
  +--> ?PR?HHAL_TST
  +--> ?CO?HHAL_TST
  +--> ?PR?PRINTF?PRINTF
  +--> ?PR?_HAL_COMMON_REG_32_READ?HAL_COMMON
  +--> ?PR?CHAL_GETFREECPCNT?HAL_COMMON

?PR?_HHAL_GETPLCTXQFREEDESCCNT?HAL_HPGP          -----    -----      -----    -----      3AEFH    0005H
  +--> ?PR?HAL_HPGP

?PR?EHAL_DISPLAYETHSTAT?HAL_ETH                  -----    -----      -----    -----      3AEBH    0002H
  +--> ?PR?EHAL_GETETHTXQFREEDESCCNT?HAL_ETH
  +--> ?CO?HAL_ETH
  +--> ?PR?PRINTF?PRINTF
  +--> ?PR?CHAL_GETFREECPCNT?HAL_COMMON

BL51 BANKED LINKER/LOCATER V6.22                                                      01/10/2015  21:25:33  PAGE 16


?PR?EHAL_GETETHTXQFREEDESCCNT?HAL_ETH            -----    -----      -----    -----      3BA1H    0004H

?PR?HHT_SETDIAGMODE?HHAL_TST                     -----    -----      -----    -----      36E1H    0002H
  +--> ?CO?HHAL_TST
  +--> ?PR?PRINTF?PRINTF
  +--> ?PR?HHAL_TST
  +--> ?PR?SCANF?SCANF
  +--> ?PR?_HHAL_SETDIAGMODE?HAL_HPGP
  +--> ?PR?_HHAL_SETDIAGMODENOSACK?HAL_HPGP

?PR?_HHAL_SETDIAGMODE?HAL_HPGP                   -----    -----      -----    -----      36E3H    0004H
  +--> ?PR?HAL_HPGP

?PR?_HHAL_SETDIAGMODENOSACK?HAL_HPGP             -----    -----      -----    -----      36E3H    0004H
  +--> ?PR?HAL_HPGP

?PR?_DATAPATH_QUEUE_DEPTH?DATAPATH               -----    -----      -----    -----      36E1H    0001H
  +--> ?PR?DATAPATH
  +--> ?CO?DATAPATH
  +--> ?PR?PRINTF?PRINTF
  +--> ?PR?CHAL_GETFREECPCNT?HAL_COMMON

?PR?_HHT_SENDBCN?HHAL_TST                        -----    -----      -----    -----      3934H    0018H
  +--> ?PR?HHAL_TST

?PR?HHT_SIMULATETXTESTMENU?HHAL_TST              -----    -----      -----    -----      36E1H    004AH
  +--> ?CO?HHAL_TST
  +--> ?PR?PRINTF?PRINTF
  +--> ?PR?HHAL_TST
  +--> ?PR?_GETLINE?HAL_MAIN
  +--> ?PR?SCANF?SCANF
  +--> ?PR?_HHT_SIMULATETX?HAL_HPGP

?PR?SETFREQ60?HHAL_TST                           -----    -----      -----    -----      -----    -----
  +--> ?PR?_FREQDET_FREQSETTING?HAL_HPGP
  +--> ?PR?_HHAL_SETDEVMODE?HAL_HPGP

?PR?_HHAL_SETDEVMODE?HAL_HPGP                    -----    -----      -----    -----      3931H    001FH
  +--> ?PR?HAL_HPGP
  +--> ?PR?_SET_PLC_PARAMTER?HAL_HPGP
  +--> ?PR?_HHAL_SETPLCDEVMODE?HAL_HPGP
  +--> ?PR?SETCSMA_ONCCO?HAL_HPGPTX
  +--> ?PR?SETCSMA_ONSTA?HAL_HPGPTX

?PR?_SET_PLC_PARAMTER?HAL_HPGP                   -----    -----      -----    -----      3950H    0009H
  +--> ?PR?HAL_HPGP

?PR?_HHAL_SETPLCDEVMODE?HAL_HPGP                 -----    -----      -----    -----      3950H    0004H
  +--> ?PR?HAL_HPGP

?PR?SETCSMA_ONCCO?HAL_HPGPTX                     -----    -----      -----    -----      3950H    000FH
  +--> ?PR?HAL_HPGPTX

?PR?SETCSMA_ONSTA?HAL_HPGPTX                     -----    -----      -----    -----      3950H    000FH
  +--> ?PR?HAL_HPGPTX

?PR?HHT_ADDRCFG?HHAL_TST                         -----    -----      -----    -----      36E1H    000DH
BL51 BANKED LINKER/LOCATER V6.22                                                      01/10/2015  21:25:33  PAGE 17


  +--> ?PR?HHAL_GETSNID?HAL_HPGP
  +--> ?PR?HHAL_GETTEI?HAL_HPGP
  +--> ?CO?HHAL_TST
  +--> ?PR?PRINTF?PRINTF
  +--> ?PR?HHAL_TST
  +--> ?PR?_GETLINE?HAL_MAIN
  +--> ?PR?SCANF?SCANF
  +--> ?PR?_HHAL_SETTEI?HAL_HPGP
  +--> ?PR?_HHAL_SETSNID?HAL_HPGP

?PR?HHAL_GETSNID?HAL_HPGP                        -----    -----      -----    -----      36EEH    0004H
  +--> ?PR?HAL_HPGP

?PR?HHAL_GETTEI?HAL_HPGP                         -----    -----      -----    -----      36EEH    0004H
  +--> ?PR?HAL_HPGP

?PR?_HHAL_SETTEI?HAL_HPGP                        -----    -----      -----    -----      39E7H    0004H
  +--> ?PR?HAL_HPGP

?PR?_HHAL_SETSNID?HAL_HPGP                       -----    -----      -----    -----      3A2CH    0005H
  +--> ?PR?HAL_HPGP
  +--> ?CO?HAL_HPGP
  +--> ?PR?_FM_PRINTF?FM

?PR?HHT_DEVCFG?HHAL_TST                          -----    -----      -----    -----      36E1H    000DH
  +--> ?PR?HHAL_GETPLCDEVMODE?HAL_HPGP
  +--> ?CO?HHAL_TST
  +--> ?PR?HHAL_TST
  +--> ?PR?SCANF?SCANF
  +--> ?PR?_HHAL_SETDEVMODE?HAL_HPGP
  +--> ?PR?HHAL_SETDEFADDRCONFIG?HAL_HPGP
  +--> ?PR?_GETLINE?HAL_MAIN
  +--> ?PR?PRINTF?PRINTF

?PR?HHAL_GETPLCDEVMODE?HAL_HPGP                  -----    -----      -----    -----      36EEH    0004H
  +--> ?PR?HAL_HPGP

?PR?HHAL_SETDEFADDRCONFIG?HAL_HPGP               -----    -----      -----    -----      -----    -----
  +--> ?PR?_HHAL_SETTEI?HAL_HPGP
  +--> ?PR?_HHAL_SETSNID?HAL_HPGP

?PR?_SETLATENCY?HHAL_TST                         -----    -----      -----    -----      36E1H    0001H
  +--> ?PR?HHAL_TST
  +--> ?PR?SCANF?SCANF
  +--> ?PR?_SET_PLC_PARAMTER?HAL_HPGP

?PR?HHT_SETKEY?HHAL_TST                          -----    -----      -----    -----      36E1H    000EH
  +--> ?CO?HHAL_TST
  +--> ?PR?PRINTF?PRINTF
  +--> ?PR?HHAL_TST
  +--> ?PR?_GETLINE?HAL_MAIN
  +--> ?PR?SCANF?SCANF
  +--> ?PR?_HHAL_ADDNEK?HAL_HPGP
  +--> ?PR?_HHAL_ADDPPEK?HAL_HPGP

?PR?_HHAL_ADDNEK?HAL_HPGP                        -----    -----      -----    -----      3A05H    001AH
  +--> ?PR?HAL_HPGP
BL51 BANKED LINKER/LOCATER V6.22                                                      01/10/2015  21:25:33  PAGE 18


  +--> ?CO?HAL_HPGP
  +--> ?PR?_FM_PRINTF?FM

?PR?_HHAL_ADDPPEK?HAL_HPGP                       -----    -----      -----    -----      36EFH    001EH
  +--> ?PR?HAL_HPGP
  +--> ?CO?HAL_HPGP
  +--> ?PR?_FM_PRINTF?FM

?PR?HHT_SETDEFEKS?HHAL_TST                       -----    -----      -----    -----      36E1H    000AH
  +--> ?CO?HHAL_TST
  +--> ?PR?PRINTF?PRINTF
  +--> ?PR?HHAL_TST
  +--> ?PR?_GETLINE?HAL_MAIN
  +--> ?PR?SCANF?SCANF

?PR?HHT_TESTMEMORYTABLES?HHAL_TST                -----    -----      -----    -----      36E1H    0026H
  +--> ?CO?HHAL_TST
  +--> ?PR?PRINTF?PRINTF
  +--> ?PR?HHAL_TST
  +--> ?PR?_GETLINE?HAL_MAIN
  +--> ?PR?SCANF?SCANF
  +--> ?PR?_HAL_COMMON_REG_32_WRITE?HAL_COMMON
  +--> ?PR?_HAL_COMMON_REG_32_READ?HAL_COMMON

?PR?HHT_SETROBOMODE?HHAL_TST                     -----    -----      -----    -----      36E1H    000DH
  +--> ?CO?HHAL_TST
  +--> ?PR?PRINTF?PRINTF
  +--> ?PR?HHAL_TST
  +--> ?PR?_GETLINE?HAL_MAIN
  +--> ?PR?SCANF?SCANF
  +--> ?PR?_HHAL_PHYPGMROBOMD?HAL_HPGP

?PR?_HHAL_PHYPGMROBOMD?HAL_HPGP                  -----    -----      -----    -----      36EEH    0003H
  +--> ?PR?HAL_HPGP

?PR?_HHAL_SETSWSTATREQSCANFLAG?HAL_HPGP          -----    -----      -----    -----      3A44H    0009H
  +--> ?PR?HAL_HPGP
  +--> ?CO?HAL_HPGP
  +--> ?PR?_FM_PRINTF?FM

?PR?_HHAL_TST_SNIFF_CFG?HHAL_TST                 -----    -----      -----    -----      36E1H    0005H
  +--> ?CO?HHAL_TST
  +--> ?PR?PRINTF?PRINTF

?PR?_UPDATE_POWERMODE?HHAL_TST                   -----    -----      -----    -----      36E1H    000BH
  +--> ?CO?HHAL_TST
  +--> ?PR?PRINTF?PRINTF
  +--> ?PR?HHAL_TST
  +--> ?PR?_GETLINE?HAL_MAIN
  +--> ?PR?SCANF?SCANF
  +--> ?PR?_MAC_UTILS_SPI_WRITE?UTILS

?PR?HHAL_CMDHELP?HHAL_TST                        -----    -----      -----    -----      -----    -----
  +--> ?CO?HHAL_TST
  +--> ?PR?PRINTF?PRINTF

?PR?_EHAL_CMDHALPROCESS?EHAL_TST                 -----    -----      -----    -----      36CEH    0014H
BL51 BANKED LINKER/LOCATER V6.22                                                      01/10/2015  21:25:33  PAGE 19


  +--> ?CO?EHAL_TST
  +--> ?PR?EHAL_TST
  +--> ?PR?SCANF?SCANF
  +--> ?PR?PRINTF?PRINTF
  +--> ?PR?_EHT_BASICTXRXMENU?EHAL_TST
  +--> ?PR?EHAL_DISPLAYETHSTAT?HAL_ETH
  +--> ?PR?EHAL_RESETSTAT?HAL_ETH
  +--> ?PR?EHAL_PRINT_ETHHWSTAT?HAL_ETH
  +--> ?PR?EHAL_CLEAR_ETHHWSTAT?HAL_ETH

?PR?EHAL_TST                                     -----    -----      -----    -----      -----    -----
  +--> ?CO?EHAL_TST

?PR?_EHT_BASICTXRXMENU?EHAL_TST                  -----    -----      -----    -----      36E2H    008CH
  +--> ?CO?EHAL_TST
  +--> ?PR?EHAL_TST
  +--> ?PR?PRINTF?PRINTF
  +--> ?PR?SCANF?SCANF
  +--> ?PR?_GETLINE?HAL_MAIN
  +--> ?PR?_EHT_TESTTXRXSTATIONS?EHAL_TST
  +--> ?PR?_EHT_SIMULATETX?EHAL_TST

?PR?_EHT_TESTTXRXSTATIONS?EHAL_TST               -----    -----      -----    -----      376EH    0008H
  +--> ?PR?EHAL_TST
  +--> ?PR?_EHT_OPENCONN?EHAL_TST
  +--> ?CO?EHAL_TST
  +--> ?PR?PRINTF?PRINTF
  +--> ?PR?_EHT_XMITDATA?EHAL_TST

?PR?_EHT_OPENCONN?EHAL_TST                       -----    -----      -----    -----      3776H    0018H
  +--> ?PR?EHAL_TST
  +--> ?PR?_ETH_XMITCMDPKT?EHAL_TST
  +--> ?PR?CHT_POLL?HAL_COMMON

?PR?_ETH_XMITCMDPKT?EHAL_TST                     -----    -----      -----    -----      37F6H    0049H
  +--> ?PR?_ETH_ALLOC1STCP?EHAL_TST
  +--> ?PR?EHAL_TST
  +--> ?CO?EHAL_TST
  +--> ?PR?PRINTF?PRINTF
  +--> ?PR?_EHAL_ETHTXQWRITE?HAL_ETH
  +--> ?PR?CHT_POLL?HAL_COMMON
  +--> ?PR?_CHAL_DECREMENTRELEASECPCNT?HAL_C...

?PR?_ETH_ALLOC1STCP?EHAL_TST                     -----    -----      -----    -----      383FH    0015H
  +--> ?PR?_ETH_ALLOCONECP?EHAL_TST
  +--> ?PR?_CHAL_GETACCESSTOCP?HAL_COMMON
  +--> ?PR?EHAL_TST

?PR?_ETH_ALLOCONECP?EHAL_TST                     -----    -----      -----    -----      3854H    0005H
  +--> ?PR?_CHAL_REQUESTCP?HAL_COMMON
  +--> ?PR?EHAL_TST
  +--> ?CO?EHAL_TST
  +--> ?PR?PRINTF?PRINTF

?PR?_EHAL_ETHTXQWRITE?HAL_ETH                    -----    -----      -----    -----      3B91H    0010H
  +--> ?PR?HAL_ETH
  +--> ?PR?EHAL_GETETHTXQFREEDESCCNT?HAL_ETH
BL51 BANKED LINKER/LOCATER V6.22                                                      01/10/2015  21:25:33  PAGE 20


  +--> ?CO?HAL_ETH
  +--> ?PR?PRINTF?PRINTF

?PR?_EHT_XMITDATA?EHAL_TST                       -----    -----      -----    -----      3776H    006BH
  +--> ?PR?EHAL_TST
  +--> ?PR?_ETH_ALLOC1STCP?EHAL_TST
  +--> ?CO?EHAL_TST
  +--> ?PR?_ETH_ALLOCONECP?EHAL_TST
  +--> ?PR?PRINTF?PRINTF
  +--> ?PR?_CHAL_GETACCESSTOCP?HAL_COMMON
  +--> ?PR?_EHAL_ETHTXQWRITE?HAL_ETH
  +--> ?PR?_CHAL_DELAYTICKS?HAL_COMMON
  +--> ?PR?CHT_POLL?HAL_COMMON
  +--> ?PR?_EHT_CLOSECONN?EHAL_TST

?PR?_EHT_CLOSECONN?EHAL_TST                      -----    -----      -----    -----      37E1H    0015H
  +--> ?PR?EHAL_TST
  +--> ?PR?_ETH_XMITCMDPKT?EHAL_TST
  +--> ?PR?CHT_POLL?HAL_COMMON

?PR?_EHT_SIMULATETX?EHAL_TST                     -----    -----      -----    -----      376EH    006CH
  +--> ?PR?EHAL_TST
  +--> ?CO?EHAL_TST
  +--> ?PR?PRINTF?PRINTF
  +--> ?PR?_CHAL_REQUESTCP?HAL_COMMON
  +--> ?PR?CHT_POLL?HAL_COMMON
  +--> ?PR?CHAL_GETFREECPCNT?HAL_COMMON
  +--> ?PR?_CHAL_GETACCESSTOCP?HAL_COMMON
  +--> ?PR?_FM_PRINTF?FM
  +--> ?PR?_EHAL_ETHTXQWRITE?HAL_ETH
  +--> ?PR?_CHAL_DELAYTICKS?HAL_COMMON

?PR?EHAL_PRINT_ETHHWSTAT?HAL_ETH                 -----    -----      -----    -----      36E2H    0001H
  +--> ?CO?HAL_ETH
  +--> ?PR?PRINTF?PRINTF
  +--> ?PR?_EHAL_READETHSTATREG?HAL_ETH

?PR?_EHAL_READETHSTATREG?HAL_ETH                 -----    -----      -----    -----      36E3H    0004H

?PR?EHAL_CLEAR_ETHHWSTAT?HAL_ETH                 -----    -----      -----    -----      -----    -----
  +--> ?CO?HAL_ETH
  +--> ?PR?PRINTF?PRINTF

?PR?_IHAL_UI_CMD_PROCESS?IHAL_UI                 -----    -----      -----    -----      36CEH    000AH
  +--> ?CO?IHAL_UI
  +--> ?PR?IHAL_UI
  +--> ?PR?SCANF?SCANF
  +--> ?PR?PRINTF?PRINTF
  +--> ?PR?IHAL_UI_TX_MENU?IHAL_UI
  +--> ?PR?IHAL_UI_RX_MENU?IHAL_UI

?PR?IHAL_UI                                      -----    -----      -----    -----      -----    -----
  +--> ?CO?IHAL_UI

?PR?IHAL_UI_TX_MENU?IHAL_UI                      -----    -----      -----    -----      36D8H    0012H
  +--> ?CO?IHAL_UI
  +--> ?PR?PRINTF?PRINTF
BL51 BANKED LINKER/LOCATER V6.22                                                      01/10/2015  21:25:33  PAGE 21


  +--> ?PR?IHAL_UI
  +--> ?PR?_IHAL_TST_SLAVE_TX_DMA?IHAL_TST
  +--> ?PR?_GETLINE?HAL_MAIN
  +--> ?PR?SCANF?SCANF

?PR?_IHAL_TST_SLAVE_TX_DMA?IHAL_TST              -----    -----      -----    -----      36EAH    0027H
  +--> ?PR?HAL_SPI_CLEAR_STATS?HAL_SPI
  +--> ?PR?IHAL_TST
  +--> ?PR?_HAL_COMMON_REG_BIT_TEST?HAL_COMMON
  +--> ?PR?_HAL_COMMON_REG_32_WRITE?HAL_COMMON
  +--> ?PR?HAL_SPI_TX_DONE_HANDLER?HAL_SPI
  +--> ?PR?_HAL_SPI_GET_TX_STATS?HAL_SPI
  +--> ?PR?_GETCHAR?HAL_MAIN
  +--> ?PR?HAL_SPI_TX_CLEANUP?HAL_SPI
  +--> ?PR?_HAL_SPI_GET_TX_ERRORS_STATS?HAL_SPI
  +--> ?CO?IHAL_TST
  +--> ?PR?PRINTF?PRINTF

?PR?_HAL_COMMON_REG_BIT_TEST?HAL_COMMON          -----    -----      -----    -----      3B46H    000CH
  +--> ?PR?_HAL_COMMON_REG_32_READ?HAL_COMMON
  +--> ?PR?HAL_COMMON

?PR?HAL_SPI_TX_DONE_HANDLER?HAL_SPI              -----    -----      -----    -----      -----    -----
  +--> ?PR?HAL_SPI
  +--> ?PR?_HAL_COMMON_REG_BIT_TEST?HAL_COMMON
  +--> ?PR?_HAL_COMMON_REG_BIT_SET?HAL_COMMON
  +--> ?PR?HAL_SPI_PREPARE_RX_CMD_ENGINE?HAL...
  +--> ?PR?_DATAPATH_ISQUEUEEMPTY?DATAPATH
  +--> ?PR?HAL_SPI_SET_RX_CMD_LEN_RDY?HAL_SPI

?PR?_HAL_COMMON_REG_BIT_SET?HAL_COMMON           -----    -----      -----    -----      3B46H    000CH
  +--> ?PR?HAL_COMMON
  +--> ?PR?_HAL_COMMON_REG_32_READ?HAL_COMMON
  +--> ?PR?_HAL_COMMON_REG_32_WRITE?HAL_COMMON

?PR?HAL_SPI_PREPARE_RX_CMD_ENGINE?HAL...         -----    -----      -----    -----      39EBH    0004H
  +--> ?PR?HAL_SPI
  +--> ?PR?_HAL_COMMON_REG_32_READ?HAL_COMMON
  +--> ?PR?_HAL_COMMON_BIT_FIELD_SET?HAL_COMMON
  +--> ?PR?_HAL_COMMON_REG_32_WRITE?HAL_COMMON
  +--> ?PR?_HAL_COMMON_REG_BIT_CLEAR?HAL_COMMON
  +--> ?PR?_HAL_COMMON_REG_BIT_SET?HAL_COMMON

?PR?_HAL_COMMON_BIT_FIELD_SET?HAL_COMMON         -----    -----      -----    -----      3A28H    000CH
  +--> ?PR?HAL_COMMON

?PR?_HAL_COMMON_REG_BIT_CLEAR?HAL_COMMON         -----    -----      -----    -----      3B46H    000CH
  +--> ?PR?HAL_COMMON
  +--> ?PR?_HAL_COMMON_REG_32_READ?HAL_COMMON
  +--> ?PR?_HAL_COMMON_REG_32_WRITE?HAL_COMMON

?PR?_DATAPATH_ISQUEUEEMPTY?DATAPATH              -----    -----      -----    -----      -----    -----
  +--> ?PR?DATAPATH

?PR?HAL_SPI_SET_RX_CMD_LEN_RDY?HAL_SPI           -----    -----      -----    -----      -----    -----
  +--> ?PR?HAL_SPI_CMD_LEN_RX_RDY?HAL_SPI

BL51 BANKED LINKER/LOCATER V6.22                                                      01/10/2015  21:25:33  PAGE 22


?PR?HAL_SPI_CMD_LEN_RX_RDY?HAL_SPI               -----    -----      -----    -----      -----    -----
  +--> ?PR?HAL_SPI
  +--> ?PR?_HAL_COMMON_REG_BIT_CLEAR?HAL_COMMON
  +--> ?PR?_HAL_COMMON_REG_BIT_SET?HAL_COMMON

?PR?_HAL_SPI_GET_TX_STATS?HAL_SPI                -----    -----      -----    -----      3711H    0006H

?PR?HAL_SPI_TX_CLEANUP?HAL_SPI                   -----    -----      -----    -----      -----    -----
  +--> ?PR?HAL_SPI
  +--> ?PR?_HAL_COMMON_REG_BIT_SET?HAL_COMMON
  +--> ?PR?_HAL_COMMON_REG_BIT_CLEAR?HAL_COMMON

?PR?_HAL_SPI_GET_TX_ERRORS_STATS?HAL_SPI         -----    -----      -----    -----      3711H    0006H
  +--> ?PR?HAL_SPI

?PR?IHAL_UI_RX_MENU?IHAL_UI                      -----    -----      -----    -----      36D8H    000CH
  +--> ?CO?IHAL_UI
  +--> ?PR?PRINTF?PRINTF
  +--> ?PR?_GETLINE?HAL_MAIN
  +--> ?PR?IHAL_UI
  +--> ?PR?SCANF?SCANF
  +--> ?PR?_IHAL_TST_RX?IHAL_TST

?PR?_IHAL_TST_RX?IHAL_TST                        -----    -----      -----    -----      36E4H    0012H
  +--> ?PR?HAL_SPI_CLEAR_STATS?HAL_SPI
  +--> ?PR?HAL_SPI_SET_RX_CMD_LEN_RDY?HAL_SPI
  +--> ?PR?IHAL_TST
  +--> ?PR?_HAL_COMMON_REG_BIT_TEST?HAL_COMMON
  +--> ?PR?_HAL_COMMON_REG_BIT_SET?HAL_COMMON
  +--> ?PR?HAL_SPI_RX_DONE_HANDLER?HAL_SPI
  +--> ?PR?CHAL_CPUTXQNEMPTYINTHANDLER?HAL_C...
  +--> ?PR?_GETCHAR?HAL_MAIN
  +--> ?PR?HAL_SPI_RX_CLEANUP?HAL_SPI
  +--> ?CO?IHAL_TST
  +--> ?PR?PRINTF?PRINTF
  +--> ?PR?_HAL_SPI_GET_RX_ERRORS_STATS?HAL_SPI
  +--> ?PR?_HAL_SPI_GET_RX_STATS?HAL_SPI

?PR?HAL_SPI_RX_DONE_HANDLER?HAL_SPI              0021H.2  0000H.1    -----    -----      392CH    0008H
  +--> ?PR?_MAC_UTILS_BYTE_ARRAY_TO_16_BIT?U...
  +--> ?CO?HAL_SPI
  +--> ?PR?HAL_SPI
  +--> ?PR?HAL_SPI_CMD_LEN_RX_NOT_RDY?HAL_SPI
  +--> ?PR?_HAL_SPI_SET_RX_PAYLOAD_RDY?HAL_SPI
  +--> ?PR?_HAL_COMMON_REG_BIT_TEST?HAL_COMMON
  +--> ?PR?_HAL_COMMON_REG_BIT_SET?HAL_COMMON
  +--> ?PR?HAL_SPI_PREPARE_RX_CMD_ENGINE?HAL...
  +--> ?PR?_DATAPATH_ISQUEUEEMPTY?DATAPATH
  +--> ?PR?HAL_SPI_SET_RX_CMD_LEN_RDY?HAL_SPI
  +--> ?PR?_FM_PRINTF?FM

?PR?HAL_SPI_CMD_LEN_RX_NOT_RDY?HAL_SPI           -----    -----      -----    -----      -----    -----
  +--> ?PR?HAL_SPI
  +--> ?PR?_HAL_COMMON_REG_BIT_CLEAR?HAL_COMMON

?PR?_HAL_SPI_SET_RX_PAYLOAD_RDY?HAL_SPI          -----    -----      -----    -----      3934H    0006H
  +--> ?PR?HAL_SPI
BL51 BANKED LINKER/LOCATER V6.22                                                      01/10/2015  21:25:33  PAGE 23


  +--> ?PR?_HAL_COMMON_REG_32_WRITE?HAL_COMMON
  +--> ?PR?_HAL_COMMON_REG_32_READ?HAL_COMMON
  +--> ?PR?_HAL_COMMON_BIT_FIELD_SET?HAL_COMMON
  +--> ?PR?_HAL_COMMON_REG_BIT_CLEAR?HAL_COMMON
  +--> ?PR?_HAL_COMMON_REG_BIT_SET?HAL_COMMON
  +--> ?PR?_HAL_SPI_SETUP_RX_BUFFER?HAL_SPI
  +--> ?PR?HAL_SPI_PAYLOAD_RX_RDY?HAL_SPI

?PR?_HAL_SPI_SETUP_RX_BUFFER?HAL_SPI             -----    -----      -----    -----      393AH    0006H
  +--> ?PR?HAL_SPI
  +--> ?PR?_HAL_COMMON_BIT_FIELD_SET?HAL_COMMON
  +--> ?PR?_HAL_COMMON_REG_32_WRITE?HAL_COMMON

?PR?HAL_SPI_PAYLOAD_RX_RDY?HAL_SPI               -----    -----      -----    -----      -----    -----
  +--> ?PR?HAL_SPI
  +--> ?PR?_HAL_COMMON_REG_BIT_CLEAR?HAL_COMMON
  +--> ?PR?_HAL_COMMON_REG_BIT_SET?HAL_COMMON

?PR?CHAL_CPUTXQNEMPTYINTHANDLER?HAL_C...         -----    -----      -----    -----      392CH    007FH
  +--> ?PR?HAL_COMMON
  +--> ?PR?HHAL_REQ_GNT_READ_CPU_QD?HAL_COMMON
  +--> ?PR?_CHAL_DECREMENTRELEASECPCNT?HAL_C...
  +--> ?PR?HHAL_REL_GNT_READ_CPU_QD?HAL_COMMON
  +--> ?PR?_HAL_COMMON_FREE_FRAME?HAL_COMMON
  +--> ?PR?_HAL_SPI_FRAME_RX?HAL_SPI
  +--> ?PR?_HOST_RXHANDLER?DATAPATH
  +--> ?PR?_HHAL_RXINTHANDLER?HAL_HPGPRX
  +--> ?PR?CHAL_GETCPUTXQDESCCOUNT?HAL_COMMON

?PR?HHAL_REQ_GNT_READ_CPU_QD?HAL_COMMON          -----    -----      -----    -----      39ABH    0004H
  +--> ?PR?HAL_COMMON
  +--> ?PR?_CHAL_DELAYTICKS?HAL_COMMON

?PR?HHAL_REL_GNT_READ_CPU_QD?HAL_COMMON          -----    -----      -----    -----      39ABH    0004H
  +--> ?PR?HAL_COMMON

?PR?_HAL_COMMON_FREE_FRAME?HAL_COMMON            -----    -----      -----    -----      3A5DH    0004H
  +--> ?PR?HAL_COMMON
  +--> ?PR?_CHAL_DECREMENTRELEASECPCNT?HAL_C...

?PR?_HAL_SPI_FRAME_RX?HAL_SPI                    -----    -----      -----    -----      39ABH    000BH
  +--> ?PR?HAL_SPI
  +--> ?PR?_CHAL_GETACCESSTOCP?HAL_COMMON
  +--> ?PR?_ISPRODTSTCMD?HAL_PROD_TST
  +--> ?PR?_PRODTESTEXECCMD?HAL_PROD_TST
  +--> ?PR?_HOST_RXHANDLER?DATAPATH
  +--> ?PR?_HAL_COMMON_FREE_FRAME?HAL_COMMON

?PR?_ISPRODTSTCMD?HAL_PROD_TST                   -----    -----      -----    -----      39B6H    000DH
  +--> ?PR?HAL_PROD_TST

?PR?_PRODTESTEXECCMD?HAL_PROD_TST                -----    -----      -----    -----      39B6H    0031H
  +--> ?PR?HAL_PROD_TST
  +--> ?CO?HAL_PROD_TST
  +--> ?PR?PRINTF?PRINTF
  +--> ?PR?_PRODTESTSENDRESPOREVENT?HAL_PROD...
  +--> ?PR?CHECKSPITXDONE?ISM
BL51 BANKED LINKER/LOCATER V6.22                                                      01/10/2015  21:25:33  PAGE 24


  +--> ?PR?_FILL_TOOL_HEADER?HAL_PROD_TST
  +--> ?PR?_COPY_PLCTXTESTSTATS?HAL_PROD_TST
  +--> ?PR?_GVSPI_SEND?HAL_PROD_TST
  +--> ?PR?PRODTEST_INIT?HAL_PROD_TST
  +--> ?PR?_CORRECTENDIENESS_SPLCSIMTXTESTPA...
  +--> ?PR?_HAL_COMMON_REG_32_READ?HAL_COMMON
  +--> ?PR?_HHAL_SETTEI?HAL_HPGP
  +--> ?PR?_HHAL_SETSNID?HAL_HPGP
  +--> ?PR?_MAC_UTILS_SPI_WRITE?UTILS
  +--> ?PR?_HHT_SIMULATETX?HAL_HPGP

?PR?_PRODTESTSENDRESPOREVENT?HAL_PROD...         -----    -----      -----    -----      39E7H    0007H
  +--> ?PR?HAL_PROD_TST
  +--> ?PR?_FILL_TOOL_HEADER?HAL_PROD_TST
  +--> ?PR?_GVSPI_SEND?HAL_PROD_TST

?PR?_FILL_TOOL_HEADER?HAL_PROD_TST               -----    -----      -----    -----      3A05H    0007H

?PR?_GVSPI_SEND?HAL_PROD_TST                     -----    -----      -----    -----      -----    -----
  +--> ?PR?_HAL_SPI_TX_DMA?HAL_SPI
  +--> ?CO?HAL_PROD_TST
  +--> ?PR?PRINTF?PRINTF

?PR?_HAL_SPI_TX_DMA?HAL_SPI                      -----    -----      -----    -----      3A05H    001DH
  +--> ?CO?HAL_SPI
  +--> ?PR?PRINTF?PRINTF
  +--> ?PR?HAL_SPI
  +--> ?PR?_HAL_COMMON_REG_BIT_TEST?HAL_COMMON
  +--> ?PR?HAL_SPI_CMD_LEN_RX_NOT_RDY?HAL_SPI
  +--> ?PR?_HAL_SPI_SET_DMA_MODE?HAL_SPI
  +--> ?PR?_HAL_COMMON_BIT_FIELD_SET?HAL_COMMON
  +--> ?PR?_HAL_COMMON_REG_32_WRITE?HAL_COMMON
  +--> ?PR?_CHAL_REQUESTCP?HAL_COMMON
  +--> ?PR?_CHAL_GETACCESSTOCP?HAL_COMMON
  +--> ?PR?_MAC_UTILS_16_BIT_TO_BYTE_ARRAY?U...
  +--> ?PR?HAL_SPI_PAYLOAD_RX_RDY?HAL_SPI

?PR?_HAL_SPI_SET_DMA_MODE?HAL_SPI                -----    -----      -----    -----      3A22H    0006H
  +--> ?PR?HAL_SPI
  +--> ?PR?_HAL_COMMON_REG_32_WRITE?HAL_COMMON
  +--> ?PR?_HAL_COMMON_REG_32_READ?HAL_COMMON
  +--> ?PR?_HAL_COMMON_BIT_FIELD_SET?HAL_COMMON
  +--> ?PR?_HAL_COMMON_REG_BIT_CLEAR?HAL_COMMON
  +--> ?PR?_HAL_COMMON_REG_BIT_SET?HAL_COMMON

?PR?CHECKSPITXDONE?ISM                           -----    -----      -----    -----      39E7H    0004H
  +--> ?PR?ISM
  +--> ?PR?HAL_SPI_TX_DONE_HANDLER?HAL_SPI

?PR?_COPY_PLCTXTESTSTATS?HAL_PROD_TST            -----    -----      -----    -----      39E7H    000FH
  +--> ?PR?HAL_PROD_TST
  +--> ?PR?_HAL_COMMON_REG_32_READ?HAL_COMMON

?PR?PRODTEST_INIT?HAL_PROD_TST                   -----    -----      -----    -----      39E7H    001EH
  +--> ?PR?HAL_PROD_TST
  +--> ?PR?_HHAL_ADDNEK?HAL_HPGP
  +--> ?PR?_FILL_TOOL_HEADER?HAL_PROD_TST
BL51 BANKED LINKER/LOCATER V6.22                                                      01/10/2015  21:25:33  PAGE 25


  +--> ?PR?_GVSPI_SEND?HAL_PROD_TST

?PR?_CORRECTENDIENESS_SPLCSIMTXTESTPA...         -----    -----      -----    -----      39E7H    000DH
  +--> ?PR?PROD_TEST_CORRECT_ENDIENESS

?PR?_HOST_RXHANDLER?DATAPATH                     -----    -----      -----    -----      39B6H    00A7H
  +--> ?PR?DATAPATH
  +--> ?CO?DATAPATH
  +--> ?PR?_CHAL_GETACCESSTOCP?HAL_COMMON
  +--> ?PR?_DATAPATH_ISQUEUEFULL?DATAPATH
  +--> ?PR?_FWDAGENT_HANDLEDATA?FRAMETASK
  +--> ?PR?_HAL_COMMON_FREE_FRAME?HAL_COMMON

?PR?_DATAPATH_ISQUEUEFULL?DATAPATH               -----    -----      -----    -----      -----    -----
  +--> ?PR?DATAPATH

?PR?_FWDAGENT_HANDLEDATA?FRAMETASK               -----    -----      -----    -----      3A5DH    0003H
  +--> ?PR?FRAMETASK
  +--> ?PR?_FWDAGENT_QUEUETOHOST?FRAMETASK
  +--> ?PR?_FWDAGENT_QUEUETOPLC?FRAMETASK
  +--> ?PR?_CHAL_FREEFRAMECP?HAL_COMMON

?PR?_FWDAGENT_QUEUETOHOST?FRAMETASK              -----    -----      -----    -----      3A60H    0003H
  +--> ?PR?FRAMETASK
  +--> ?PR?_DATAPATH_QUEUETOHOST?DATAPATH
  +--> ?PR?_CHAL_FREEFRAMECP?HAL_COMMON

?PR?_DATAPATH_QUEUETOHOST?DATAPATH               -----    -----      -----    -----      3A63H    0054H
  +--> ?PR?DATAPATH
  +--> ?PR?_EHT_GETSNIFFHDRSIZE?DATAPATH
  +--> ?PR?_EHT_FILLETHERHEADER?DATAPATH
  +--> ?PR?_ETH_FILLHYBRIIHEADER?DATAPATH
  +--> ?PR?_EHT_SETFRAMETYPELEN?DATAPATH
  +--> ?CO?DATAPATH
  +--> ?PR?_FM_PRINTF?FM
  +--> ?PR?_CHAL_GETACCESSTOCP?HAL_COMMON
  +--> ?PR?_DATAPATH_ISQUEUEFULL?DATAPATH
  +--> ?PR?_CHAL_DECREMENTRELEASECPCNT?HAL_C...
  +--> ?PR?_DATAPATH_QUEUE?DATAPATH
  +--> ?PR?_CHAL_REQUESTCP?HAL_COMMON

?PR?_EHT_FILLETHERHEADER?DATAPATH                -----    -----      -----    -----      3AB7H    0003H
  +--> ?PR?DATAPATH

?PR?_ETH_FILLHYBRIIHEADER?DATAPATH               -----    -----      -----    -----      3AB7H    000CH
  +--> ?PR?DATAPATH

?PR?_EHT_SETFRAMETYPELEN?DATAPATH                -----    -----      -----    -----      3AB7H    0009H
  +--> ?PR?DATAPATH

?PR?_DATAPATH_QUEUE?DATAPATH                     -----    -----      -----    -----      3AB7H    0008H
  +--> ?PR?DATAPATH

?PR?_CHAL_FREEFRAMECP?HAL_COMMON                 -----    -----      -----    -----      3B91H    0006H
  +--> ?PR?HAL_COMMON
  +--> ?PR?_CHAL_DECREMENTRELEASECPCNT?HAL_C...

BL51 BANKED LINKER/LOCATER V6.22                                                      01/10/2015  21:25:33  PAGE 26


?PR?_FWDAGENT_QUEUETOPLC?FRAMETASK               -----    -----      -----    -----      -----    -----
  +--> ?PR?_DATAPATH_QUEUE?DATAPATH

?PR?_HHAL_RXINTHANDLER?HAL_HPGPRX                -----    -----      -----    -----      39ABH    0056H
  +--> ?PR?HAL_HPGPRX
  +--> ?CO?HAL_HPGPRX
  +--> ?PR?PRINTF?PRINTF
  +--> ?PR?_FWDAGENT_HANDLEDATA?FRAMETASK
  +--> ?PR?_HHT_PROCESSPLCMACFRAME?HHAL_TST
  +--> ?PR?_CHAL_FREEFRAMECP?HAL_COMMON

?PR?_HHT_PROCESSPLCMACFRAME?HHAL_TST             -----    -----      -----    -----      3A01H    000CH
  +--> ?PR?HHAL_TST
  +--> ?PR?_UPDATESTATISTICDATA?HHAL_TST
  +--> ?PR?_CHAL_DECREMENTRELEASECPCNT?HAL_C...
  +--> ?CO?HHAL_TST
  +--> ?PR?PRINTF?PRINTF

?PR?_UPDATESTATISTICDATA?HHAL_TST                -----    -----      -----    -----      3A0DH    0017H
  +--> ?PR?HHAL_TST
  +--> ?PR?_CHAL_GETACCESSTOCP?HAL_COMMON
  +--> ?CO?HHAL_TST
  +--> ?PR?_FM_PRINTF?FM
  +--> ?PR?_HAL_COMMON_REG_32_READ?HAL_COMMON

?PR?CHAL_GETCPUTXQDESCCOUNT?HAL_COMMON           -----    -----      -----    -----      39ABH    0004H
  +--> ?PR?HAL_COMMON

?PR?HAL_SPI_RX_CLEANUP?HAL_SPI                   -----    -----      -----    -----      -----    -----
  +--> ?PR?HAL_SPI
  +--> ?PR?_HAL_COMMON_REG_BIT_SET?HAL_COMMON
  +--> ?PR?_HAL_COMMON_REG_BIT_CLEAR?HAL_COMMON

?PR?_HAL_SPI_GET_RX_ERRORS_STATS?HAL_SPI         -----    -----      -----    -----      36F6H    0009H
  +--> ?PR?HAL_SPI

?PR?_HAL_SPI_GET_RX_STATS?HAL_SPI                -----    -----      -----    -----      36F6H    0006H

?PR?_CMDREAD?HAL_MAIN                            -----    -----      -----    -----      36CEH    000CH
  +--> ?PR?HAL_MAIN
  +--> ?PR?SCANF?SCANF
  +--> ?CO?HAL_MAIN
  +--> ?PR?_HAL_COMMON_REG_32_READ?HAL_COMMON
  +--> ?PR?_EHAL_ETHPHYREGOP?HAL_ETH
  +--> ?PR?PRINTF?PRINTF
  +--> ?PR?_EHAL_READETHSTATREG?HAL_ETH

?PR?CMDHELP?HAL_MAIN                             -----    -----      -----    -----      -----    -----
  +--> ?PR?_HAL_COMMON_REG_32_READ?HAL_COMMON
  +--> ?CO?HAL_MAIN
  +--> ?PR?HAL_MAIN
  +--> ?PR?PRINTF?PRINTF

*** NEW ROOT ***************************************************

?PR?GREEN_MAIN?HAL_MAIN                          -----    -----      -----    -----      -----    -----
  +--> ?PR?CMDHELP?HAL_MAIN
BL51 BANKED LINKER/LOCATER V6.22                                                      01/10/2015  21:25:33  PAGE 27


  +--> ?PR?LHTM_INIT?HAL_MAIN
  +--> ?PR?FRAME_TASK_INIT?FRAMETASK
  +--> ?PR?CHAL_INITHW?HAL_COMMON
  +--> ?PR?HHAL_INIT?HAL_HPGP
  +--> ?PR?EHAL_INIT?HAL_ETH
  +--> ?PR?HAL_SPI_INIT?HAL_SPI
  +--> ?PR?FREQDET_FREQDETECTINIT?HAL_HPGP
  +--> ?PR?READ_FLASHPROFILE?HAL_MAIN
  +--> ?PR?PRODTEST_INIT?HAL_PROD_TST
  +--> ?PR?ISM_POLLINT?ISM

?PR?FRAME_TASK_INIT?FRAMETASK                    -----    -----      -----    -----      -----    -----
  +--> ?PR?_SLIST_INIT?LIST
  +--> ?PR?DATAPATH_INIT?DATAPATH

?PR?_SLIST_INIT?LIST                             -----    -----      -----    -----      390FH    0003H
  +--> ?PR?LIST

?PR?CHAL_INITHW?HAL_COMMON                       -----    -----      -----    -----      390FH    0001H
  +--> ?PR?_CHAL_DECREMENTRELEASECPCNT?HAL_C...
  +--> ?PR?HAL_COMMON

?PR?HHAL_INIT?HAL_HPGP                           -----    -----      -----    -----      390FH    001AH
  +--> ?PR?HAL_HPGP
  +--> ?PR?PLC_INIT_PARAMETERS?HAL_HPGP
  +--> ?PR?_CHAL_DELAYTICKS?HAL_COMMON
  +--> ?PR?_HHAL_SETDEVMODE?HAL_HPGP
  +--> ?PR?HHAL_SETDEFADDRCONFIG?HAL_HPGP
  +--> ?PR?_MAC_UTILS_SPI_WRITE?UTILS
  +--> ?PR?HHAL_RESETPLCSTAT?HAL_HPGP
  +--> ?PR?HHAL_AFEINIT?HAL_HPGP

?PR?PLC_INIT_PARAMETERS?HAL_HPGP                 -----    -----      -----    -----      3929H    0008H
  +--> ?PR?_SET_PLC_PARAMTER?HAL_HPGP
  +--> ?PR?HAL_HPGP

?PR?HHAL_AFEINIT?HAL_HPGP                        -----    -----      -----    -----      -----    -----
  +--> ?PR?_MAC_UTILS_SPI_WRITE?UTILS

?PR?EHAL_INIT?HAL_ETH                            -----    -----      -----    -----      390FH    0013H
  +--> ?CO?HAL_ETH
  +--> ?PR?_EHAL_ETHPHYREGOP?HAL_ETH
  +--> ?PR?_FM_PRINTF?FM
  +--> ?PR?EHAL_RESETSTAT?HAL_ETH

?PR?HAL_SPI_INIT?HAL_SPI                         -----    -----      -----    -----      390FH    0004H
  +--> ?PR?HAL_SPI
  +--> ?PR?_HAL_COMMON_REG_BIT_SET?HAL_COMMON
  +--> ?PR?_HAL_COMMON_BIT_FIELD_REG_WRITE?H...
  +--> ?PR?_HAL_COMMON_REG_32_WRITE?HAL_COMMON
  +--> ?PR?_HAL_COMMON_REG_BIT_CLEAR?HAL_COMMON
  +--> ?PR?HAL_SPI_CLEAR_STATS?HAL_SPI
  +--> ?PR?HAL_SPI_PREPARE_RX_CMD_ENGINE?HAL...
  +--> ?PR?HAL_SPI_SET_RX_CMD_LEN_RDY?HAL_SPI

?PR?_HAL_COMMON_BIT_FIELD_REG_WRITE?H...         -----    -----      -----    -----      3913H    0012H
  +--> ?PR?HAL_COMMON
BL51 BANKED LINKER/LOCATER V6.22                                                      01/10/2015  21:25:33  PAGE 28


  +--> ?PR?_HAL_COMMON_REG_32_READ?HAL_COMMON
  +--> ?PR?_HAL_COMMON_REG_32_WRITE?HAL_COMMON

?PR?ISM_POLLINT?ISM                              -----    -----      -----    -----      390FH    001DH
  +--> ?PR?ISM
  +--> ?PR?DOSYNCHRONIZATION?HAL_HPGP
  +--> ?PR?FREQDET_DETECTFREQUENCYUSINGZC?HA...
  +--> ?PR?DATAPATH_HANDLEPLCTXDONE?DATAPATH
  +--> ?PR?_HAL_BEACONRXHANDLER?HAL_HPGPRX
  +--> ?PR?HHAL_BPINTHANDLER?HAL_HPGPTX
  +--> ?PR?EHAL_RELEASEETHTXCPINTHANDLER?HAL...
  +--> ?PR?HAL_SPI_RX_DONE_HANDLER?HAL_SPI
  +--> ?PR?HAL_SPI_TX_DONE_HANDLER?HAL_SPI
  +--> ?PR?CHAL_CPUTXQNEMPTYINTHANDLER?HAL_C...
  +--> ?PR?HHAL_BCN3SENTINTHANDLER?HAL_HPGPTX
  +--> ?PR?HAL_HPGP_MAC_MONITORING?HAL_HPGP

?PR?DOSYNCHRONIZATION?HAL_HPGP                   -----    -----      -----    -----      392CH    0004H
  +--> ?PR?HAL_HPGP

?PR?FREQDET_DETECTFREQUENCYUSINGZC?HA...         -----    -----      -----    -----      392CH    0005H
  +--> ?PR?HAL_HPGP
  +--> ?PR?PRINTF?PRINTF
  +--> ?CO?HAL_HPGP
  +--> ?PR?_FM_PRINTF?FM
  +--> ?PR?_HHAL_SETDEVMODE?HAL_HPGP
  +--> ?PR?_FREQDET_FREQSETTING?HAL_HPGP
  +--> ?PR?SETCSMA_ONCCO?HAL_HPGPTX
  +--> ?PR?SETCSMA_ONSTA?HAL_HPGPTX

?PR?DATAPATH_HANDLEPLCTXDONE?DATAPATH            -----    -----      -----    -----      -----    -----
  +--> ?PR?DATAPATH

?PR?_HAL_BEACONRXHANDLER?HAL_HPGPRX              -----    -----      -----    -----      392CH    00CFH
  +--> ?PR?HAL_HPGPRX
  +--> ?PR?_EHT_FROMPLCBCNTX?DATAPATH
  +--> ?PR?FREQDET_DETECTFREQUENCYUSINGBCN?H...
  +--> ?PR?_HHAL_PROCBCNLOW?HAL_HPGPRX

?PR?_EHT_FROMPLCBCNTX?DATAPATH                   -----    -----      -----    -----      39FBH    004CH
  +--> ?PR?DATAPATH
  +--> ?PR?_EHT_FILLETHERHEADER?DATAPATH
  +--> ?PR?_ETH_FILLHYBRIIHEADER?DATAPATH
  +--> ?PR?_CHAL_REQUESTCP?HAL_COMMON
  +--> ?PR?_CHAL_GETACCESSTOCP?HAL_COMMON
  +--> ?PR?_EHAL_ETHTXQWRITE?HAL_ETH
  +--> ?PR?_CHAL_DECREMENTRELEASECPCNT?HAL_C...

?PR?FREQDET_DETECTFREQUENCYUSINGBCN?H...         -----    -----      -----    -----      39FBH    0004H
  +--> ?PR?HAL_HPGP
  +--> ?CO?HAL_HPGP
  +--> ?PR?PRINTF?PRINTF

?PR?_HHAL_PROCBCNLOW?HAL_HPGPRX                  -----    -----      -----    -----      39FBH    001FH
  +--> ?PR?HAL_HPGPRX
  +--> ?PR?_HHAL_SYNCNET?HAL_HPGP
  +--> ?PR?_PROCESS_REGION?HAL_HPGPRX
BL51 BANKED LINKER/LOCATER V6.22                                                      01/10/2015  21:25:33  PAGE 29


  +--> ?PR?_HHT_PROCESSBCNHLE?HHAL_TST

?PR?_HHAL_SYNCNET?HAL_HPGP                       -----    -----      -----    -----      3A1AH    002AH
  +--> ?PR?HAL_HPGP
  +--> ?PR?_CHAL_DELAYTICKS?HAL_COMMON
  +--> ?PR?_HHAL_SETSWSTATREQSCANFLAG?HAL_HPGP

?PR?_PROCESS_REGION?HAL_HPGPRX                   -----    -----      -----    -----      3A1AH    000BH
  +--> ?PR?HAL_HPGPRX
  +--> ?PR?_HAL_SETCSMAREGIONS?HAL_HPGPRX

?PR?_HAL_SETCSMAREGIONS?HAL_HPGPRX               -----    -----      -----    -----      3A25H    0001H

?PR?_HHT_PROCESSBCNHLE?HHAL_TST                  -----    -----      -----    -----      3A1AH    0012H
  +--> ?PR?HHAL_TST
  +--> ?PR?_HHAL_SETSNID?HAL_HPGP

?PR?HHAL_BPINTHANDLER?HAL_HPGPTX                 -----    -----      -----    -----      392CH    0008H
  +--> ?PR?HAL_HPGPTX
  +--> ?PR?_HHT_SENDBCN?HHAL_TST
  +--> ?PR?_HHAL_PLCBCNWRITE?HAL_HPGPTX

?PR?_HHAL_PLCBCNWRITE?HAL_HPGPTX                 -----    -----      -----    -----      3934H    0021H
  +--> ?PR?HAL_HPGPTX

?PR?EHAL_RELEASEETHTXCPINTHANDLER?HAL...         -----    -----      -----    -----      -----    -----
  +--> ?PR?EHAL_DORELETHTXCP?HAL_ETH

?PR?EHAL_DORELETHTXCP?HAL_ETH                    -----    -----      -----    -----      392CH    0009H
  +--> ?PR?_CHAL_DECREMENTRELEASECPCNT?HAL_C...

?PR?HHAL_BCN3SENTINTHANDLER?HAL_HPGPTX           -----    -----      -----    -----      -----    -----
  +--> ?PR?HAL_HPGPTX

?PR?HAL_HPGP_MAC_MONITORING?HAL_HPGP             -----    -----      -----    -----      392CH    000CH
  +--> ?PR?_HAL_COMMON_REG_32_READ?HAL_COMMON
  +--> ?PR?HAL_HPGP

*** NEW ROOT ***************************************************

?PR?FRAME_TASK?FRAMETASK                         -----    -----      -----    -----      -----    -----
  +--> ?PR?FRAME_PROC?FRAMETASK

?PR?FRAME_PROC?FRAMETASK                         -----    -----      -----    -----      3B45H    0001H
  +--> ?PR?DATAPATH_TRANSMITDATAPLC?DATAPATH
  +--> ?PR?_DATAPATH_ISQUEUEEMPTY?DATAPATH
  +--> ?PR?FWDAGENT_ISHOSTIDLE?FRAMETASK
  +--> ?PR?DATAPATH_TRANSMITDATAHOST?DATAPATH

?PR?DATAPATH_TRANSMITDATAPLC?DATAPATH            -----    -----      -----    -----      3B46H    000FH
  +--> ?PR?DATAPATH
  +--> ?PR?_DATAPATH_ISQUEUEEMPTY?DATAPATH
  +--> ?PR?_DATAPATH_GETHEADDESC?DATAPATH
  +--> ?PR?HHAL_ISPLCIDLE?HAL_HPGPTX
  +--> ?PR?_HOSTRXPOSTPROCESS?DATAPATH
  +--> ?PR?_HHAL_PLCTXQWRITE?HAL_HPGPTX
  +--> ?PR?_CHAL_DECREMENTRELEASECPCNT?HAL_C...
BL51 BANKED LINKER/LOCATER V6.22                                                      01/10/2015  21:25:33  PAGE 30



?PR?_DATAPATH_GETHEADDESC?DATAPATH               -----    -----      -----    -----      3B8AH    0003H
  +--> ?PR?DATAPATH

?PR?HHAL_ISPLCIDLE?HAL_HPGPTX                    -----    -----      -----    -----      3B55H    0010H
  +--> ?PR?HAL_HPGPTX

?PR?_HOSTRXPOSTPROCESS?DATAPATH                  -----    -----      -----    -----      3B55H    000AH
  +--> ?PR?_DATAPATH_GETHEADDESC?DATAPATH
  +--> ?PR?DATAPATH
  +--> ?PR?_CHAL_FREEFRAMECP?HAL_COMMON

?PR?FWDAGENT_ISHOSTIDLE?FRAMETASK                -----    -----      -----    -----      -----    -----
  +--> ?PR?EHAL_ISTXREADY?HAL_ETH
  +--> ?PR?HAL_SPI_ISTXREADY?HAL_SPI

?PR?HAL_SPI_ISTXREADY?HAL_SPI                    -----    -----      -----    -----      -----    -----
  +--> ?PR?HAL_SPI
  +--> ?PR?_HAL_COMMON_REG_BIT_TEST?HAL_COMMON
  +--> ?PR?HAL_SPI_CMD_LEN_RX_NOT_RDY?HAL_SPI
  +--> ?PR?_HAL_COMMON_REG_BIT_SET?HAL_COMMON
  +--> ?CO?HAL_SPI
  +--> ?PR?_FM_PRINTF?FM

?PR?DATAPATH_TRANSMITDATAHOST?DATAPATH           -----    -----      -----    -----      3B46H    0044H
  +--> ?PR?DATAPATH
  +--> ?PR?_DATAPATH_GETHEADDESC?DATAPATH
  +--> ?PR?_DATAPATH_WRITEHOSTINTF?DATAPATH

?PR?_DATAPATH_WRITEHOSTINTF?DATAPATH             -----    -----      -----    -----      3B8AH    0007H
  +--> ?PR?_EHAL_ETHTXQWRITE?HAL_ETH
  +--> ?CO?DATAPATH
  +--> ?PR?_FM_PRINTF?FM
  +--> ?PR?DATAPATH
  +--> ?PR?_CHAL_FREEFRAMECP?HAL_COMMON



INTERBANK CALL TABLE OF MODULE:  .\obj\gc_hpgp (?C_STARTUP)

ADDRESS    FUNCTION NAME
------------------------
 6E73H     _HAL_SPI_FRAME_RX
 6E78H     _HOST_RXHANDLER
 6E7DH     _HHAL_RXINTHANDLER
 6E82H     HHAL_DISPLAYPLCSTAT
 6E87H     EHAL_DISPLAYETHSTAT
 6E8CH     _EHAL_ETHPHYREGOP
 6E91H     _EHAL_READETHSTATREG
 6E96H     _CHAL_CMDHALPROCESS
 6E9BH     _HHAL_CMDHALPROCESS
 6EA0H     _EHAL_CMDHALPROCESS
 6EA5H     _IHAL_UI_CMD_PROCESS
 6EAAH     _HHT_SENDBCN
 6EAFH     FRAME_TASK_INIT
 6EB4H     HHAL_INIT
 6EB9H     EHAL_INIT
BL51 BANKED LINKER/LOCATER V6.22                                                      01/10/2015  21:25:33  PAGE 31


 6EBEH     HAL_SPI_INIT
 6EC3H     FREQDET_FREQDETECTINIT
 6EC8H     PRODTEST_INIT
 6ECDH     HAL_SPI_TX_DONE_HANDLER
 6ED2H     DOSYNCHRONIZATION
 6ED7H     FREQDET_DETECTFREQUENCYUSINGZC
 6EDCH     DATAPATH_HANDLEPLCTXDONE
 6EE1H     _HAL_BEACONRXHANDLER
 6EE6H     HHAL_BPINTHANDLER
 6EEBH     EHAL_RELEASEETHTXCPINTHANDLER
 6EF0H     HAL_SPI_RX_DONE_HANDLER
 6EF5H     HHAL_BCN3SENTINTHANDLER
 6EFAH     HAL_HPGP_MAC_MONITORING
 6EFFH     _FWDAGENT_HANDLEDATA
 6F04H     _HHT_PROCESSPLCMACFRAME
 6F09H     FREQDET_DETECTFREQUENCYUSINGBCN
 6F0EH     _EHT_FROMPLCBCNTX
 6F13H     _HHAL_SYNCNET
 6F18H     _HHT_PROCESSBCNHLE
 6F1DH     _EHAL_ETHTXQWRITE
 6F22H     EHAL_RESETSTAT
 6F27H     EHAL_PRINT_ETHHWSTAT
 6F2CH     EHAL_CLEAR_ETHHWSTAT
 6F31H     HAL_SPI_CLEAR_STATS
 6F36H     _HAL_SPI_GET_TX_STATS
 6F3BH     HAL_SPI_TX_CLEANUP
 6F40H     _HAL_SPI_GET_TX_ERRORS_STATS
 6F45H     HAL_SPI_SET_RX_CMD_LEN_RDY
 6F4AH     HAL_SPI_RX_CLEANUP
 6F4FH     _HAL_SPI_GET_RX_ERRORS_STATS
 6F54H     _HAL_SPI_GET_RX_STATS
 6F59H     _FM_HEXDUMP
 6F5EH     _FM_PRINTF
 6F63H     _HHAL_PLCTXQWRITE
 6F68H     SETCSMA_ONCCO
 6F6DH     SETCSMA_ONSTA
 6F72H     EHAL_ISTXREADY
 6F77H     HAL_SPI_ISTXREADY
 6F7CH     _HHT_SIMULATETX
 6F81H     _HHAL_SETDIAGMODE
 6F86H     _HHAL_SETDIAGMODENOSACK
 6F8BH     _HHAL_ADDNEK
 6F90H     _HHAL_ADDPPEK
 6F95H     _HHAL_PHYPGMROBOMD
 6F9AH     HHAL_GETSNID
 6F9FH     HHAL_GETTEI
 6FA4H     _HHAL_SETTEI
 6FA9H     _HHAL_SETSNID
 6FAEH     HHAL_GETPLCDEVMODE
 6FB3H     _HHAL_SETDEVMODE
 6FB8H     HHAL_SETDEFADDRCONFIG
 6FBDH     _SET_PLC_PARAMTER
 6FC2H     _FREQDET_FREQSETTING
 6FC7H     HHAL_RESETPLCSTAT
 6FCCH     _DATAPATH_QUEUE_DEPTH
 6FD1H     _HHAL_SETSWSTATREQSCANFLAG
 6FD6H     GET_VERSION
BL51 BANKED LINKER/LOCATER V6.22                                                      01/10/2015  21:25:33  PAGE 32


 6FDBH     _FM_SETDEBUG
 6FE0H     _HHAL_GETPLCTXQFREEDESCCNT
 6FE5H     _DATAPATH_ISQUEUEEMPTY
 6FEAH     _CORRECTENDIENESS_SPLCSIMTXTESTPARAMS
 6FEFH     FRAME_TASK



SYMBOL TABLE OF MODULE:  .\obj\gc_hpgp (?C_STARTUP)

  VALUE           TYPE          NAME
  ----------------------------------

  -------         MODULE        ?C_STARTUP
  C:8613H         SEGMENT       ?C_C51STARTUP
  I:0037H         SEGMENT       ?STACK
  C:2100H         PUBLIC        ?C_STARTUP
  D:00E0H         SYMBOL        ACC
  D:00F0H         SYMBOL        B
  D:0083H         SYMBOL        DPH
  D:0082H         SYMBOL        DPL
  N:0000H         SYMBOL        IBPSTACK
  N:0100H         SYMBOL        IBPSTACKTOP
  N:0080H         SYMBOL        IDATALEN
  C:8616H         SYMBOL        IDATALOOP
  N:0000H         SYMBOL        PBPSTACK
  N:0100H         SYMBOL        PBPSTACKTOP
  N:0000H         SYMBOL        PDATALEN
  N:0000H         SYMBOL        PDATASTART
  N:0000H         SYMBOL        PPAGE
  N:0000H         SYMBOL        PPAGEENABLE
  D:00A0H         SYMBOL        PPAGE_SFR
  D:0081H         SYMBOL        SP
  C:8613H         SYMBOL        STARTUP1
  N:0001H         SYMBOL        XBPSTACK
  N:E000H         SYMBOL        XBPSTACKTOP
  N:0000H         SYMBOL        XDATALEN
  N:0000H         SYMBOL        XDATASTART
  C:2100H         LINE#         128
  C:8613H         LINE#         135
  C:8615H         LINE#         136
  C:8616H         LINE#         137
  C:8617H         LINE#         138
  C:8619H         LINE#         178
  C:861CH         LINE#         179
  C:861FH         LINE#         187
  C:8622H         LINE#         198
  -------         ENDMOD        ?C_STARTUP

  -------         MODULE        ?BANK?SWITCHING
  C:6DD4H         SEGMENT       ?BANK?SELECT
  C:9200H         SEGMENT       ?BANK?SWITCH
  C:6DD4H         PUBLIC        ?B_BANK0
  C:6DE7H         PUBLIC        ?B_BANK1
  C:6DFAH         PUBLIC        ?B_BANK2
  C:6E0DH         PUBLIC        ?B_BANK3
  C:6E20H         PUBLIC        ?B_BANK4
BL51 BANKED LINKER/LOCATER V6.22                                                      01/10/2015  21:25:33  PAGE 33


  C:6E33H         PUBLIC        ?B_BANK5
  C:6E46H         PUBLIC        ?B_BANK6
  C:6E59H         PUBLIC        ?B_BANK7
  D:009FH         PUBLIC        ?B_CURRENTBANK
  N:0001H         PUBLIC        ?B_FACTOR
  N:0007H         PUBLIC        ?B_MASK
  N:0000H         PUBLIC        ?B_MODE
  N:0008H         PUBLIC        ?B_NBANKS
  C:9232H         PUBLIC        ?B_RESTORE_BANK
  N:0000H         PUBLIC        ?B_RST_BANK
  C:9200H         PUBLIC        ?B_SWITCH0
  C:9204H         PUBLIC        ?B_SWITCH1
  C:9208H         PUBLIC        ?B_SWITCH2
  C:920CH         PUBLIC        ?B_SWITCH3
  C:9210H         PUBLIC        ?B_SWITCH4
  C:9214H         PUBLIC        ?B_SWITCH5
  C:9218H         PUBLIC        ?B_SWITCH6
  C:921CH         PUBLIC        ?B_SWITCH7
  C:6E6DH         PUBLIC        ?B_SWITCHBANK_A
  C:6E6CH         PUBLIC        _SWITCHBANK
  N:0000H         SYMBOL        ?BANK?SWITCHING
  N:0000H         SYMBOL        ?B_FIRSTBIT
  D:009FH         SYMBOL        ?B_PORT
  N:0001H         SYMBOL        ?B_RTX
  N:0000H         SYMBOL        ?B_VAR_BANKING
  D:00E0H         SYMBOL        ACC
  D:00F0H         SYMBOL        B
  N:0000H         SYMBOL        BANK0
  N:0001H         SYMBOL        BANK1
  N:0002H         SYMBOL        BANK2
  N:0003H         SYMBOL        BANK3
  N:0004H         SYMBOL        BANK4
  N:0005H         SYMBOL        BANK5
  N:0006H         SYMBOL        BANK6
  N:0007H         SYMBOL        BANK7
  N:0008H         SYMBOL        CNT
  D:0083H         SYMBOL        DPH
  D:0082H         SYMBOL        DPL
  B:00A8H.7       SYMBOL        EA
  D:00A8H         SYMBOL        IE
  N:0007H         SYMBOL        MASK
  D:009FH         SYMBOL        RMAP
  C:921EH         SYMBOL        SWITCHBNK
  C:921FH         SYMBOL        SWITCHBNK2
  C:9229H         SYMBOL        SWITCHBNK_EA1
  -------         ENDMOD        ?BANK?SWITCHING

  -------         MODULE        ?RTX51_TINY_KERNAL
  C:2103H         SEGMENT       ?RTX?TASKENT?S
  I:0033H         SEGMENT       ?RTX?TASKSP?S
  I:0018H         SEGMENT       ?RTX?TASKSTATE?S
  B:0023H.5       SEGMENT       ?RTX?BITS
  C:7620H         SEGMENT       ?RTX?CODE
  C:7699H         PUBLIC        ?RTX?SET_ISR
  D:000CH         PUBLIC        ?RTX_CURRENTTASK
  D:0007H         PUBLIC        ?RTX_NEXTID
  C:76BDH         PUBLIC        ?RTX_NEXTTASK
BL51 BANKED LINKER/LOCATER V6.22                                                      01/10/2015  21:25:33  PAGE 34


  N:00FFH         PUBLIC        ?RTX_RAMTOP
  C:2103H         PUBLIC        ?RTX_TASKENTRY
  C:7776H         PUBLIC        ?RTX_TASKIDX
  I:0033H         PUBLIC        ?RTX_TASKSP
  I:0018H         PUBLIC        ?RTX_TASKSTATUS
  C:773DH         PUBLIC        MAIN
  C:769CH         PUBLIC        OS_SWITCH_TASK
  C:76A5H         SYMBOL        ?C0001
  C:76B9H         SYMBOL        ?C0003
  C:76BEH         SYMBOL        ?C0005
  C:76D8H         SYMBOL        ?C0007
  C:76DAH         SYMBOL        ?C0009
  C:76E4H         SYMBOL        ?C0011
  C:7711H         SYMBOL        ?C0012
  C:76F7H         SYMBOL        ?C0013
  C:76FCH         SYMBOL        ?C0015
  C:7707H         SYMBOL        ?C0016
  N:0000H         SYMBOL        ?RTX51_TINY_KERNAL
  N:5162H         SYMBOL        ?RTX_CLOCK
  B:0023H.5       SYMBOL        ?RTX_ISR_SIG
  N:0008H         SYMBOL        ?RTX_REGISTERBANK
  D:000AH         SYMBOL        ?RTX_SAVEACC
  D:000BH         SYMBOL        ?RTX_SAVEPSW
  C:7620H         SYMBOL        ?RTX_STACKERROR
  D:00E0H         SYMBOL        ACC
  D:00F0H         SYMBOL        B
  N:0005H         SYMBOL        B_ACTIVE
  N:0007H         SYMBOL        B_IVL
  N:0007H         SYMBOL        B_RDY
  N:0004H         SYMBOL        B_READY
  N:0006H         SYMBOL        B_ROBIN
  N:0002H         SYMBOL        B_SIGNAL
  N:0003H         SYMBOL        B_TIMEOUT
  N:0000H         SYMBOL        B_WAITSIG
  N:0001H         SYMBOL        B_WAITTIM
  C:7677H         SYMBOL        CHECKSTACK
  N:0001H         SYMBOL        CODE_BANKING
  C:7651H         SYMBOL        CONT_TIMINT
  N:0001H         SYMBOL        CPU_IDLE_CODE
  D:0083H         SYMBOL        DPH
  D:0082H         SYMBOL        DPL
  B:00A8H.7       SYMBOL        EA
  B:00A8H.4       SYMBOL        ES
  B:00A8H.1       SYMBOL        ET0
  B:00A8H.3       SYMBOL        ET1
  B:00A8H.0       SYMBOL        EX0
  B:00A8H.2       SYMBOL        EX1
  N:0014H         SYMBOL        FREE_STACK
  C:7624H         SYMBOL        HW_TIMER
  D:00A8H         SYMBOL        IE
  B:0088H.1       SYMBOL        IE0
  B:0088H.3       SYMBOL        IE1
  N:AE9EH         SYMBOL        INT_CLOCK
  N:0001H         SYMBOL        INT_REGBANK
  B:0088H.0       SYMBOL        IT0
  B:0088H.2       SYMBOL        IT1
  N:0020H         SYMBOL        K_ACTIVE
BL51 BANKED LINKER/LOCATER V6.22                                                      01/10/2015  21:25:33  PAGE 35


  N:0080H         SYMBOL        K_IVL
  N:0080H         SYMBOL        K_RDY
  N:0010H         SYMBOL        K_READY
  N:0040H         SYMBOL        K_ROBIN
  N:0001H         SYMBOL        K_SIG
  N:0002H         SYMBOL        K_TMO
  N:0001H         SYMBOL        LONG_USR_INTR
  C:7746H         SYMBOL        MAIN1
  C:7750H         SYMBOL        MAIN1X
  C:774BH         SYMBOL        MAIN2
  C:772EH         SYMBOL        NOEVENT
  C:76B2H         SYMBOL        NOIDLE
  C:7693H         SYMBOL        NOTIMEOUT
  C:7691H         SYMBOL        NOWAITTIMEOUT
  C:769EH         SYMBOL        OS_SWITCH_TASK1
  D:0087H         SYMBOL        PCON
  D:00D0H         SYMBOL        PSW
  N:00FFH         SYMBOL        RAMTOP
  N:0080H         SYMBOL        RDY_EVENT
  C:7722H         SYMBOL        SIGNALOFF
  C:772EH         SYMBOL        SIGNALON
  N:0004H         SYMBOL        SIG_EVENT
  D:0081H         SYMBOL        SP
  I:0019H         SYMBOL        TASKSTATE
  D:0088H         SYMBOL        TCON
  B:0088H.5       SYMBOL        TF0
  B:0088H.7       SYMBOL        TF1
  D:008CH         SYMBOL        TH0
  D:008DH         SYMBOL        TH1
  C:772AH         SYMBOL        TIMEOUTON
  C:7644H         SYMBOL        TIMERINT
  C:7683H         SYMBOL        TIMERLOOP
  I:0018H         SYMBOL        TIMERVAL
  N:0000H         SYMBOL        TIMESHARING
  D:008AH         SYMBOL        TL0
  D:008BH         SYMBOL        TL1
  D:0089H         SYMBOL        TMOD
  N:0008H         SYMBOL        TMO_EVENT
  B:0088H.4       SYMBOL        TR0
  B:0088H.6       SYMBOL        TR1
  N:0000H         SYMBOL        UART_HOST_INTF
  C:210BH         LINE#         304
  C:7620H         LINE#         312
  C:7622H         LINE#         312
  C:7624H         LINE#         315
  C:7626H         LINE#         315
  C:7628H         LINE#         315
  C:762AH         LINE#         315
  C:762CH         LINE#         315
  C:762EH         LINE#         315
  C:7630H         LINE#         315
  C:7632H         LINE#         315
  C:7635H         LINE#         315
  C:7637H         LINE#         315
  C:7639H         LINE#         315
  C:763BH         LINE#         315
  C:763DH         LINE#         315
BL51 BANKED LINKER/LOCATER V6.22                                                      01/10/2015  21:25:33  PAGE 36


  C:763FH         LINE#         315
  C:7641H         LINE#         315
  C:7643H         LINE#         315
  C:7644H         LINE#         320
  C:7646H         LINE#         321
  C:7648H         LINE#         322
  C:764AH         LINE#         323
  C:764CH         LINE#         324
  C:764EH         LINE#         326
  C:7650H         LINE#         327
  C:7651H         LINE#         328
  C:7653H         LINE#         332
  C:7656H         LINE#         334
  C:7659H         LINE#         335
  C:765CH         LINE#         336
  C:765DH         LINE#         338
  C:765FH         LINE#         339
  C:7661H         LINE#         340
  C:7663H         LINE#         341
  C:7665H         LINE#         342
  C:7667H         LINE#         343
  C:7669H         LINE#         344
  C:766BH         LINE#         345
  C:766DH         LINE#         349
  C:766EH         LINE#         350
  C:7670H         LINE#         351
  C:7671H         LINE#         352
  C:7672H         LINE#         353
  C:7675H         LINE#         354
  C:7677H         LINE#         355
  C:7678H         LINE#         356
  C:767AH         LINE#         357
  C:767DH         LINE#         358
  C:767FH         LINE#         362
  C:7681H         LINE#         363
  C:7683H         LINE#         364
  C:7684H         LINE#         365
  C:7685H         LINE#         366
  C:7686H         LINE#         367
  C:7688H         LINE#         368
  C:768AH         LINE#         369
  C:768BH         LINE#         370
  C:768EH         LINE#         371
  C:7690H         LINE#         372
  C:7691H         LINE#         373
  C:7693H         LINE#         374
  C:7694H         LINE#         375
  C:7696H         LINE#         377
  C:7697H         LINE#         378
  C:7699H         LINE#         385
  C:769BH         LINE#         387
  C:769CH         LINE#         450
  C:769EH         LINE#         459
  C:76A0H         LINE#         460
  C:76A1H         LINE#         462
  C:76A2H         LINE#         463
  C:76A4H         LINE#         464
BL51 BANKED LINKER/LOCATER V6.22                                                      01/10/2015  21:25:33  PAGE 37


  C:76A5H         LINE#         467
  C:76A6H         LINE#         468
  C:76A7H         LINE#         469
  C:76A8H         LINE#         471
  C:76A9H         LINE#         472
  C:76ACH         LINE#         473
  C:76AFH         LINE#         474
  C:76B2H         LINE#         477
  C:76B5H         LINE#         478
  C:76B7H         LINE#         479
  C:76B9H         LINE#         482
  C:76BAH         LINE#         483
  C:76BDH         LINE#         491
  C:76BEH         LINE#         495
  C:76C0H         LINE#         496
  C:76C1H         LINE#         497
  C:76C2H         LINE#         498
  C:76C4H         LINE#         501
  C:76C6H         LINE#         503
  C:76C8H         LINE#         504
  C:76CAH         LINE#         505
  C:76CBH         LINE#         506
  C:76CCH         LINE#         507
  C:76CDH         LINE#         509
  C:76CFH         LINE#         511
  C:76D0H         LINE#         512
  C:76D1H         LINE#         513
  C:76D3H         LINE#         514
  C:76D6H         LINE#         515
  C:76D8H         LINE#         517
  C:76D9H         LINE#         518
  C:76DAH         LINE#         523
  C:76DBH         LINE#         524
  C:76DCH         LINE#         525
  C:76DEH         LINE#         529
  C:76DFH         LINE#         530
  C:76E0H         LINE#         531
  C:76E2H         LINE#         532
  C:76E4H         LINE#         538
  C:76E6H         LINE#         539
  C:76E7H         LINE#         540
  C:76E8H         LINE#         541
  C:76EAH         LINE#         543
  C:76ECH         LINE#         544
  C:76EEH         LINE#         545
  C:76EFH         LINE#         546
  C:76F0H         LINE#         549
  C:76F2H         LINE#         550
  C:76F5H         LINE#         551
  C:76F7H         LINE#         553
  C:76F8H         LINE#         555
  C:76F9H         LINE#         556
  C:76FAH         LINE#         557
  C:76FBH         LINE#         558
  C:76FCH         LINE#         562
  C:76FEH         LINE#         563
  C:76FFH         LINE#         564
BL51 BANKED LINKER/LOCATER V6.22                                                      01/10/2015  21:25:33  PAGE 38


  C:7701H         LINE#         568
  C:7703H         LINE#         569
  C:7704H         LINE#         570
  C:7705H         LINE#         572
  C:7707H         LINE#         576
  C:7709H         LINE#         577
  C:770BH         LINE#         578
  C:770CH         LINE#         579
  C:770DH         LINE#         581
  C:770FH         LINE#         582
  C:7711H         LINE#         592
  C:7713H         LINE#         593
  C:7714H         LINE#         594
  C:7716H         LINE#         595
  C:7717H         LINE#         596
  C:7719H         LINE#         597
  C:771BH         LINE#         598
  C:771CH         LINE#         604
  C:771FH         LINE#         605
  C:7722H         LINE#         609
  C:7724H         LINE#         610
  C:7727H         LINE#         611
  C:772AH         LINE#         613
  C:772CH         LINE#         614
  C:772EH         LINE#         616
  C:7730H         LINE#         617
  C:7731H         LINE#         618
  C:7733H         LINE#         620
  C:7735H         LINE#         621
  C:7737H         LINE#         631
  C:7739H         LINE#         632
  C:773CH         LINE#         634
  C:773DH         LINE#         675
  C:773FH         LINE#         676
  C:7741H         LINE#         677
  C:7743H         LINE#         678
  C:7745H         LINE#         679
  C:7746H         LINE#         680
  C:7747H         LINE#         681
  C:7749H         LINE#         682
  C:774BH         LINE#         683
  C:774DH         LINE#         684
  C:774EH         LINE#         685
  C:7750H         LINE#         686
  C:7751H         LINE#         687
  C:7752H         LINE#         688
  C:7753H         LINE#         689
  C:7754H         LINE#         690
  C:7756H         LINE#         691
  C:7758H         LINE#         692
  C:775AH         LINE#         693
  C:775DH         LINE#         694
  C:775FH         LINE#         695
  C:7760H         LINE#         696
  C:7762H         LINE#         697
  C:7763H         LINE#         698
  C:7764H         LINE#         699
BL51 BANKED LINKER/LOCATER V6.22                                                      01/10/2015  21:25:33  PAGE 39


  C:7766H         LINE#         703
  C:7769H         LINE#         704
  C:776CH         LINE#         705
  C:776FH         LINE#         706
  C:7771H         LINE#         707
  C:7773H         LINE#         711
  C:7775H         LINE#         713
  -------         ENDMOD        ?RTX51_TINY_KERNAL

  -------         MODULE        CLEAR_CHAR
  C:9787H         SEGMENT       ?PR?CLEAR_GETCHAR
  C:9787H         PUBLIC        CLEAR_GETCHAR
  C:9787H         LINE#         8
  C:9789H         LINE#         9
  -------         ENDMOD        CLEAR_CHAR

  -------         MODULE        HAL_COMMON
  C:0000H         SYMBOL        _ICE_DUMMY_
  X:3ED2H         PUBLIC        gCCO_NTB
  X:3ED6H         PUBLIC        gHalCB
  B:00A8H.7       PUBLIC        EA
  C:9062H         PUBLIC        _hal_common_reg_32_read
  C:9588H         PUBLIC        _hal_common_reg_bit_test
  C:8AC6H         PUBLIC        _CHAL_AllocFrameCp
  C:95A6H         PUBLIC        _hal_common_reg_16_read
  C:9118H         PUBLIC        _hal_common_reg_bit_set
  C:9024H         PUBLIC        _hal_common_free_frame
  C:965EH         PUBLIC        _CHAL_DecrementReleaseCPCnt
  C:8F64H         PUBLIC        _hal_common_reg_32_write
  C:9569H         PUBLIC        _hal_common_reg_16_write
  C:9405H         PUBLIC        _GV701x_GPIO_Read
  C:8EE1H         PUBLIC        _CHAL_FreeFrameCp
  C:974DH         PUBLIC        _hal_common_reg_8_bit_test
  X:3EEBH         PUBLIC        gEthMacAddrDef
  C:91F7H         PUBLIC        _hal_common_reg_8_bit_set
  C:8DCEH         PUBLIC        _GV701x_GPIO_Write
  C:90A0H         PUBLIC        CHAL_InitHW
  C:8E9FH         PUBLIC        _CHAL_freeCP
  C:949AH         PUBLIC        CHAL_GetCPUTxQDescCount
  C:9774H         PUBLIC        get_TimerTick
  C:6B70H         PUBLIC        CHAL_CpuTxQNemptyIntHandler
  X:3EF1H         PUBLIC        eth_plc_bridge
  D:0089H         PUBLIC        TMOD
  X:3EF2H         PUBLIC        eth_plc_sniffer
  X:3EF3H         PUBLIC        sysConfig
  X:4093H         PUBLIC        gtimer1
  X:4097H         PUBLIC        gtimer2
  X:409BH         PUBLIC        bcAddr
  B:00A8H.1       PUBLIC        ET0
  C:8F23H         PUBLIC        _CHAL_GetAccessToCP
  C:9648H         PUBLIC        HHAL_Rel_Gnt_Read_CPU_QD
  C:918CH         PUBLIC        _hal_common_bit_field_reg_read
  D:008CH         PUBLIC        TH0
  B:0088H.0       PUBLIC        IT0
  B:0088H.2       PUBLIC        IT1
  C:91C2H         PUBLIC        _CHAL_GetCPUsageCnt
  C:9451H         PUBLIC        _hal_common_bit_field_get
BL51 BANKED LINKER/LOCATER V6.22                                                      01/10/2015  21:25:33  PAGE 40


  C:90DCH         PUBLIC        _hal_common_reg_bit_clear
  D:008AH         PUBLIC        TL0
  C:8C45H         PUBLIC        HHAL_Req_Gnt_Read_CPU_QD
  X:40A1H         PUBLIC        hostIntf
  C:87B3H         PUBLIC        hal_common_display_qc_error_stats
  B:0088H.4       PUBLIC        TR0
  C:9688H         PUBLIC        CHAL_GetCPUTxQFrmCount
  C:977BH         PUBLIC        CHT_Poll
  C:8D85H         PUBLIC        _CHAL_IncrementCPUsageCnt
  C:96EBH         PUBLIC        CHAL_GetFreeCPCnt
  C:88ADH         PUBLIC        _hal_common_bit_field_set
  C:8BEBH         PUBLIC        _hal_common_bit_field_reg_write
  X:40A2H         PUBLIC        gEthMacAddrBrdcast
  C:94BDH         PUBLIC        timer_handler
  X:40A8H         PUBLIC        opMode
  X:40A9H         PUBLIC        hostDetected
  C:9740H         PUBLIC        _hal_common_reg_8_bit_clear
  C:95FDH         PUBLIC        _CHAL_DelayTicks
  C:969CH         PUBLIC        CHAL_IncTimerIntCnt
  C:8FA5H         PUBLIC        _GV701x_GPIO_Config
  C:86A5H         PUBLIC        _CHAL_RequestCP
  C:781CH         SYMBOL        Com0075
  C:781CH         SYMBOL        L?0118
  C:781FH         SYMBOL        L?0119
  C:7820H         SYMBOL        L?0120
  C:7826H         SYMBOL        L?0121
  C:7832H         SYMBOL        L?0122
  C:7832H         SYMBOL        L?0123
  C:7834H         SYMBOL        L?0124
  C:7837H         SYMBOL        L?0125
  C:7843H         SYMBOL        L?0126
  C:7843H         SYMBOL        L?0127
  C:7844H         SYMBOL        L?0128
  C:784FH         SYMBOL        L?0129
  C:7857H         SYMBOL        L?0130
  C:785AH         SYMBOL        L?0131
  C:786FH         SYMBOL        L?0132
  C:786FH         SYMBOL        L?0133
  C:7873H         SYMBOL        L?0134
  C:787EH         SYMBOL        L?0135
  C:787EH         SYMBOL        L?0136
  C:7895H         SYMBOL        L?0137
  C:78A0H         SYMBOL        L?0138
  C:78B0H         SYMBOL        L?0139
  C:78B3H         SYMBOL        L?0140
  C:78B6H         SYMBOL        L?0141
  C:78BFH         SYMBOL        L?0142
  C:78C2H         SYMBOL        L?0143
  C:78CBH         SYMBOL        L?0144
  C:78CBH         SYMBOL        L?0145
  C:78D8H         SYMBOL        L?0146
  C:78E0H         SYMBOL        L?0147
  C:78E1H         SYMBOL        L?0148
  C:78E8H         SYMBOL        L?0149
  C:78E8H         SYMBOL        L?0150
  C:78F1H         SYMBOL        L?0151
  C:78FBH         SYMBOL        L?0152
BL51 BANKED LINKER/LOCATER V6.22                                                      01/10/2015  21:25:33  PAGE 41


  C:7903H         SYMBOL        L?0153
  C:790EH         SYMBOL        L?0154
  C:791DH         SYMBOL        L?0155
  C:791DH         SYMBOL        L?0156
  C:7924H         SYMBOL        L?0157
  C:7931H         SYMBOL        L?0158
  C:7931H         SYMBOL        L?0159
  C:7939H         SYMBOL        L?0160
  C:793BH         SYMBOL        L?0161
  C:7942H         SYMBOL        L?0162
  C:794DH         SYMBOL        L?0164
  C:7956H         SYMBOL        L?0165
  C:7956H         SYMBOL        L?0166
  C:795CH         SYMBOL        L?0167
  -------         PROC          COM0075
  -------         ENDPROC       COM0075
  -------         PROC          CHAL_GETFREECPCNT
  -------         DO            
  X:3AF2H         SYMBOL        freeCpCnt
  -------         ENDDO         
  C:96EBH         LINE#         145
  C:96EBH         LINE#         146
  C:96EBH         LINE#         149
  C:96F7H         LINE#         151
  C:96FCH         LINE#         152
  -------         ENDPROC       CHAL_GETFREECPCNT
  -------         PROC          _CHAL_ALLOCFRAMECP
  X:4644H         SYMBOL        cpDesc
  X:4647H         SYMBOL        numCp
  -------         DO            
  X:4648H         SYMBOL        i
  D:0007H         SYMBOL        numFreeCp
  -------         ENDDO         
  C:8AC6H         LINE#         174
  C:8ACFH         LINE#         175
  C:8ACFH         LINE#         177
  C:8AD2H         LINE#         179
  C:8ADCH         LINE#         180
  C:8ADFH         LINE#         182
  C:8AF0H         LINE#         183
  C:8AF0H         LINE#         184
  C:8B0CH         LINE#         185
  C:8B0CH         LINE#         187
  C:8B1BH         LINE#         188
  C:8B1EH         LINE#         189
  C:8B1EH         LINE#         190
  C:8B26H         LINE#         191
  C:8B28H         LINE#         192
  -------         ENDPROC       _CHAL_ALLOCFRAMECP
  -------         PROC          _CHAL_GETACCESSTOCP
  D:0003H         SYMBOL        cp
  -------         DO            
  D:0006H         SYMBOL        cellAddr
  D:0002H         SYMBOL        bank
  X:3AEAH         SYMBOL        pktBufBankSel
  -------         ENDDO         
  C:8F23H         LINE#         215
BL51 BANKED LINKER/LOCATER V6.22                                                      01/10/2015  21:25:33  PAGE 42


  C:8F25H         LINE#         216
  C:8F25H         LINE#         228
  C:8F2DH         LINE#         230
  C:8F39H         LINE#         231
  C:8F45H         LINE#         232
  C:8F4EH         LINE#         233
  C:8F63H         LINE#         237
  C:8F63H         LINE#         238
  -------         ENDPROC       _CHAL_GETACCESSTOCP
  -------         PROC          _CHAL_GETCPUSAGECNT
  D:0003H         SYMBOL        cp
  -------         DO            
  X:375FH         SYMBOL        cpUsageCntIdx
  X:3763H         SYMBOL        cpUsageCnt
  -------         ENDDO         
  C:91C2H         LINE#         258
  C:91C4H         LINE#         259
  C:91C4H         LINE#         263
  C:91CEH         LINE#         264
  C:91DAH         LINE#         266
  C:91E3H         LINE#         267
  C:91EFH         LINE#         269
  C:91F6H         LINE#         270
  -------         ENDPROC       _CHAL_GETCPUSAGECNT
  -------         PROC          _CHAL_INCREMENTCPUSAGECNT
  D:0002H         SYMBOL        cp
  D:0003H         SYMBOL        cpCnt
  -------         DO            
  X:375FH         SYMBOL        cpUsageCntIdx
  X:3763H         SYMBOL        cpUsageCnt
  -------         ENDDO         
  C:8D85H         LINE#         291
  C:8D89H         LINE#         292
  C:8D89H         LINE#         296
  C:8D93H         LINE#         297
  C:8D9DH         LINE#         298
  C:8DA9H         LINE#         299
  C:8DB5H         LINE#         301
  C:8DC1H         LINE#         302
  C:8DCDH         LINE#         305
  -------         ENDPROC       _CHAL_INCREMENTCPUSAGECNT
  -------         PROC          CHAL_GETCPUTXQDESCCOUNT
  -------         DO            
  X:39ABH         SYMBOL        cpuTxQStat
  D:0007H         SYMBOL        txQDescCnt
  -------         ENDDO         
  C:949AH         LINE#         353
  C:949AH         LINE#         354
  C:949AH         LINE#         358
  C:94A6H         LINE#         359
  C:94ACH         LINE#         360
  C:94BCH         LINE#         361
  C:94BCH         LINE#         362
  -------         ENDPROC       CHAL_GETCPUTXQDESCCOUNT
  -------         PROC          CHAL_GETCPUTXQFRMCOUNT
  -------         DO            
  X:4658H         SYMBOL        cpuTxQStat
BL51 BANKED LINKER/LOCATER V6.22                                                      01/10/2015  21:25:33  PAGE 43


  D:0007H         SYMBOL        txQFrmCnt
  -------         ENDDO         
  C:9688H         LINE#         365
  C:9688H         LINE#         366
  C:9688H         LINE#         370
  C:9694H         LINE#         371
  C:969BH         LINE#         372
  C:969BH         LINE#         373
  -------         ENDPROC       CHAL_GETCPUTXQFRMCOUNT
  -------         PROC          CHAL_INITHW
  -------         DO            
  X:390FH         SYMBOL        cpNum
  -------         ENDDO         
  C:90A0H         LINE#         475
  C:90A0H         LINE#         476
  C:90A0H         LINE#         490
  C:90AFH         LINE#         491
  C:90AFH         LINE#         493
  C:90AFH         LINE#         494
  C:90B2H         LINE#         495
  C:90B2H         LINE#         496
  C:90BAH         LINE#         502
  C:90C3H         LINE#         521
  C:90CBH         LINE#         524
  C:90CEH         LINE#         525
  C:90D1H         LINE#         528
  C:90D3H         LINE#         537
  C:90D5H         LINE#         540
  C:90D7H         LINE#         541
  C:90D9H         LINE#         542
  C:90DBH         LINE#         579
  -------         ENDPROC       CHAL_INITHW
  -------         PROC          HAL_COMMON_DISPLAY_QC_ERROR_STATS
  C:87B3H         LINE#         581
  C:87B3H         LINE#         582
  C:87B3H         LINE#         583
  C:87BCH         LINE#         587
  -------         ENDPROC       HAL_COMMON_DISPLAY_QC_ERROR_STATS
  C:6DC9H         SYMBOL        L?0163
  -------         PROC          CHAL_CPUTXQNEMPTYINTHANDLER
  -------         DO            
  X:392CH         SYMBOL        desc_cnt
  X:392DH         SYMBOL        rx_processing
  D:0007H         SYMBOL        i
  D:0006H         SYMBOL        frmLen
  X:392EH         SYMBOL        rxFrmSwDesc
  X:396BH         SYMBOL        rxFrmHwDesc
  X:3970H         SYMBOL        rxCpDesc
  -------         DO            
  X:3974H         SYMBOL        last_desc_len
  X:3975H         SYMBOL        rx_q_desc
  X:397AH         SYMBOL        q_desc_cp
  X:397EH         SYMBOL        rx_frame_info
  -------         DO            
  X:39A9H         SYMBOL        src_port
  X:39AAH         SYMBOL        valid_frame
  -------         ENDDO         
BL51 BANKED LINKER/LOCATER V6.22                                                      01/10/2015  21:25:33  PAGE 44


  -------         ENDDO         
  -------         ENDDO         
  C:6B70H         LINE#         595
  C:6B70H         LINE#         599
  C:6B70H         LINE#         639
  C:6B79H         LINE#         640
  C:6B80H         LINE#         641
  C:6B87H         LINE#         651
  C:6B87H         LINE#         652
  C:6B8AH         LINE#         653
  C:6B8CH         LINE#         655
  C:6B8FH         LINE#         657
  C:6B98H         LINE#         668
  C:6BA3H         LINE#         669
  C:6BA3H         LINE#         674
  C:6BAFH         LINE#         675
  C:6BB6H         LINE#         676
  C:6BBDH         LINE#         678
  C:6BBDH         LINE#         679
  C:6BC6H         LINE#         680
  C:6BCEH         LINE#         682
  C:6BD1H         LINE#         683
  C:6BD3H         LINE#         684
  C:6BD6H         LINE#         685
  C:6BD6H         LINE#         686
  C:6BD8H         LINE#         688
  C:6BE2H         LINE#         695
  C:6BEBH         LINE#         696
  C:6BF7H         LINE#         697
  C:6BFCH         LINE#         698
  C:6C01H         LINE#         699
  C:6C0DH         LINE#         727
  C:6C0DH         LINE#         729
  C:6C10H         LINE#         730
  C:6C10H         LINE#         732
  C:6C15H         LINE#         734
  C:6C18H         LINE#         735
  C:6C1DH         LINE#         736
  C:6C20H         LINE#         738
  C:6C2CH         LINE#         739
  C:6C34H         LINE#         745
  C:6C36H         LINE#         746
  C:6C3DH         LINE#         747
  C:6C46H         LINE#         748
  C:6C4BH         LINE#         750
  C:6C4EH         LINE#         751
  C:6C53H         LINE#         752
  C:6C55H         LINE#         753
  C:6C55H         LINE#         754
  C:6C61H         LINE#         756
  C:6C66H         LINE#         772
  C:6C68H         LINE#         774
  C:6C6BH         LINE#         775
  C:6C70H         LINE#         776
  C:6C76H         LINE#         777
  C:6C76H         LINE#         778
  C:6C78H         LINE#         779
BL51 BANKED LINKER/LOCATER V6.22                                                      01/10/2015  21:25:33  PAGE 45


  C:6C7AH         LINE#         780
  C:6C7AH         LINE#         788
  C:6C7DH         LINE#         789
  C:6C7DH         LINE#         791
  C:6C80H         LINE#         793
  C:6C83H         LINE#         794
  C:6C85H         LINE#         796
  C:6C8BH         LINE#         797
  C:6C91H         LINE#         798
  C:6C94H         LINE#         799
  C:6C9EH         LINE#         800
  C:6CB2H         LINE#         802
  C:6CB7H         LINE#         804
  C:6CC3H         LINE#         805
  C:6CC9H         LINE#         806
  C:6CD1H         LINE#         807
  C:6CD9H         LINE#         808
  C:6CE8H         LINE#         809
  C:6CFBH         LINE#         811
  C:6D03H         LINE#         812
  C:6D0BH         LINE#         816
  C:6D17H         LINE#         817
  C:6D17H         LINE#         818
  C:6D2FH         LINE#         832
  C:6D32H         LINE#         845
  C:6D46H         LINE#         846
  C:6D50H         LINE#         858
  C:6D50H         LINE#         859
  C:6D50H         LINE#         863
  C:6D56H         LINE#         865
  C:6D59H         LINE#         868
  C:6D59H         LINE#         869
  C:6D59H         LINE#         876
  C:6D5FH         LINE#         879
  C:6D62H         LINE#         882
  C:6D62H         LINE#         886
  C:6D6AH         LINE#         893
  C:6D70H         LINE#         932
  C:6D73H         LINE#         934
  C:6D73H         LINE#         935
  C:6D73H         LINE#         936
  C:6D79H         LINE#         937
  C:6D85H         LINE#         938
  C:6D85H         LINE#         939
  C:6D87H         LINE#         940
  C:6D87H         LINE#         943
  C:6D87H         LINE#         944
  C:6D87H         LINE#         947
  C:6D8DH         LINE#         948
  C:6D99H         LINE#         949
  C:6D99H         LINE#         950
  C:6D9FH         LINE#         951
  C:6D9FH         LINE#         952
  C:6DA2H         LINE#         953
  C:6DA2H         LINE#         954
  C:6DA7H         LINE#         956
  C:6DAAH         LINE#         957
BL51 BANKED LINKER/LOCATER V6.22                                                      01/10/2015  21:25:33  PAGE 46


  C:6DACH         LINE#         958
  C:6DACH         LINE#         959
  C:6DB3H         LINE#         960
  C:6DB6H         LINE#         961
  C:6DB6H         LINE#         962
  C:6DC6H         LINE#         963
  C:6DC6H         LINE#         964
  C:6DC6H         LINE#         991
  C:6DC9H         LINE#         992
  -------         ENDPROC       CHAL_CPUTXQNEMPTYINTHANDLER
  -------         PROC          GET_TIMERTICK
  C:9774H         LINE#         994
  C:9774H         LINE#         995
  C:9774H         LINE#         996
  C:977AH         LINE#         999
  -------         ENDPROC       GET_TIMERTICK
  -------         PROC          CHAL_INCTIMERINTCNT
  C:969CH         LINE#         1001
  C:96A1H         LINE#         1003
  C:96ADH         LINE#         1005
  -------         ENDPROC       CHAL_INCTIMERINTCNT
  -------         PROC          TIMER_HANDLER
  C:94BDH         LINE#         1123
  C:94C2H         LINE#         1135
  C:94C5H         LINE#         1136
  C:94D1H         LINE#         1137
  C:94DDH         LINE#         1141
  -------         ENDPROC       TIMER_HANDLER
  -------         PROC          CHT_POLL
  C:977BH         LINE#         1181
  C:977BH         LINE#         1182
  C:977BH         LINE#         1185
  C:977EH         LINE#         1192
  C:9781H         LINE#         1193
  -------         ENDPROC       CHT_POLL
  -------         PROC          _CHAL_FREECP
  D:0003H         SYMBOL        cp
  -------         DO            
  X:3B97H         SYMBOL        cpuCPReg
  D:0003H         SYMBOL        i
  X:3B9BH         SYMBOL        intFlag
  -------         ENDDO         
  C:8E9FH         LINE#         1405
  C:8EA1H         LINE#         1406
  C:8EA1H         LINE#         1410
  C:8EA9H         LINE#         1414
  C:8EB3H         LINE#         1415
  C:8EB8H         LINE#         1417
  C:8EC1H         LINE#         1419
  C:8EC3H         LINE#         1420
  C:8EC3H         LINE#         1422
  C:8ECFH         LINE#         1424
  C:8ED6H         LINE#         1425
  C:8ED6H         LINE#         1433
  C:8ED9H         LINE#         1434
  C:8ED9H         LINE#         1435
  C:8EDEH         LINE#         1444
BL51 BANKED LINKER/LOCATER V6.22                                                      01/10/2015  21:25:33  PAGE 47


  C:8EE0H         LINE#         1445
  -------         ENDPROC       _CHAL_FREECP
  -------         PROC          _CHAL_REQUESTCP
  X:3AEAH         SYMBOL        pCp
  -------         DO            
  X:3AEDH         SYMBOL        cpuCPReg
  X:3AF1H         SYMBOL        i
  D:0003H         SYMBOL        intFlag
  -------         ENDDO         
  C:86A5H         LINE#         1467
  C:86ABH         LINE#         1468
  C:86ABH         LINE#         1472
  C:86B0H         LINE#         1477
  C:86B6H         LINE#         1478
  C:86B6H         LINE#         1479
  C:86BDH         LINE#         1480
  C:86C0H         LINE#         1481
  C:86C0H         LINE#         1489
  C:86C5H         LINE#         1490
  C:86C5H         LINE#         1491
  C:86D1H         LINE#         1493
  C:86D8H         LINE#         1494
  C:86D8H         LINE#         1502
  C:86D8H         LINE#         1503
  C:86D8H         LINE#         1505
  C:86DFH         LINE#         1506
  C:86DFH         LINE#         1508
  C:86EEH         LINE#         1516
  C:86F1H         LINE#         1517
  C:86F1H         LINE#         1519
  C:86F7H         LINE#         1520
  C:8703H         LINE#         1529
  C:870DH         LINE#         1530
  C:8714H         LINE#         1531
  C:8720H         LINE#         1533
  C:872EH         LINE#         1537
  C:8730H         LINE#         1538
  -------         ENDPROC       _CHAL_REQUESTCP
  -------         PROC          _CHAL_DECREMENTRELEASECPCNT
  D:0007H         SYMBOL        cp
  C:965EH         LINE#         1558
  C:965EH         LINE#         1559
  C:965EH         LINE#         1560
  C:9664H         LINE#         1561
  C:9672H         LINE#         1562
  -------         ENDPROC       _CHAL_DECREMENTRELEASECPCNT
  -------         PROC          _CHAL_FREEFRAMECP
  X:3B91H         SYMBOL        cpDesc
  X:3B94H         SYMBOL        numCp
  -------         DO            
  X:3B95H         SYMBOL        i
  X:3B96H         SYMBOL        intFlag
  -------         ENDDO         
  C:8EE1H         LINE#         1585
  C:8EEAH         LINE#         1586
  C:8EEAH         LINE#         1589
  C:8EF2H         LINE#         1594
BL51 BANKED LINKER/LOCATER V6.22                                                      01/10/2015  21:25:33  PAGE 48


  C:8F03H         LINE#         1595
  C:8F03H         LINE#         1596
  C:8F1AH         LINE#         1597
  C:8F22H         LINE#         1601
  -------         ENDPROC       _CHAL_FREEFRAMECP
  -------         PROC          _HAL_COMMON_FREE_FRAME
  X:3A5DH         SYMBOL        rx_frame_info_p
  -------         DO            
  X:3A60H         SYMBOL        cp_idx
  -------         ENDDO         
  C:9024H         LINE#         1604
  C:902AH         LINE#         1605
  C:902AH         LINE#         1608
  C:9043H         LINE#         1609
  C:9059H         LINE#         1610
  C:9061H         LINE#         1611
  -------         ENDPROC       _HAL_COMMON_FREE_FRAME
  -------         PROC          _HAL_COMMON_REG_8_BIT_SET
  D:0082H         SYMBOL        addr
  D:0005H         SYMBOL        dat8
  -------         DO            
  D:0007H         SYMBOL        value
  -------         ENDDO         
  C:91F7H         LINE#         1615
  C:91FBH         LINE#         1616
  C:91FBH         LINE#         1619
  C:91FCH         LINE#         1620
  C:91FDH         LINE#         1621
  C:91FEH         LINE#         1622
  -------         ENDPROC       _HAL_COMMON_REG_8_BIT_SET
  -------         PROC          _HAL_COMMON_REG_8_BIT_CLEAR
  D:0082H         SYMBOL        addr
  D:0005H         SYMBOL        dat8
  -------         DO            
  D:0007H         SYMBOL        value
  -------         ENDDO         
  C:9740H         LINE#         1624
  C:9744H         LINE#         1625
  C:9744H         LINE#         1628
  C:9746H         LINE#         1630
  C:974BH         LINE#         1631
  C:974CH         LINE#         1632
  -------         ENDPROC       _HAL_COMMON_REG_8_BIT_CLEAR
  -------         PROC          _HAL_COMMON_REG_8_BIT_TEST
  D:0082H         SYMBOL        addr
  D:0005H         SYMBOL        dat8
  -------         DO            
  D:0007H         SYMBOL        value
  -------         ENDDO         
  C:974DH         LINE#         1634
  C:9751H         LINE#         1635
  C:9751H         LINE#         1638
  C:9752H         LINE#         1639
  C:9755H         LINE#         1640
  C:9757H         LINE#         1641
  C:9757H         LINE#         1642
  C:9758H         LINE#         1643
BL51 BANKED LINKER/LOCATER V6.22                                                      01/10/2015  21:25:33  PAGE 49


  C:9758H         LINE#         1644
  -------         ENDPROC       _HAL_COMMON_REG_8_BIT_TEST
  -------         PROC          _HAL_COMMON_REG_16_READ
  D:0004H         SYMBOL        reg_addr
  -------         DO            
  X:4683H         SYMBOL        value_16
  -------         ENDDO         
  C:95A6H         LINE#         1646
  C:95A6H         LINE#         1647
  C:95A6H         LINE#         1650
  C:95B6H         LINE#         1652
  C:95C2H         LINE#         1653
  -------         ENDPROC       _HAL_COMMON_REG_16_READ
  -------         PROC          _HAL_COMMON_REG_16_WRITE
  X:461AH         SYMBOL        addr
  X:461EH         SYMBOL        dat16
  -------         DO            
  D:0004H         SYMBOL        dat
  -------         ENDDO         
  C:9569H         LINE#         1655
  C:956FH         LINE#         1656
  C:956FH         LINE#         1657
  C:9574H         LINE#         1659
  C:957BH         LINE#         1660
  C:9587H         LINE#         1661
  -------         ENDPROC       _HAL_COMMON_REG_16_WRITE
  -------         PROC          _HAL_COMMON_REG_32_READ
  D:0004H         SYMBOL        reg_addr
  -------         DO            
  X:3B52H         SYMBOL        value_32
  X:3B56H         SYMBOL        r32
  X:3B5AH         SYMBOL        rr32
  -------         ENDDO         
  C:9062H         LINE#         1663
  C:9062H         LINE#         1664
  C:9062H         LINE#         1669
  C:906FH         LINE#         1670
  C:907BH         LINE#         1671
  C:9081H         LINE#         1672
  C:9089H         LINE#         1673
  C:9091H         LINE#         1674
  C:9099H         LINE#         1675
  C:909FH         LINE#         1677
  -------         ENDPROC       _HAL_COMMON_REG_32_READ
  -------         PROC          _HAL_COMMON_REG_32_WRITE
  X:3B52H         SYMBOL        addr
  X:3B56H         SYMBOL        dat32
  -------         DO            
  X:3B5AH         SYMBOL        r32
  X:3B5EH         SYMBOL        rr32
  -------         ENDDO         
  C:8F64H         LINE#         1679
  C:8F6AH         LINE#         1680
  C:8F6AH         LINE#         1686
  C:8F74H         LINE#         1687
  C:8F7AH         LINE#         1688
  C:8F82H         LINE#         1689
BL51 BANKED LINKER/LOCATER V6.22                                                      01/10/2015  21:25:33  PAGE 50


  C:8F8AH         LINE#         1690
  C:8F92H         LINE#         1691
  -------         ENDPROC       _HAL_COMMON_REG_32_WRITE
  -------         PROC          _HAL_COMMON_REG_BIT_SET
  X:3B46H         SYMBOL        addr
  X:3B4AH         SYMBOL        dat32
  -------         DO            
  X:3B4EH         SYMBOL        value
  -------         ENDDO         
  C:9118H         LINE#         1695
  C:911EH         LINE#         1696
  C:911EH         LINE#         1699
  C:912DH         LINE#         1700
  C:9141H         LINE#         1701
  -------         ENDPROC       _HAL_COMMON_REG_BIT_SET
  -------         PROC          _HAL_COMMON_REG_BIT_CLEAR
  X:3B46H         SYMBOL        addr
  X:3B4AH         SYMBOL        dat32
  -------         DO            
  X:3B4EH         SYMBOL        value
  -------         ENDDO         
  C:90DCH         LINE#         1704
  C:90E2H         LINE#         1705
  C:90E2H         LINE#         1708
  C:90F1H         LINE#         1710
  C:9106H         LINE#         1711
  -------         ENDPROC       _HAL_COMMON_REG_BIT_CLEAR
  -------         PROC          _HAL_COMMON_REG_BIT_TEST
  D:0004H         SYMBOL        addr
  X:3B4AH         SYMBOL        dat32
  -------         DO            
  X:3B4EH         SYMBOL        value
  -------         ENDDO         
  C:9588H         LINE#         1714
  C:9588H         LINE#         1715
  C:9588H         LINE#         1718
  C:9591H         LINE#         1719
  C:95A2H         LINE#         1720
  C:95A4H         LINE#         1721
  C:95A4H         LINE#         1722
  C:95A5H         LINE#         1723
  C:95A5H         LINE#         1724
  -------         ENDPROC       _HAL_COMMON_REG_BIT_TEST
  -------         PROC          _HAL_COMMON_BIT_FIELD_REG_READ
  D:0004H         SYMBOL        addr
  X:4569H         SYMBOL        mask
  X:456DH         SYMBOL        pos
  -------         DO            
  X:456FH         SYMBOL        value
  -------         ENDDO         
  C:918CH         LINE#         1726
  C:918CH         LINE#         1727
  C:918CH         LINE#         1730
  C:9195H         LINE#         1731
  C:91A7H         LINE#         1732
  C:91BBH         LINE#         1734
  C:91C1H         LINE#         1735
BL51 BANKED LINKER/LOCATER V6.22                                                      01/10/2015  21:25:33  PAGE 51


  -------         ENDPROC       _HAL_COMMON_BIT_FIELD_REG_READ
  -------         PROC          _HAL_COMMON_BIT_FIELD_REG_WRITE
  X:3913H         SYMBOL        addr
  X:3917H         SYMBOL        mask
  X:391BH         SYMBOL        pos
  X:391DH         SYMBOL        value
  -------         DO            
  X:3921H         SYMBOL        current_value
  -------         ENDDO         
  C:8BEBH         LINE#         1737
  C:8BF1H         LINE#         1738
  C:8BF1H         LINE#         1741
  C:8C00H         LINE#         1742
  C:8C13H         LINE#         1743
  C:8C21H         LINE#         1744
  C:8C2DH         LINE#         1745
  C:8C36H         LINE#         1746
  -------         ENDPROC       _HAL_COMMON_BIT_FIELD_REG_WRITE
  -------         PROC          _HAL_COMMON_BIT_FIELD_GET
  X:45AFH         SYMBOL        value
  X:45B3H         SYMBOL        field_mask
  X:45B7H         SYMBOL        field_pos
  C:9451H         LINE#         1749
  C:9451H         LINE#         1750
  C:9451H         LINE#         1752
  C:9460H         LINE#         1755
  C:946FH         LINE#         1757
  C:9475H         LINE#         1758
  -------         ENDPROC       _HAL_COMMON_BIT_FIELD_GET
  -------         PROC          _HAL_COMMON_BIT_FIELD_SET
  X:3A28H         SYMBOL        value_p
  X:3A2BH         SYMBOL        field_mask
  X:3A2FH         SYMBOL        field_pos
  X:3A30H         SYMBOL        field_val
  C:88ADH         LINE#         1760
  C:88B7H         LINE#         1762
  C:88B7H         LINE#         1764
  C:88CAH         LINE#         1766
  C:88E0H         LINE#         1768
  C:88FFH         LINE#         1770
  -------         ENDPROC       _HAL_COMMON_BIT_FIELD_SET
  -------         PROC          _CHAL_DELAYTICKS
  X:3AF2H         SYMBOL        num12Clks
  -------         DO            
  D:0007H         SYMBOL        curTick
  -------         ENDDO         
  C:95FDH         LINE#         1773
  C:9603H         LINE#         1774
  C:9603H         LINE#         1778
  C:9603H         LINE#         1779
  C:9605H         LINE#         1780
  C:960AH         LINE#         1781
  C:9618H         LINE#         1783
  -------         ENDPROC       _CHAL_DELAYTICKS
  -------         PROC          HHAL_REQ_GNT_READ_CPU_QD
  -------         DO            
  D:0002H         SYMBOL        i
BL51 BANKED LINKER/LOCATER V6.22                                                      01/10/2015  21:25:33  PAGE 52


  X:39ABH         SYMBOL        Wr_Arb_Req
  -------         ENDDO         
  C:8C45H         LINE#         2049
  C:8C45H         LINE#         2050
  C:8C45H         LINE#         2056
  C:8C4FH         LINE#         2057
  C:8C56H         LINE#         2058
  C:8C5FH         LINE#         2059
  C:8C67H         LINE#         2062
  C:8C6AH         LINE#         2063
  C:8C6AH         LINE#         2064
  C:8C76H         LINE#         2065
  C:8C7DH         LINE#         2066
  C:8C80H         LINE#         2067
  C:8C86H         LINE#         2068
  C:8C91H         LINE#         2069
  C:8C97H         LINE#         2070
  C:8C99H         LINE#         2071
  -------         ENDPROC       HHAL_REQ_GNT_READ_CPU_QD
  -------         PROC          HHAL_REL_GNT_READ_CPU_QD
  -------         DO            
  X:39ABH         SYMBOL        Wr_Arb_Req
  -------         ENDDO         
  C:9648H         LINE#         2073
  C:9648H         LINE#         2074
  C:9648H         LINE#         2078
  C:9652H         LINE#         2079
  -------         ENDPROC       HHAL_REL_GNT_READ_CPU_QD
  -------         PROC          _GV701X_GPIO_CONFIG
  D:0003H         SYMBOL        mode
  X:45B9H         SYMBOL        gpio
  -------         DO            
  X:45BDH         SYMBOL        gpioReg
  -------         ENDDO         
  C:8FA5H         LINE#         2105
  C:8FA7H         LINE#         2106
  C:8FA7H         LINE#         2109
  C:8FB3H         LINE#         2110
  C:8FB9H         LINE#         2111
  C:8FB9H         LINE#         2112
  C:8FC6H         LINE#         2113
  C:8FC8H         LINE#         2115
  C:8FC8H         LINE#         2116
  C:8FD9H         LINE#         2117
  C:8FD9H         LINE#         2118
  -------         ENDPROC       _GV701X_GPIO_CONFIG
  -------         PROC          _GV701X_GPIO_WRITE
  X:45C1H         SYMBOL        gpio
  X:45C5H         SYMBOL        value
  -------         DO            
  X:45C6H         SYMBOL        gpioReg
  -------         ENDDO         
  C:8DCEH         LINE#         2121
  C:8DD1H         LINE#         2122
  C:8DD1H         LINE#         2125
  C:8DDDH         LINE#         2126
  C:8DE3H         LINE#         2127
BL51 BANKED LINKER/LOCATER V6.22                                                      01/10/2015  21:25:33  PAGE 53


  C:8DE3H         LINE#         2128
  C:8DF0H         LINE#         2129
  C:8DF2H         LINE#         2131
  C:8DF2H         LINE#         2132
  C:8E09H         LINE#         2133
  C:8E09H         LINE#         2134
  -------         ENDPROC       _GV701X_GPIO_WRITE
  -------         PROC          _GV701X_GPIO_READ
  X:45E5H         SYMBOL        gpio
  -------         DO            
  X:45E9H         SYMBOL        gpioReg
  -------         ENDDO         
  C:9405H         LINE#         2137
  C:9408H         LINE#         2138
  C:9408H         LINE#         2141
  C:9414H         LINE#         2142
  C:9425H         LINE#         2143
  C:9425H         LINE#         2144
  C:9428H         LINE#         2145
  C:9428H         LINE#         2147
  C:9428H         LINE#         2148
  C:942AH         LINE#         2149
  C:942AH         LINE#         2151
  -------         ENDPROC       _GV701X_GPIO_READ
  -------         ENDMOD        HAL_COMMON

  -------         MODULE        HAL_MAIN
  C:0000H         SYMBOL        _ICE_DUMMY_
  C:7E38H         PUBLIC        _CmdSPI
  B:00A8H.7       PUBLIC        EA
  C:7211H         PUBLIC        _CmdRead
  B:00B0H.7       PUBLIC        RD
  B:0098H.0       PUBLIC        RI
  C:942BH         PUBLIC        green_main
  B:0098H.1       PUBLIC        TI
  C:94E0H         PUBLIC        CmdHelp
  C:741AH         PUBLIC        _CmdWrite
  C:9721H         PUBLIC        Read_FlashProfile
  B:00B0H.6       PUBLIC        WR
  C:9782H         PUBLIC        LHTM_Task
  C:9764H         PUBLIC        LHTM_Init
  D:0099H         PUBLIC        SBUF
  X:42FBH         SYMBOL        CmdBuf
  C:83A1H         PUBLIC        CmdGet
  C:96D8H         PUBLIC        _getchar
  C:668DH         PUBLIC        CmdRun
  C:91FFH         PUBLIC        com_init
  C:93B7H         PUBLIC        poll_key
  C:7C83H         PUBLIC        _getline
  C:96FDH         PUBLIC        _getkey
  C:9619H         PUBLIC        _putchar
  C:7966H         SYMBOL        Com0099
  C:7966H         SYMBOL        L?0154
  C:7966H         SYMBOL        L?0155
  C:7969H         SYMBOL        L?0156
  C:7972H         SYMBOL        L?0157
  C:797EH         SYMBOL        L?0158
BL51 BANKED LINKER/LOCATER V6.22                                                      01/10/2015  21:25:33  PAGE 54


  C:797EH         SYMBOL        L?0159
  C:7983H         SYMBOL        L?0160
  C:7984H         SYMBOL        L?0161
  C:798BH         SYMBOL        L?0162
  C:798BH         SYMBOL        L?0163
  C:7997H         SYMBOL        L?0164
  C:799AH         SYMBOL        L?0165
  C:79A3H         SYMBOL        L?0166
  C:79A3H         SYMBOL        L?0167
  C:79A5H         SYMBOL        L?0168
  C:79ADH         SYMBOL        L?0169
  C:79AFH         SYMBOL        L?0170
  C:79B2H         SYMBOL        L?0171
  C:79BEH         SYMBOL        L?0172
  C:79BEH         SYMBOL        L?0173
  C:79C1H         SYMBOL        L?0174
  C:79D0H         SYMBOL        L?0175
  C:79D0H         SYMBOL        L?0176
  C:79D3H         SYMBOL        L?0177
  C:79E1H         SYMBOL        L?0178
  C:79E1H         SYMBOL        L?0179
  C:79EEH         SYMBOL        L?0180
  C:79EEH         SYMBOL        L?0181
  C:79F1H         SYMBOL        L?0182
  C:79FEH         SYMBOL        L?0183
  C:7A01H         SYMBOL        L?0184
  C:7A10H         SYMBOL        L?0185
  C:7A10H         SYMBOL        L?0186
  C:7A1DH         SYMBOL        L?0187
  C:7A1DH         SYMBOL        L?0188
  C:7A2EH         SYMBOL        L?0189
  C:7A2EH         SYMBOL        L?0190
  C:7A31H         SYMBOL        L?0191
  C:7A39H         SYMBOL        L?0192
  C:7A39H         SYMBOL        L?0193
  C:7A42H         SYMBOL        L?0194
  C:7A42H         SYMBOL        L?0195
  C:7A4FH         SYMBOL        L?0196
  C:7A4FH         SYMBOL        L?0197
  C:7A56H         SYMBOL        L?0200
  C:7A68H         SYMBOL        L?0201
  C:7A6AH         SYMBOL        L?0202
  C:7A73H         SYMBOL        L?0203
  C:7A73H         SYMBOL        L?0204
  C:7A79H         SYMBOL        L?0205
  C:7A86H         SYMBOL        L?0206
  C:7A92H         SYMBOL        L?0208
  C:7A9DH         SYMBOL        L?0211
  C:7A9DH         SYMBOL        L?0212
  -------         PROC          COM0099
  -------         ENDPROC       COM0099
  -------         PROC          COM_INIT
  C:91FFH         LINE#         157
  C:91FFH         LINE#         158
  C:91FFH         LINE#         159
  -------         ENDPROC       COM_INIT
  -------         PROC          _GETKEY
BL51 BANKED LINKER/LOCATER V6.22                                                      01/10/2015  21:25:33  PAGE 55


  -------         DO            
  D:0007H         SYMBOL        c
  -------         ENDDO         
  C:96FDH         LINE#         163
  C:96FDH         LINE#         165
  C:96FDH         LINE#         168
  C:96FDH         LINE#         169
  C:9700H         LINE#         171
  C:9703H         LINE#         173
  C:9705H         LINE#         174
  C:9707H         LINE#         175
  C:9709H         LINE#         176
  C:970EH         LINE#         177
  C:970EH         LINE#         178
  -------         ENDPROC       _GETKEY
  -------         PROC          _GETCHAR
  -------         DO            
  D:0007H         SYMBOL        c
  -------         ENDDO         
  C:96D8H         LINE#         218
  C:96D8H         LINE#         219
  C:96D8H         LINE#         222
  C:96E1H         LINE#         223
  C:96E1H         LINE#         224
  C:96E3H         LINE#         225
  C:96E5H         LINE#         226
  C:96E6H         LINE#         227
  C:96E6H         LINE#         228
  C:96E8H         LINE#         230
  C:96EAH         LINE#         231
  -------         ENDPROC       _GETCHAR
  -------         PROC          _PUTCHAR
  D:0007H         SYMBOL        c
  C:9619H         LINE#         233
  C:9619H         LINE#         234
  C:9619H         LINE#         235
  C:961DH         LINE#         236
  C:961DH         LINE#         237
  C:961FH         LINE#         238
  C:9622H         LINE#         239
  C:9625H         LINE#         240
  C:9627H         LINE#         241
  C:9627H         LINE#         242
  C:9629H         LINE#         243
  C:962BH         LINE#         244
  C:962EH         LINE#         245
  C:9630H         LINE#         246
  C:9630H         LINE#         247
  -------         ENDPROC       _PUTCHAR
  -------         PROC          POLL_KEY
  -------         DO            
  X:3AEAH         SYMBOL        c
  -------         ENDDO         
  C:93B7H         LINE#         249
  C:93B7H         LINE#         250
  C:93B7H         LINE#         252
  C:93BCH         LINE#         254
BL51 BANKED LINKER/LOCATER V6.22                                                      01/10/2015  21:25:33  PAGE 56


  C:93BEH         LINE#         255
  C:93C1H         LINE#         256
  C:93C1H         LINE#         257
  C:93C3H         LINE#         258
  C:93C6H         LINE#         259
  C:93D0H         LINE#         260
  C:93D0H         LINE#         261
  C:93D3H         LINE#         263
  C:93D6H         LINE#         265
  C:93D6H         LINE#         266
  C:93D6H         LINE#         267
  C:93D8H         LINE#         268
  C:93DDH         LINE#         269
  -------         ENDPROC       POLL_KEY
  -------         PROC          _GETLINE
  X:376EH         SYMBOL        s
  X:3771H         SYMBOL        lim
  -------         DO            
  X:3773H         SYMBOL        t
  X:3776H         SYMBOL        c
  X:3778H         SYMBOL        len
  -------         ENDDO         
  C:7C83H         LINE#         272
  C:7C8FH         LINE#         273
  C:7C8FH         LINE#         275
  C:7C97H         LINE#         277
  C:7C9DH         LINE#         278
  C:7CC9H         LINE#         279
  C:7CC9H         LINE#         280
  C:7CD0H         LINE#         281
  C:7CD9H         LINE#         282
  C:7CE5H         LINE#         283
  C:7CE5H         LINE#         284
  C:7CF0H         LINE#         285
  C:7CFEH         LINE#         286
  C:7D03H         LINE#         287
  C:7D08H         LINE#         288
  C:7D08H         LINE#         289
  C:7D0BH         LINE#         290
  C:7D16H         LINE#         291
  C:7D16H         LINE#         292
  C:7D1BH         LINE#         293
  C:7D25H         LINE#         294
  C:7D27H         LINE#         295
  C:7D33H         LINE#         296
  C:7D33H         LINE#         297
  C:7D3BH         LINE#         299
  C:7D3BH         LINE#         300
  C:7D46H         LINE#         301
  C:7D5FH         LINE#         302
  -------         ENDPROC       _GETLINE
  -------         PROC          CMDGET
  -------         DO            
  X:36CEH         SYMBOL        c
  X:36CFH         SYMBOL        idx
  -------         ENDDO         
  C:83A1H         LINE#         307
BL51 BANKED LINKER/LOCATER V6.22                                                      01/10/2015  21:25:33  PAGE 57


  C:83A1H         LINE#         308
  C:83A1H         LINE#         310
  C:83A6H         LINE#         312
  C:83A6H         LINE#         313
  C:83A6H         LINE#         314
  C:83AEH         LINE#         316
  C:83C2H         LINE#         317
  C:83C2H         LINE#         318
  C:83C2H         LINE#         319
  C:83CBH         LINE#         320
  C:83CBH         LINE#         321
  C:83D4H         LINE#         322
  C:83DAH         LINE#         323
  C:83DAH         LINE#         324
  C:83DCH         LINE#         326
  C:83DCH         LINE#         327
  C:83DCH         LINE#         328
  C:83E1H         LINE#         329
  C:83EAH         LINE#         332
  C:83EAH         LINE#         333
  C:83EAH         LINE#         334
  C:83F3H         LINE#         335
  C:83FCH         LINE#         336
  C:840EH         LINE#         339
  C:840EH         LINE#         340
  C:8417H         LINE#         341
  C:8417H         LINE#         342
  C:841AH         LINE#         343
  C:841FH         LINE#         344
  C:841FH         LINE#         345
  C:8427H         LINE#         346
  C:843AH         LINE#         347
  C:843AH         LINE#         348
  C:843DH         LINE#         349
  -------         ENDPROC       CMDGET
  C:73F9H         SYMBOL        L?0198
  C:7403H         SYMBOL        L?0207
  C:740FH         SYMBOL        L?0209
  -------         PROC          _CMDREAD
  X:36CEH         SYMBOL        argCmdBuf
  -------         DO            
  X:36D1H         SYMBOL        regAddr
  X:36D5H         SYMBOL        regType
  -------         DO            
  X:36D6H         SYMBOL        macOrPhy
  X:36D7H         SYMBOL        byteRegAddr
  -------         DO            
  X:36D8H         SYMBOL        regData
  -------         ENDDO         
  -------         ENDDO         
  -------         ENDDO         
  C:7211H         LINE#         352
  C:7217H         LINE#         353
  C:7217H         LINE#         357
  C:7231H         LINE#         361
  C:723FH         LINE#         362
  C:723FH         LINE#         363
BL51 BANKED LINKER/LOCATER V6.22                                                      01/10/2015  21:25:33  PAGE 58


  C:7255H         LINE#         365
  C:726BH         LINE#         366
  C:726EH         LINE#         369
  C:727CH         LINE#         370
  C:727CH         LINE#         371
  C:7293H         LINE#         373
  C:72A8H         LINE#         374
  C:72ABH         LINE#         377
  C:72BCH         LINE#         378
  C:72BCH         LINE#         382
  C:72D4H         LINE#         384
  C:72F7H         LINE#         388
  C:7306H         LINE#         389
  C:7306H         LINE#         390
  C:731CH         LINE#         391
  C:731FH         LINE#         394
  C:732FH         LINE#         395
  C:732FH         LINE#         397
  C:73A0H         LINE#         399
  C:73A2H         LINE#         402
  C:73B2H         LINE#         403
  C:73B2H         LINE#         406
  C:73D4H         LINE#         407
  C:73D4H         LINE#         408
  C:73EFH         LINE#         409
  C:73F1H         LINE#         412
  C:73F1H         LINE#         413
  C:73F8H         LINE#         414
  C:73F8H         LINE#         415
  C:73F8H         LINE#         417
  C:73F8H         LINE#         418
  -------         ENDPROC       _CMDREAD
  C:7601H         SYMBOL        L?0199
  C:7615H         SYMBOL        L?0210
  -------         PROC          _CMDWRITE
  X:36CEH         SYMBOL        argCmdBuf
  -------         DO            
  X:36D1H         SYMBOL        regAddr
  X:36D5H         SYMBOL        regType
  -------         DO            
  X:36D6H         SYMBOL        regData
  X:36D6H         SYMBOL        regData
  -------         ENDDO         
  -------         DO            
  X:36D6H         SYMBOL        regData
  -------         ENDDO         
  -------         DO            
  X:36D6H         SYMBOL        macOrPhy
  X:36D7H         SYMBOL        byteRegAddr
  -------         DO            
  X:36D8H         SYMBOL        regData
  X:36D8H         SYMBOL        regData
  -------         ENDDO         
  -------         DO            
  X:36D8H         SYMBOL        regData
  -------         ENDDO         
  -------         ENDDO         
BL51 BANKED LINKER/LOCATER V6.22                                                      01/10/2015  21:25:33  PAGE 59


  -------         ENDDO         
  C:741AH         LINE#         420
  C:7420H         LINE#         421
  C:7420H         LINE#         425
  C:743AH         LINE#         429
  C:7448H         LINE#         430
  C:7448H         LINE#         432
  C:7468H         LINE#         434
  C:747DH         LINE#         435
  C:7498H         LINE#         437
  C:749BH         LINE#         439
  C:74A9H         LINE#         440
  C:74A9H         LINE#         442
  C:74C9H         LINE#         444
  C:74D6H         LINE#         445
  C:74EDH         LINE#         446
  C:74F0H         LINE#         450
  C:7501H         LINE#         451
  C:7501H         LINE#         456
  C:751CH         LINE#         458
  C:753CH         LINE#         462
  C:754CH         LINE#         463
  C:754CH         LINE#         465
  C:7565H         LINE#         467
  C:757BH         LINE#         468
  C:758EH         LINE#         469
  C:7591H         LINE#         472
  C:75A1H         LINE#         473
  C:75A1H         LINE#         475
  C:75BAH         LINE#         478
  C:75DCH         LINE#         479
  C:75DCH         LINE#         480
  C:75F7H         LINE#         481
  C:75F9H         LINE#         484
  C:75F9H         LINE#         485
  C:7600H         LINE#         486
  C:7600H         LINE#         488
  C:7600H         LINE#         489
  C:7600H         LINE#         491
  -------         ENDPROC       _CMDWRITE
  -------         PROC          _CMDSPI
  X:36CEH         SYMBOL        argCmdBuf
  -------         DO            
  X:36D1H         SYMBOL        spi_addr
  X:36D3H         SYMBOL        spi_data
  X:36D5H         SYMBOL        action
  -------         ENDDO         
  C:7E38H         LINE#         493
  C:7E3EH         LINE#         494
  C:7E3EH         LINE#         499
  C:7E58H         LINE#         501
  C:7E58H         LINE#         503
  C:7E66H         LINE#         504
  C:7E66H         LINE#         505
  C:7E93H         LINE#         506
  C:7E93H         LINE#         508
  C:7E93H         LINE#         510
BL51 BANKED LINKER/LOCATER V6.22                                                      01/10/2015  21:25:33  PAGE 60


  C:7EA4H         LINE#         512
  C:7EA4H         LINE#         513
  C:7EA6H         LINE#         514
  C:7EB4H         LINE#         515
  C:7EB4H         LINE#         516
  C:7ED2H         LINE#         517
  C:7ED2H         LINE#         519
  C:7ED2H         LINE#         521
  C:7EE5H         LINE#         523
  C:7F0CH         LINE#         524
  C:7F0CH         LINE#         525
  -------         ENDPROC       _CMDSPI
  -------         PROC          CMDHELP
  -------         DO            
  D:0004H         SYMBOL        hwVer
  -------         ENDDO         
  C:94E0H         LINE#         527
  C:94E0H         LINE#         528
  C:94E0H         LINE#         529
  C:94EBH         LINE#         531
  -------         ENDPROC       CMDHELP
  -------         PROC          CMDRUN
  -------         DO            
  X:36A8H         SYMBOL        tmpCmdBuf
  -------         DO            
  X:36C6H         SYMBOL        ntb1
  X:36CAH         SYMBOL        ntb2
  X:36C6H         SYMBOL        bcnStatus
  -------         ENDDO         
  -------         DO            
  X:36C6H         SYMBOL        bcnStatus
  -------         ENDDO         
  -------         ENDDO         
  C:668DH         LINE#         553
  C:668DH         LINE#         554
  C:668DH         LINE#         557
  C:6696H         LINE#         558
  C:6699H         LINE#         560
  C:66E9H         LINE#         561
  C:66E9H         LINE#         562
  C:66E9H         LINE#         563
  C:66E9H         LINE#         564
  C:66ECH         LINE#         565
  C:66ECH         LINE#         567
  C:66ECH         LINE#         568
  C:66ECH         LINE#         569
  C:66EFH         LINE#         570
  C:66F1H         LINE#         572
  C:66F1H         LINE#         573
  C:66F1H         LINE#         575
  C:66F7H         LINE#         576
  C:66F7H         LINE#         578
  C:66F7H         LINE#         579
  C:66F7H         LINE#         580
  C:66FDH         LINE#         581
  C:66FDH         LINE#         583
  C:66FDH         LINE#         584
BL51 BANKED LINKER/LOCATER V6.22                                                      01/10/2015  21:25:33  PAGE 61


  C:66FDH         LINE#         585
  C:6703H         LINE#         586
  C:6703H         LINE#         588
  C:6703H         LINE#         589
  C:6703H         LINE#         590
  C:6709H         LINE#         591
  C:6709H         LINE#         593
  C:6709H         LINE#         594
  C:6709H         LINE#         595
  C:670FH         LINE#         596
  C:670FH         LINE#         598
  C:670FH         LINE#         599
  C:670FH         LINE#         600
  C:6715H         LINE#         601
  C:6715H         LINE#         604
  C:6715H         LINE#         605
  C:6715H         LINE#         607
  C:671EH         LINE#         609
  C:671EH         LINE#         617
  C:671EH         LINE#         618
  C:671EH         LINE#         619
  C:671EH         LINE#         621
  C:676CH         LINE#         622
  C:6777H         LINE#         623
  C:67C5H         LINE#         626
  C:67C5H         LINE#         627
  C:67C5H         LINE#         629
  C:67C5H         LINE#         630
  C:67C5H         LINE#         631
  C:67CBH         LINE#         632
  C:67CBH         LINE#         635
  C:67CFH         LINE#         637
  C:67CFH         LINE#         638
  C:67E3H         LINE#         639
  C:67EAH         LINE#         640
  C:683EH         LINE#         641
  C:6841H         LINE#         643
  C:6841H         LINE#         644
  C:68FBH         LINE#         645
  C:68FBH         LINE#         646
  C:68FBH         LINE#         648
  C:68FBH         LINE#         649
  C:68FBH         LINE#         651
  C:68FBH         LINE#         652
  C:68FEH         LINE#         653
  C:68FEH         LINE#         654
  -------         ENDPROC       CMDRUN
  -------         PROC          LHTM_INIT
  C:9764H         LINE#         657
  C:9764H         LINE#         658
  C:9764H         LINE#         660
  C:9769H         LINE#         662
  C:976BH         LINE#         663
  -------         ENDPROC       LHTM_INIT
  -------         PROC          LHTM_TASK
  C:9782H         LINE#         665
  C:9782H         LINE#         667
BL51 BANKED LINKER/LOCATER V6.22                                                      01/10/2015  21:25:33  PAGE 62


  C:9782H         LINE#         668
  C:9785H         LINE#         669
  -------         ENDPROC       LHTM_TASK
  -------         PROC          READ_FLASHPROFILE
  C:9721H         LINE#         675
  C:9721H         LINE#         676
  C:9721H         LINE#         680
  C:9727H         LINE#         681
  C:9731H         LINE#         684
  -------         ENDPROC       READ_FLASHPROFILE
  -------         PROC          GREEN_MAIN
  C:942BH         LINE#         692
  C:942BH         LINE#         698
  C:942EH         LINE#         703
  C:9431H         LINE#         704
  C:9434H         LINE#         707
  C:9437H         LINE#         709
  C:943AH         LINE#         713
  C:943DH         LINE#         717
  C:9440H         LINE#         728
  C:9443H         LINE#         729
  C:9446H         LINE#         732
  C:9449H         LINE#         735
  C:9449H         LINE#         736
  C:9449H         LINE#         740
  C:944CH         LINE#         747
  C:944FH         LINE#         753
  -------         ENDPROC       GREEN_MAIN
  -------         ENDMOD        HAL_MAIN

  -------         MODULE        FM
  C:0000H         SYMBOL        _ICE_DUMMY_
  B:00A8H.7       PUBLIC        EA
  X:4685H         PUBLIC        FmDebug
 C0:C017H         PUBLIC        _FM_HexDump
 C0:CD58H         PUBLIC        _FM_setdebug
 C0:CC94H         PUBLIC        _FM_Printf
 C0:CCCDH         SYMBOL        Com0017
 C0:CCCDH         SYMBOL        L?0024
 C0:CCCDH         SYMBOL        L?0025
 C0:CCCEH         SYMBOL        L?0026
 C0:CCD6H         SYMBOL        L?0027
 C0:CCE5H         SYMBOL        L?0028
 C0:CCE6H         SYMBOL        L?0029
 C0:CCEFH         SYMBOL        L?0030
 C0:CCEFH         SYMBOL        L?0031
 C0:CCF7H         SYMBOL        L?0032
  -------         PROC          COM0017
  -------         ENDPROC       COM0017

  -------         PROC BANK=0   _FM_SETDEBUG
  D:0007H         SYMBOL        debug
 C0:CD58H         LINE#         18
 C0:CD58H         LINE#         19
 C0:CD58H         LINE#         20
 C0:CD5EH         LINE#         21
 C0:CD5EH         LINE#         22
BL51 BANKED LINKER/LOCATER V6.22                                                      01/10/2015  21:25:33  PAGE 63


 C0:CD65H         LINE#         23
 C0:CD66H         LINE#         25
 C0:CD66H         LINE#         26
 C0:CD6DH         LINE#         27
 C0:CD6DH         LINE#         29
  -------         ENDPROC       _FM_SETDEBUG

  -------         PROC BANK=0   _FM_PRINTF
  D:0006H         SYMBOL        dbgLevel
  X:3B93H         SYMBOL        fmt
  -------         DO            
  X:3B96H         SYMBOL        ellipsis_40
  X:3BBEH         SYMBOL        args
  -------         ENDDO         
 C0:CC94H         LINE#         31
 C0:CC9BH         LINE#         32
 C0:CC9BH         LINE#         34
 C0:CC9DH         LINE#         35
 C0:CCABH         LINE#         37
 C0:CCB5H         LINE#         38
 C0:CCB5H         LINE#         39
 C0:CCCAH         LINE#         40
 C0:CCCAH         LINE#         42
 C0:CCCCH         LINE#         43
  -------         ENDPROC       _FM_PRINTF
 C0:C10CH         SYMBOL        L?0022
 C0:C123H         SYMBOL        L?0033

  -------         PROC BANK=0   _FM_HEXDUMP
  D:0006H         SYMBOL        dbgLevel
  X:3AECH         SYMBOL        title
  X:3AEFH         SYMBOL        buf
  X:3AF2H         SYMBOL        len
  -------         DO            
  X:3AF4H         SYMBOL        i
  X:3AF6H         SYMBOL        j
  X:3AF8H         SYMBOL        offset
  -------         ENDDO         
 C0:C017H         LINE#         46
 C0:C01EH         LINE#         47
 C0:C01EH         LINE#         52
 C0:C02BH         LINE#         55
 C0:C037H         LINE#         56
 C0:C039H         LINE#         57
 C0:C062H         LINE#         59
 C0:C07FH         LINE#         60
 C0:C098H         LINE#         62
 C0:C0ACH         LINE#         66
 C0:C0AFH         LINE#         67
 C0:C0B9H         LINE#         68
 C0:C0CAH         LINE#         69
 C0:C0D3H         LINE#         70
 C0:C0F2H         LINE#         72
 C0:C106H         LINE#         76
 C0:C109H         LINE#         77
 C0:C10BH         LINE#         78
  -------         ENDPROC       _FM_HEXDUMP
BL51 BANKED LINKER/LOCATER V6.22                                                      01/10/2015  21:25:33  PAGE 64


  -------         ENDMOD        FM

  -------         MODULE        LIST
  C:0000H         SYMBOL        _ICE_DUMMY_
  C:8B29H         PUBLIC        _DLIST_Push
  C:9301H         PUBLIC        _SLIST_Init
  C:8830H         PUBLIC        _SLIST_Push
  C:8A61H         PUBLIC        _DLIST_Put
  C:8731H         PUBLIC        _SLIST_Pop
  C:8993H         PUBLIC        _SLIST_Put
  C:8C9AH         PUBLIC        _DLIST_Remove
  C:8B8CH         PUBLIC        _SLIST_Remove
  C:8921H         PUBLIC        _SLIST_Add
  C:9525H         SYMBOL        Com0019
  C:9525H         SYMBOL        L?0026
  C:9525H         SYMBOL        L?0027
  C:9528H         SYMBOL        L?0028
  C:9531H         SYMBOL        L?0029
  C:9531H         SYMBOL        L?0030
  C:953AH         SYMBOL        L?0031
  C:953AH         SYMBOL        L?0032
  C:9540H         SYMBOL        L?0033
  C:9540H         SYMBOL        L?0034
  -------         PROC          COM0019
  -------         ENDPROC       COM0019
  -------         PROC          _SLIST_INIT
  X:390FH         SYMBOL        list
  C:9301H         LINE#         21
  C:9307H         LINE#         22
  C:9307H         LINE#         23
  C:9319H         LINE#         24
  C:932EH         LINE#         26
  -------         ENDPROC       _SLIST_INIT
  -------         PROC          _SLIST_PUSH
  X:4620H         SYMBOL        list
  X:4623H         SYMBOL        link
  C:8830H         LINE#         29
  C:8836H         LINE#         30
  C:8836H         LINE#         31
  C:8844H         LINE#         32
  C:8844H         LINE#         34
  C:8859H         LINE#         35
  C:8871H         LINE#         36
  C:887DH         LINE#         37
  C:887FH         LINE#         39
  C:887FH         LINE#         40
  C:8897H         LINE#         41
  C:88ACH         LINE#         42
  C:88ACH         LINE#         44
  -------         ENDPROC       _SLIST_PUSH
  -------         PROC          _SLIST_PUT
  X:4626H         SYMBOL        list
  X:4629H         SYMBOL        link
  C:8993H         LINE#         48
  C:8999H         LINE#         49
  C:8999H         LINE#         50
  C:89AAH         LINE#         51
BL51 BANKED LINKER/LOCATER V6.22                                                      01/10/2015  21:25:33  PAGE 65


  C:89AAH         LINE#         53
  C:89B9H         LINE#         54
  C:89B9H         LINE#         55
  C:89B9H         LINE#         56
  C:89BBH         LINE#         58
  C:89BBH         LINE#         60
  C:89D0H         LINE#         61
  C:89E8H         LINE#         62
  C:89FAH         LINE#         63
  C:89FAH         LINE#         65
  -------         ENDPROC       _SLIST_PUT
  -------         PROC          _SLIST_ADD
  X:45CAH         SYMBOL        list
  X:45CDH         SYMBOL        prelink
  X:45D0H         SYMBOL        link
  C:8921H         LINE#         70
  C:8927H         LINE#         71
  C:8927H         LINE#         72
  C:893DH         LINE#         73
  C:8952H         LINE#         74
  C:897AH         LINE#         75
  C:897AH         LINE#         76
  C:8992H         LINE#         77
  C:8992H         LINE#         78
  -------         ENDPROC       _SLIST_ADD
  -------         PROC          _SLIST_REMOVE
  X:45D3H         SYMBOL        list
  X:45D6H         SYMBOL        prelink
  X:45D9H         SYMBOL        link
  C:8B8CH         LINE#         82
  C:8B92H         LINE#         83
  C:8B92H         LINE#         84
  C:8BAAH         LINE#         85
  C:8BD2H         LINE#         86
  C:8BD2H         LINE#         87
  C:8BEAH         LINE#         88
  C:8BEAH         LINE#         89
  -------         ENDPROC       _SLIST_REMOVE
  -------         PROC          _SLIST_POP
  X:462CH         SYMBOL        list
  -------         DO            
  X:462FH         SYMBOL        link
  -------         ENDDO         
  C:8731H         LINE#         94
  C:8737H         LINE#         95
  C:8737H         LINE#         96
  C:8740H         LINE#         97
  C:8768H         LINE#         99
  C:8768H         LINE#         101
  C:877AH         LINE#         102
  C:878FH         LINE#         104
  C:8791H         LINE#         106
  C:8791H         LINE#         107
  C:87ACH         LINE#         109
  C:87ACH         LINE#         111
  C:87B2H         LINE#         112
  -------         ENDPROC       _SLIST_POP
BL51 BANKED LINKER/LOCATER V6.22                                                      01/10/2015  21:25:33  PAGE 66


  -------         PROC          _DLIST_PUSH
  X:4632H         SYMBOL        list
  X:4635H         SYMBOL        link
  C:8B29H         LINE#         123
  C:8B2FH         LINE#         124
  C:8B2FH         LINE#         125
  C:8B48H         LINE#         126
  C:8B60H         LINE#         127
  C:8B76H         LINE#         128
  C:8B8BH         LINE#         129
  -------         ENDPROC       _DLIST_PUSH
  -------         PROC          _DLIST_PUT
  X:4638H         SYMBOL        list
  X:463BH         SYMBOL        link
  C:8A61H         LINE#         139
  C:8A67H         LINE#         140
  C:8A67H         LINE#         141
  C:8A82H         LINE#         142
  C:8A9AH         LINE#         143
  C:8AADH         LINE#         144
  C:8AC5H         LINE#         145
  -------         ENDPROC       _DLIST_PUT
  -------         PROC          _DLIST_REMOVE
  X:4674H         SYMBOL        link
  C:8C9AH         LINE#         153
  C:8CA0H         LINE#         154
  C:8CA0H         LINE#         155
  C:8CB8H         LINE#         156
  C:8CCDH         LINE#         157
  C:8CDCH         LINE#         158
  C:8CEEH         LINE#         159
  -------         ENDPROC       _DLIST_REMOVE
  -------         ENDMOD        LIST

  -------         MODULE        UTILS
  C:0000H         SYMBOL        _ICE_DUMMY_
  C:8578H         PUBLIC        _mac_utils_cmd_get
  C:95C3H         PUBLIC        _mac_utils_spi_write
  C:926BH         PUBLIC        _mac_utils_cmd_spi_read
  C:9153H         PUBLIC        _mac_utils_byte_array_to_32_bit
  C:935DH         PUBLIC        _mac_utils_32_bit_to_byte_array
  C:9732H         PUBLIC        _mac_utils_byte_array_to_16_bit
  C:9759H         PUBLIC        _mac_utils_16_bit_to_byte_array
  C:932FH         PUBLIC        _mac_utils_byte_array_to_64_bit
  C:8E15H         PUBLIC        mac_utils_64_bit_to_byte_array
  C:8FE5H         PUBLIC        _mac_utils_cmd_spi_write
  C:92D2H         PUBLIC        _crc_ccitt_update
  X:0400H         SYMBOL        reg_400
  X:0401H         SYMBOL        reg_401
  X:0402H         SYMBOL        reg_402
  X:0403H         SYMBOL        reg_403
  X:0404H         SYMBOL        reg_404
  X:0405H         SYMBOL        reg_405
  X:0406H         SYMBOL        reg_406
  X:0407H         SYMBOL        reg_407
  C:9673H         SYMBOL        _mac_utils_afe_spi_enable
  C:8E5CH         PUBLIC        _mac_utils_cmd_read
BL51 BANKED LINKER/LOCATER V6.22                                                      01/10/2015  21:25:33  PAGE 67


  X:043CH         SYMBOL        reg_43c
  X:043DH         SYMBOL        reg_43d
  X:043EH         SYMBOL        reg_43e
  C:8D3BH         PUBLIC        _mac_utils_cmd_write
  X:043FH         SYMBOL        reg_43f
  C:93DEH         PUBLIC        _mac_utils_spi_read
  C:929FH         PUBLIC        _mac_utils_delay_ms
  C:8235H         SYMBOL        Com0036
  C:8235H         SYMBOL        L?0055
  C:823AH         SYMBOL        L?0056
  C:8251H         SYMBOL        L?0057
  C:8264H         SYMBOL        L?0058
  C:8265H         SYMBOL        L?0059
  C:826CH         SYMBOL        L?0060
  C:826CH         SYMBOL        L?0061
  C:827CH         SYMBOL        L?0062
  C:827CH         SYMBOL        L?0063
  C:8289H         SYMBOL        L?0064
  C:8289H         SYMBOL        L?0065
  C:828CH         SYMBOL        L?0066
  C:8294H         SYMBOL        L?0067
  C:82A9H         SYMBOL        L?0068
  C:82A9H         SYMBOL        L?0069
  C:82B2H         SYMBOL        L?0070
  C:82B9H         SYMBOL        L?0071
  C:82C1H         SYMBOL        L?0072
  C:82CEH         SYMBOL        L?0073
  C:82D9H         SYMBOL        L?0074
  C:82E3H         SYMBOL        L?0075
  -------         PROC          COM0036
  -------         ENDPROC       COM0036
  -------         PROC          _CRC_CCITT_UPDATE
  X:4687H         SYMBOL        crc
  D:0005H         SYMBOL        data_byte
  C:92D2H         LINE#         22
  C:92DAH         LINE#         23
  C:92DAH         LINE#         24
  C:92DCH         LINE#         25
  C:92E1H         LINE#         28
  C:9300H         LINE#         29
  -------         ENDPROC       _CRC_CCITT_UPDATE
  -------         PROC          _MAC_UTILS_16_BIT_TO_BYTE_ARRAY
  D:0006H         SYMBOL        value
  D:0001H         SYMBOL        array_p
  C:9759H         LINE#         32
  C:9759H         LINE#         33
  C:9759H         LINE#         34
  C:975DH         LINE#         35
  -------         ENDPROC       _MAC_UTILS_16_BIT_TO_BYTE_ARRAY
  -------         PROC          _MAC_UTILS_32_BIT_TO_BYTE_ARRAY
  X:45EDH         SYMBOL        value
  X:45F1H         SYMBOL        array_p
  -------         DO            
  X:45F4H         SYMBOL        index
  -------         ENDDO         
  C:935DH         LINE#         39
  C:9369H         LINE#         40
BL51 BANKED LINKER/LOCATER V6.22                                                      01/10/2015  21:25:33  PAGE 68


  C:9369H         LINE#         41
  C:936CH         LINE#         43
  C:9375H         LINE#         44
  C:937BH         LINE#         45
  C:9387H         LINE#         46
  C:9389H         LINE#         47
  -------         ENDPROC       _MAC_UTILS_32_BIT_TO_BYTE_ARRAY
  -------         PROC          MAC_UTILS_64_BIT_TO_BYTE_ARRAY
  X:4580H         SYMBOL        value
  X:4588H         SYMBOL        array_p
  -------         DO            
  X:458BH         SYMBOL        index
  -------         ENDDO         
  C:8E15H         LINE#         53
  C:8E15H         LINE#         54
  C:8E15H         LINE#         55
  C:8E1AH         LINE#         57
  C:8E23H         LINE#         58
  C:8E29H         LINE#         59
  C:8E35H         LINE#         60
  C:8E37H         LINE#         61
  C:8E40H         LINE#         62
  C:8E4DH         LINE#         63
  C:8E59H         LINE#         64
  C:8E5BH         LINE#         65
  -------         ENDPROC       MAC_UTILS_64_BIT_TO_BYTE_ARRAY
  -------         PROC          _MAC_UTILS_BYTE_ARRAY_TO_16_BIT
  D:0001H         SYMBOL        data_p
  C:9732H         LINE#         74
  C:9732H         LINE#         75
  C:9732H         LINE#         76
  C:973FH         LINE#         77
  -------         ENDPROC       _MAC_UTILS_BYTE_ARRAY_TO_16_BIT
  -------         PROC          _MAC_UTILS_BYTE_ARRAY_TO_32_BIT
  X:4605H         SYMBOL        data_p
  -------         DO            
  X:4608H         SYMBOL        long_addr
  D:0007H         SYMBOL        index
  -------         ENDDO         
  C:9153H         LINE#         86
  C:9159H         LINE#         87
  C:9159H         LINE#         95
  C:915BH         LINE#         96
  C:917BH         LINE#         97
  C:917DH         LINE#         99
  C:918BH         LINE#         100
  -------         ENDPROC       _MAC_UTILS_BYTE_ARRAY_TO_32_BIT
  -------         PROC          _MAC_UTILS_BYTE_ARRAY_TO_64_BIT
  X:458CH         SYMBOL        data_p
  -------         DO            
  X:458FH         SYMBOL        index
  X:4590H         SYMBOL        value
  -------         ENDDO         
  C:932FH         LINE#         109
  C:9335H         LINE#         110
  C:9335H         LINE#         111
  C:9338H         LINE#         114
BL51 BANKED LINKER/LOCATER V6.22                                                      01/10/2015  21:25:33  PAGE 69


  C:9341H         LINE#         115
  C:9356H         LINE#         117
  C:935CH         LINE#         118
  -------         ENDPROC       _MAC_UTILS_BYTE_ARRAY_TO_64_BIT
  -------         PROC          _MAC_UTILS_DELAY_MS
  D:0006H         SYMBOL        ms
  -------         DO            
  D:0004H         SYMBOL        i
  -------         DO            
  X:39E7H         SYMBOL        c1
  -------         ENDDO         
  -------         ENDDO         
  C:929FH         LINE#         126
  C:929FH         LINE#         127
  C:929FH         LINE#         130
  C:92A9H         LINE#         132
  C:92CAH         LINE#         133
  C:92D1H         LINE#         134
  -------         ENDPROC       _MAC_UTILS_DELAY_MS
  -------         PROC          _MAC_UTILS_AFE_SPI_ENABLE
  D:0007H         SYMBOL        enable
  -------         DO            
  D:0006H         SYMBOL        value
  -------         ENDDO         
  C:9673H         LINE#         135
  C:9673H         LINE#         136
  C:9673H         LINE#         139
  C:9678H         LINE#         141
  C:967BH         LINE#         142
  C:967FH         LINE#         143
  C:9680H         LINE#         144
  C:9687H         LINE#         145
  C:9687H         LINE#         146
  -------         ENDPROC       _MAC_UTILS_AFE_SPI_ENABLE
  -------         PROC          _MAC_UTILS_SPI_READ
  D:0004H         SYMBOL        spi_addr
  -------         DO            
  D:0002H         SYMBOL        reg_data
  -------         ENDDO         
  C:93DEH         LINE#         147
  C:93E0H         LINE#         148
  C:93E0H         LINE#         149
  C:93E3H         LINE#         151
  C:93E7H         LINE#         152
  C:93E9H         LINE#         154
  C:93EEH         LINE#         156
  C:93F1H         LINE#         158
  C:93F1H         LINE#         160
  C:93F7H         LINE#         162
  C:93FCH         LINE#         164
  C:9400H         LINE#         166
  C:9404H         LINE#         167
  -------         ENDPROC       _MAC_UTILS_SPI_READ
  -------         PROC          _MAC_UTILS_SPI_WRITE
  D:0002H         SYMBOL        spi_addr
  D:0004H         SYMBOL        spi_data
  C:95C3H         LINE#         169
BL51 BANKED LINKER/LOCATER V6.22                                                      01/10/2015  21:25:33  PAGE 70


  C:95C5H         LINE#         170
  C:95C5H         LINE#         171
  C:95CBH         LINE#         172
  C:95CBH         LINE#         174
  C:95D0H         LINE#         176
  C:95D5H         LINE#         177
  C:95D6H         LINE#         179
  C:95D6H         LINE#         181
  C:95DCH         LINE#         182
  -------         ENDPROC       _MAC_UTILS_SPI_WRITE
  -------         PROC          _MAC_UTILS_CMD_SPI_WRITE
  D:0001H         SYMBOL        cmd_buf_p
  -------         DO            
  X:465CH         SYMBOL        spi_addr
  X:465EH         SYMBOL        spi_data
  -------         ENDDO         
  C:8FE5H         LINE#         212
  C:8FE5H         LINE#         213
  C:8FE5H         LINE#         217
  C:8FFFH         LINE#         219
  C:8FFFH         LINE#         221
  C:9010H         LINE#         223
  C:9023H         LINE#         224
  -------         ENDPROC       _MAC_UTILS_CMD_SPI_WRITE
  -------         PROC          _MAC_UTILS_CMD_SPI_READ
  D:0001H         SYMBOL        cmd_buf_p
  -------         DO            
  X:4689H         SYMBOL        spi_addr
  D:0006H         SYMBOL        spi_data
  -------         ENDDO         
  C:926BH         LINE#         226
  C:926BH         LINE#         227
  C:926BH         LINE#         231
  C:9280H         LINE#         233
  C:9280H         LINE#         235
  C:928BH         LINE#         237
  C:929EH         LINE#         238
  -------         ENDPROC       _MAC_UTILS_CMD_SPI_READ
  -------         PROC          _MAC_UTILS_CMD_GET
  X:4649H         SYMBOL        cmd_buf_p
  -------         DO            
  X:464CH         SYMBOL        c
  X:464DH         SYMBOL        idx
  -------         ENDDO         
  C:8578H         LINE#         240
  C:857EH         LINE#         241
  C:857EH         LINE#         243
  C:8583H         LINE#         244
  C:8583H         LINE#         245
  C:858BH         LINE#         247
  C:859FH         LINE#         248
  C:859FH         LINE#         249
  C:85A8H         LINE#         250
  C:85B1H         LINE#         251
  C:85B7H         LINE#         252
  C:85B7H         LINE#         253
  C:85B9H         LINE#         255
BL51 BANKED LINKER/LOCATER V6.22                                                      01/10/2015  21:25:33  PAGE 71


  C:85B9H         LINE#         256
  C:85B9H         LINE#         257
  C:85C1H         LINE#         258
  C:85CAH         LINE#         260
  C:85CAH         LINE#         262
  C:85CAH         LINE#         263
  C:85CAH         LINE#         264
  C:85D3H         LINE#         266
  C:85DCH         LINE#         267
  C:85E7H         LINE#         268
  C:85E9H         LINE#         271
  C:85E9H         LINE#         272
  C:85F3H         LINE#         273
  C:8605H         LINE#         274
  C:860FH         LINE#         275
  C:860FH         LINE#         276
  C:8612H         LINE#         277
  C:8612H         LINE#         278
  C:8612H         LINE#         279
  -------         ENDPROC       _MAC_UTILS_CMD_GET
  -------         PROC          _MAC_UTILS_CMD_READ
  D:0001H         SYMBOL        cmd_buf_p
  -------         DO            
  X:468BH         SYMBOL        reg_addr
  D:0006H         SYMBOL        reg_data
  -------         ENDDO         
  C:8E5CH         LINE#         281
  C:8E5CH         LINE#         282
  C:8E5CH         LINE#         286
  C:8E71H         LINE#         288
  C:8E71H         LINE#         290
  C:8E80H         LINE#         292
  C:8E9EH         LINE#         293
  -------         ENDPROC       _MAC_UTILS_CMD_READ
  -------         PROC          _MAC_UTILS_CMD_WRITE
  D:0001H         SYMBOL        cmd_buf_p
  -------         DO            
  X:4660H         SYMBOL        reg_addr
  X:4662H         SYMBOL        reg_data
  -------         ENDDO         
  C:8D3BH         LINE#         295
  C:8D3BH         LINE#         296
  C:8D3BH         LINE#         300
  C:8D56H         LINE#         302
  C:8D56H         LINE#         304
  C:8D5EH         LINE#         306
  C:8D71H         LINE#         308
  C:8D84H         LINE#         309
  -------         ENDPROC       _MAC_UTILS_CMD_WRITE
  -------         ENDMOD        UTILS

  -------         MODULE        ISM
  C:0000H         SYMBOL        _ICE_DUMMY_
  C:9547H         PUBLIC        _ISM_RegisterIntHandler
  B:00A8H.7       PUBLIC        EA
  C:5C1FH         PUBLIC        ISM_PollInt
  C:978DH         PUBLIC        ISM_EnableIntPolling
BL51 BANKED LINKER/LOCATER V6.22                                                      01/10/2015  21:25:33  PAGE 72


  X:40AAH         PUBLIC        goldntb1
  X:40AEH         SYMBOL        Ism
  X:418EH         PUBLIC        discBcnTxCnt
  C:82EDH         PUBLIC        _ISM_DisableMacIrq
  C:938AH         PUBLIC        checkSPITxDone
  C:80A4H         PUBLIC        _ISM_EnableMacIrq
  C:84DBH         PUBLIC        _ISM_DisableCpuIrq
  C:9476H         PUBLIC        _ISM_UnregisterIntrHandler
  C:978AH         PUBLIC        ISM_EnableInterrupts
  X:418FH         PUBLIC        gpio_int
  C:970FH         PUBLIC        ISM_Init
  C:843EH         PUBLIC        _ISM_EnableCpuIrq
  C:7AA4H         SYMBOL        Com0080
  C:7AA4H         SYMBOL        L?0129
  C:7AA7H         SYMBOL        L?0130
  C:7AB2H         SYMBOL        L?0131
  C:7ADFH         SYMBOL        L?0132
  C:7AEBH         SYMBOL        L?0133
  C:7AEEH         SYMBOL        L?0134
  C:7AEFH         SYMBOL        L?0135
  C:7AFAH         SYMBOL        L?0136
  C:7AFAH         SYMBOL        L?0137
  C:7B07H         SYMBOL        L?0138
  C:7B07H         SYMBOL        L?0139
  C:7B14H         SYMBOL        L?0140
  C:7B15H         SYMBOL        L?0141
  C:7B20H         SYMBOL        L?0142
  C:7B2FH         SYMBOL        L?0143
  C:7B3EH         SYMBOL        L?0144
  C:7B4DH         SYMBOL        L?0145
  C:7B5CH         SYMBOL        L?0146
  C:7B6AH         SYMBOL        L?0147
  C:7B79H         SYMBOL        L?0148
  C:7B79H         SYMBOL        L?0149
  C:7B80H         SYMBOL        L?0150
  C:7B8DH         SYMBOL        L?0151
  C:7B9AH         SYMBOL        L?0152
  -------         PROC          COM0080
  -------         ENDPROC       COM0080
  -------         PROC          _ISM_ENABLECPUIRQ
  D:0007H         SYMBOL        irq
  C:843EH         LINE#         93
  C:843EH         LINE#         94
  C:843EH         LINE#         95
  C:8447H         LINE#         99
  C:8473H         LINE#         100
  C:8473H         LINE#         101
  C:8473H         LINE#         102
  C:847AH         LINE#         103
  C:847CH         LINE#         104
  C:847CH         LINE#         105
  C:8483H         LINE#         106
  C:8485H         LINE#         107
  C:8485H         LINE#         108
  C:8488H         LINE#         109
  C:848AH         LINE#         110
  C:848AH         LINE#         111
BL51 BANKED LINKER/LOCATER V6.22                                                      01/10/2015  21:25:33  PAGE 73


  C:848DH         LINE#         112
  C:848FH         LINE#         113
  C:848FH         LINE#         114
  C:8492H         LINE#         115
  C:8494H         LINE#         116
  C:8494H         LINE#         117
  C:849BH         LINE#         118
  C:849DH         LINE#         119
  C:849DH         LINE#         120
  C:84A4H         LINE#         121
  C:84A6H         LINE#         122
  C:84A6H         LINE#         123
  C:84A9H         LINE#         124
  C:84ABH         LINE#         125
  C:84ABH         LINE#         126
  C:84B2H         LINE#         127
  C:84B4H         LINE#         128
  C:84B4H         LINE#         129
  C:84BBH         LINE#         130
  C:84BDH         LINE#         131
  C:84BDH         LINE#         132
  C:84C4H         LINE#         133
  C:84C6H         LINE#         134
  C:84C6H         LINE#         135
  C:84CDH         LINE#         136
  C:84CDH         LINE#         137
  C:84CDH         LINE#         139
  C:84CDH         LINE#         140
  C:84DAH         LINE#         141
  -------         ENDPROC       _ISM_ENABLECPUIRQ
  -------         PROC          _ISM_DISABLECPUIRQ
  D:0007H         SYMBOL        irq
  C:84DBH         LINE#         144
  C:84DBH         LINE#         145
  C:84DBH         LINE#         146
  C:84E4H         LINE#         150
  C:8510H         LINE#         151
  C:8510H         LINE#         152
  C:8510H         LINE#         153
  C:8517H         LINE#         154
  C:8519H         LINE#         155
  C:8519H         LINE#         156
  C:8520H         LINE#         157
  C:8522H         LINE#         158
  C:8522H         LINE#         159
  C:8525H         LINE#         160
  C:8527H         LINE#         161
  C:8527H         LINE#         162
  C:852AH         LINE#         163
  C:852CH         LINE#         164
  C:852CH         LINE#         165
  C:852FH         LINE#         166
  C:8531H         LINE#         167
  C:8531H         LINE#         168
  C:8538H         LINE#         169
  C:853AH         LINE#         170
  C:853AH         LINE#         171
BL51 BANKED LINKER/LOCATER V6.22                                                      01/10/2015  21:25:33  PAGE 74


  C:8541H         LINE#         172
  C:8543H         LINE#         173
  C:8543H         LINE#         174
  C:8546H         LINE#         175
  C:8548H         LINE#         176
  C:8548H         LINE#         177
  C:854FH         LINE#         178
  C:8551H         LINE#         179
  C:8551H         LINE#         180
  C:8558H         LINE#         181
  C:855AH         LINE#         182
  C:855AH         LINE#         183
  C:8561H         LINE#         184
  C:8563H         LINE#         185
  C:8563H         LINE#         186
  C:856AH         LINE#         187
  C:856AH         LINE#         188
  C:856AH         LINE#         190
  C:856AH         LINE#         191
  C:8577H         LINE#         192
  -------         ENDPROC       _ISM_DISABLECPUIRQ
  -------         PROC          _ISM_ENABLEMACIRQ
  D:0007H         SYMBOL        irq
  C:80A4H         LINE#         198
  C:80A4H         LINE#         199
  C:80A4H         LINE#         200
  C:80ADH         LINE#         203
  C:80B2H         LINE#         204
  C:80B2H         LINE#         207
  C:80BCH         LINE#         209
  C:80C3H         LINE#         210
  C:80C6H         LINE#         211
  C:80C9H         LINE#         212
  C:80CCH         LINE#         213
  C:80D1H         LINE#         215
  C:80D1H         LINE#         216
  C:80D3H         LINE#         217
  C:80DCH         LINE#         218
  C:80DCH         LINE#         220
  C:810FH         LINE#         221
  C:810FH         LINE#         222
  C:810FH         LINE#         223
  C:8112H         LINE#         224
  C:8114H         LINE#         225
  C:8114H         LINE#         227
  C:8114H         LINE#         231
  C:8114H         LINE#         232
  C:8117H         LINE#         233
  C:8119H         LINE#         234
  C:8119H         LINE#         235
  C:8120H         LINE#         236
  C:8122H         LINE#         237
  C:8122H         LINE#         238
  C:8129H         LINE#         239
  C:812BH         LINE#         240
  C:812BH         LINE#         241
  C:8132H         LINE#         242
BL51 BANKED LINKER/LOCATER V6.22                                                      01/10/2015  21:25:33  PAGE 75


  C:8134H         LINE#         243
  C:8134H         LINE#         244
  C:813BH         LINE#         245
  C:813DH         LINE#         246
  C:813DH         LINE#         247
  C:8144H         LINE#         248
  C:8146H         LINE#         249
  C:8146H         LINE#         250
  C:814DH         LINE#         251
  C:814FH         LINE#         252
  C:814FH         LINE#         253
  C:8156H         LINE#         254
  C:8158H         LINE#         255
  C:8158H         LINE#         256
  C:815FH         LINE#         257
  C:815FH         LINE#         258
  C:815FH         LINE#         260
  C:815FH         LINE#         261
  C:815FH         LINE#         263
  C:816CH         LINE#         264
  -------         ENDPROC       _ISM_ENABLEMACIRQ
  -------         PROC          _ISM_DISABLEMACIRQ
  D:0007H         SYMBOL        irq
  C:82EDH         LINE#         267
  C:82EDH         LINE#         268
  C:82EDH         LINE#         269
  C:82F6H         LINE#         272
  C:82FAH         LINE#         273
  C:82FAH         LINE#         275
  C:8304H         LINE#         276
  C:8307H         LINE#         277
  C:8310H         LINE#         278
  C:8310H         LINE#         280
  C:8343H         LINE#         281
  C:8343H         LINE#         282
  C:8343H         LINE#         283
  C:8346H         LINE#         284
  C:8348H         LINE#         285
  C:8348H         LINE#         287
  C:8348H         LINE#         291
  C:8348H         LINE#         292
  C:834BH         LINE#         293
  C:834DH         LINE#         294
  C:834DH         LINE#         295
  C:8354H         LINE#         296
  C:8356H         LINE#         297
  C:8356H         LINE#         298
  C:835DH         LINE#         299
  C:835FH         LINE#         300
  C:835FH         LINE#         301
  C:8366H         LINE#         302
  C:8368H         LINE#         303
  C:8368H         LINE#         304
  C:836FH         LINE#         305
  C:8371H         LINE#         306
  C:8371H         LINE#         307
  C:8378H         LINE#         308
BL51 BANKED LINKER/LOCATER V6.22                                                      01/10/2015  21:25:33  PAGE 76


  C:837AH         LINE#         309
  C:837AH         LINE#         310
  C:8381H         LINE#         311
  C:8383H         LINE#         312
  C:8383H         LINE#         313
  C:838AH         LINE#         314
  C:838CH         LINE#         315
  C:838CH         LINE#         316
  C:8393H         LINE#         317
  C:8393H         LINE#         318
  C:8393H         LINE#         320
  C:8393H         LINE#         321
  C:8393H         LINE#         323
  C:83A0H         LINE#         324
  -------         ENDPROC       _ISM_DISABLEMACIRQ
  -------         PROC          ISM_ENABLEINTERRUPTS
  C:978AH         LINE#         327
  C:978AH         LINE#         328
  C:978AH         LINE#         350
  C:978CH         LINE#         369
  -------         ENDPROC       ISM_ENABLEINTERRUPTS
  -------         PROC          CHECKSPITXDONE
  -------         DO            
  X:39E7H         SYMBOL        intStatus
  -------         ENDDO         
  C:938AH         LINE#         388
  C:938AH         LINE#         389
  C:938AH         LINE#         392
  C:938CH         LINE#         394
  C:9398H         LINE#         396
  C:939AH         LINE#         399
  C:93A1H         LINE#         400
  C:93A1H         LINE#         401
  C:93B1H         LINE#         404
  C:93B4H         LINE#         405
  C:93B4H         LINE#         406
  C:93B6H         LINE#         408
  -------         ENDPROC       CHECKSPITXDONE
  -------         PROC          ISM_POLLINT
  -------         DO            
  X:390FH         SYMBOL        scheduleFrameTask
  X:3910H         SYMBOL        intStatus
  X:3914H         SYMBOL        PlcMedInterruptReg
  X:3918H         SYMBOL        bankSelReg
  X:391CH         SYMBOL        dbc_pattern
  X:3920H         SYMBOL        postBpstdiff
  X:3924H         SYMBOL        ntb1
  X:3928H         SYMBOL        diff
  -------         ENDDO         
  C:5C1FH         LINE#         415
  C:5C1FH         LINE#         417
  C:5C1FH         LINE#         423
  C:5C24H         LINE#         458
  C:5C30H         LINE#         469
  C:5C30H         LINE#         471
  C:5C30H         LINE#         474
  C:5C30H         LINE#         475
BL51 BANKED LINKER/LOCATER V6.22                                                      01/10/2015  21:25:33  PAGE 77


  C:5C39H         LINE#         477
  C:5C3BH         LINE#         479
  C:5C47H         LINE#         492
  C:5C9EH         LINE#         496
  C:5C9EH         LINE#         502
  C:5CABH         LINE#         503
  C:5CABH         LINE#         505
  C:5CAEH         LINE#         508
  C:5CAEH         LINE#         511
  C:5CBAH         LINE#         512
  C:5CBAH         LINE#         515
  C:5CC7H         LINE#         516
  C:5CC7H         LINE#         524
  C:5CCAH         LINE#         525
  C:5CCAH         LINE#         526
  C:5CCAH         LINE#         529
  C:5CD1H         LINE#         530
  C:5CD1H         LINE#         531
  C:5CD4H         LINE#         533
  C:5CD7H         LINE#         537
  C:5CE1H         LINE#         539
  C:5CE1H         LINE#         541
  C:5CE8H         LINE#         542
  C:5CE8H         LINE#         543
  C:5CF2H         LINE#         544
  C:5CF2H         LINE#         575
  C:5CF9H         LINE#         576
  C:5CF9H         LINE#         579
  C:5D02H         LINE#         586
  C:5D02H         LINE#         588
  C:5D09H         LINE#         589
  C:5D09H         LINE#         594
  C:5D0CH         LINE#         629
  C:5D0CH         LINE#         630
  C:5D16H         LINE#         631
  C:5D16H         LINE#         635
  C:5D6DH         LINE#         636
  C:5D89H         LINE#         637
  C:5D93H         LINE#         640
  C:5D9CH         LINE#         642
  C:5D9CH         LINE#         646
  C:5DB1H         LINE#         647
  C:5DB1H         LINE#         649
  C:5E15H         LINE#         650
  C:5E1AH         LINE#         651
  C:5E24H         LINE#         652
  C:5E29H         LINE#         653
  C:5E29H         LINE#         655
  C:5E3FH         LINE#         656
  C:5E45H         LINE#         657
  C:5E45H         LINE#         658
  C:5E6FH         LINE#         660
  C:5E71H         LINE#         661
  C:5E7AH         LINE#         662
  C:5E7AH         LINE#         663
  C:5E9AH         LINE#         665
  C:5E9CH         LINE#         667
BL51 BANKED LINKER/LOCATER V6.22                                                      01/10/2015  21:25:33  PAGE 78


  C:5E9CH         LINE#         668
  C:5EB5H         LINE#         669
  C:5EB5H         LINE#         671
  C:5F3BH         LINE#         672
  C:5F3BH         LINE#         673
  C:5F49H         LINE#         674
  C:5F49H         LINE#         675
  C:5F5CH         LINE#         676
  C:5F5CH         LINE#         677
  C:5F68H         LINE#         703
  C:5F7BH         LINE#         705
  C:5F7BH         LINE#         706
  C:5F85H         LINE#         712
  C:5F8AH         LINE#         725
  C:5F8AH         LINE#         753
  C:5F8AH         LINE#         754
  C:5F97H         LINE#         755
  C:5F97H         LINE#         756
  C:5F97H         LINE#         779
  C:5F9EH         LINE#         780
  C:5F9EH         LINE#         785
  C:5FA1H         LINE#         787
  C:5FA4H         LINE#         791
  C:5FA4H         LINE#         793
  C:5FABH         LINE#         794
  C:5FABH         LINE#         796
  C:5FAEH         LINE#         797
  C:5FAEH         LINE#         798
  C:5FB5H         LINE#         799
  C:5FB5H         LINE#         801
  C:5FB8H         LINE#         803
  C:5FBBH         LINE#         804
  C:5FBBH         LINE#         809
  C:5FC0H         LINE#         810
  C:5FC0H         LINE#         813
  C:5FC0H         LINE#         816
  C:5FC7H         LINE#         817
  C:5FC7H         LINE#         819
  C:5FCAH         LINE#         824
  C:5FCDH         LINE#         825
  C:5FCDH         LINE#         828
  C:5FD2H         LINE#         829
  C:5FD2H         LINE#         831
  C:5FD2H         LINE#         832
  C:5FD9H         LINE#         833
  C:5FD9H         LINE#         835
  C:5FDCH         LINE#         841
  C:5FDCH         LINE#         1095
  C:5FDCH         LINE#         1097
  C:5FDCH         LINE#         1099
  C:5FDCH         LINE#         1100
  C:5FE5H         LINE#         1103
  C:5FE7H         LINE#         1109
  C:5FEAH         LINE#         1115
  C:5FF0H         LINE#         1116
  C:5FF0H         LINE#         1119
  C:5FF5H         LINE#         1121
BL51 BANKED LINKER/LOCATER V6.22                                                      01/10/2015  21:25:33  PAGE 79


  C:5FF5H         LINE#         1133
  C:6002H         LINE#         1135
  C:6005H         LINE#         1141
  -------         ENDPROC       ISM_POLLINT
  -------         PROC          ISM_ENABLEINTPOLLING
  C:978DH         LINE#         1144
  C:978DH         LINE#         1145
  C:978DH         LINE#         1149
  -------         ENDPROC       ISM_ENABLEINTPOLLING
  -------         PROC          ISM_INIT
  C:970FH         LINE#         1152
  C:970FH         LINE#         1153
  C:970FH         LINE#         1154
  C:971EH         LINE#         1163
  C:9720H         LINE#         1164
  -------         ENDPROC       ISM_INIT
  -------         PROC          _ISM_REGISTERINTHANDLER
  D:0007H         SYMBOL        intIrq
  X:460DH         SYMBOL        intHdlr
  X:4610H         SYMBOL        cookie
  C:9547H         LINE#         1166
  C:9547H         LINE#         1169
  C:9547H         LINE#         1170
  C:9547H         LINE#         1172
  C:954DH         LINE#         1173
  C:954DH         LINE#         1177
  C:9563H         LINE#         1178
  C:9566H         LINE#         1179
  C:9566H         LINE#         1181
  C:9566H         LINE#         1182
  C:9568H         LINE#         1183
  C:9568H         LINE#         1184
  -------         ENDPROC       _ISM_REGISTERINTHANDLER
  -------         PROC          _ISM_UNREGISTERINTRHANDLER
  D:0007H         SYMBOL        intIrq
  C:9476H         LINE#         1188
  C:9476H         LINE#         1189
  C:9476H         LINE#         1190
  C:947CH         LINE#         1191
  C:947CH         LINE#         1192
  C:9490H         LINE#         1193
  C:9499H         LINE#         1194
  C:9499H         LINE#         1195
  -------         ENDPROC       _ISM_UNREGISTERINTRHANDLER
  -------         ENDMOD        ISM

  -------         MODULE        HAL_HPGPRX
  C:0000H         SYMBOL        _ICE_DUMMY_
  X:43D8H         PUBLIC        gflag
  X:43D9H         PUBLIC        misscnt
  X:43DDH         PUBLIC        gpbcscorrect
  X:43DEH         PUBLIC        u32CSMARegs
  X:43F6H         PUBLIC        gsnid
 C0:B433H         PUBLIC        _HAL_beaconRxHandler
 C0:AFCEH         PUBLIC        _HHAL_RxIntHandler
 C0:CD84H         PUBLIC        HHAL_BcnRxTimeoutIntHandler
 C0:CB57H         PUBLIC        _HAL_SetCsmaRegions
BL51 BANKED LINKER/LOCATER V6.22                                                      01/10/2015  21:25:33  PAGE 80


 C0:CD6EH         PUBLIC        HHAL_RxSoundIntHandler
  X:43FAH         PUBLIC        gbcnstart
 C0:C32FH         PUBLIC        HHAL_BcnRxIntHandler
  X:43FBH         PUBLIC        debugcnt
 C0:B604H         PUBLIC        _HHAL_ProcBcnLow
 C0:B7B1H         PUBLIC        _CHAL_ReadFrame
 C0:C22FH         PUBLIC        _process_region
  X:43FFH         PUBLIC        csmaRegArr
  X:4417H         PUBLIC        gvalid
 C0:B957H         SYMBOL        Com0063
 C0:B957H         SYMBOL        L?0100
 C0:B973H         SYMBOL        L?0101
 C0:B976H         SYMBOL        L?0102
 C0:B984H         SYMBOL        L?0103
 C0:B987H         SYMBOL        L?0104
 C0:B98AH         SYMBOL        L?0105
 C0:B990H         SYMBOL        L?0106
 C0:B993H         SYMBOL        L?0107
 C0:B996H         SYMBOL        L?0108
 C0:B99CH         SYMBOL        L?0109
 C0:B9A7H         SYMBOL        L?0110
 C0:B9AFH         SYMBOL        L?0111
 C0:B9B9H         SYMBOL        L?0112
 C0:B9C6H         SYMBOL        L?0113
 C0:B9E6H         SYMBOL        L?0114
 C0:B9F0H         SYMBOL        L?0115
 C0:B9F9H         SYMBOL        L?0116
 C0:BA00H         SYMBOL        L?0117
 C0:BA0BH         SYMBOL        L?0118
 C0:BA13H         SYMBOL        L?0119
 C0:BA1CH         SYMBOL        L?0120
 C0:BA1FH         SYMBOL        L?0121
 C0:BA2AH         SYMBOL        L?0122
 C0:BA2AH         SYMBOL        L?0123
 C0:BA2DH         SYMBOL        L?0124
 C0:BA33H         SYMBOL        L?0125
 C0:BA3AH         SYMBOL        L?0126
 C0:BA3CH         SYMBOL        L?0127
 C0:BA42H         SYMBOL        L?0128
 C0:BA42H         SYMBOL        L?0129
 C0:BA43H         SYMBOL        L?0130
 C0:BA49H         SYMBOL        L?0131
 C0:BA4EH         SYMBOL        L?0132
 C0:BA54H         SYMBOL        L?0133
 C0:BA57H         SYMBOL        L?0134
 C0:BA5DH         SYMBOL        L?0135
 C0:BA5DH         SYMBOL        L?0136
 C0:BA63H         SYMBOL        L?0138
 C0:BA70H         SYMBOL        L?0139
 C0:BA7EH         SYMBOL        L?0140
 C0:BA8AH         SYMBOL        L?0141
 C0:BA8DH         SYMBOL        L?0142
 C0:BA93H         SYMBOL        L?0143
 C0:BA93H         SYMBOL        L?0144
 C0:BA99H         SYMBOL        L?0145
 C0:BA9BH         SYMBOL        L?0146
 C0:BAA1H         SYMBOL        L?0147
BL51 BANKED LINKER/LOCATER V6.22                                                      01/10/2015  21:25:33  PAGE 81


 C0:BAADH         SYMBOL        L?0148
 C0:BAB9H         SYMBOL        L?0149
 C0:BAC0H         SYMBOL        L?0150
 C0:BACCH         SYMBOL        L?0151
 C0:BAD4H         SYMBOL        L?0152
 C0:BAD4H         SYMBOL        L?0153
 C0:BADBH         SYMBOL        L?0154
 C0:BADBH         SYMBOL        L?0155
 C0:BAE2H         SYMBOL        L?0156
 C0:BAE2H         SYMBOL        L?0157
 C0:BAE9H         SYMBOL        L?0158
 C0:BAF2H         SYMBOL        L?0159
 C0:BAF2H         SYMBOL        L?0160
  -------         PROC          COM0063
  -------         ENDPROC       COM0063

  -------         PROC BANK=0   _CHAL_READFRAME
  X:451CH         SYMBOL        hal
  X:451FH         SYMBOL        rxFrmSwDesc
  X:4522H         SYMBOL        buffDesc
  -------         DO            
  D:0006H         SYMBOL        cellAddr
  X:4525H         SYMBOL        frmOffset
  X:4526H         SYMBOL        i
  X:4527H         SYMBOL        frmLen
  X:4529H         SYMBOL        cellLen
  X:452BH         SYMBOL        dataptr
  X:452EH         SYMBOL        hpgpHdr
  X:4531H         SYMBOL        ret
  -------         ENDDO         
 C0:B7B1H         LINE#         95
 C0:B7B7H         LINE#         98
 C0:B7B7H         LINE#         100
 C0:B7BAH         LINE#         102
 C0:B7CDH         LINE#         104
 C0:B7D3H         LINE#         105
 C0:B7D9H         LINE#         106
 C0:B7DCH         LINE#         118
 C0:B7E8H         LINE#         119
 C0:B7E8H         LINE#         121
 C0:B7FCH         LINE#         122
 C0:B7FCH         LINE#         125
 C0:B80FH         LINE#         126
 C0:B823H         LINE#         128
 C0:B854H         LINE#         132
 C0:B863H         LINE#         134
 C0:B868H         LINE#         136
 C0:B891H         LINE#         137
 C0:B891H         LINE#         138
 C0:B8A5H         LINE#         139
 C0:B8DDH         LINE#         140
 C0:B8EEH         LINE#         141
 C0:B8FFH         LINE#         142
 C0:B922H         LINE#         143
 C0:B927H         LINE#         144
 C0:B92BH         LINE#         145
 C0:B92EH         LINE#         150
BL51 BANKED LINKER/LOCATER V6.22                                                      01/10/2015  21:25:33  PAGE 82


 C0:B951H         LINE#         151
 C0:B956H         LINE#         152
  -------         ENDPROC       _CHAL_READFRAME

  -------         PROC BANK=0   HHAL_RXSOUNDINTHANDLER
  -------         DO            
  X:4664H         SYMBOL        rssiLqi
  -------         ENDDO         
 C0:CD6EH         LINE#         645
 C0:CD6EH         LINE#         646
 C0:CD6EH         LINE#         649
  -------         ENDPROC       HHAL_RXSOUNDINTHANDLER
 C0:B23BH         SYMBOL        L?0137

  -------         PROC BANK=0   _HHAL_RXINTHANDLER
  X:39ABH         SYMBOL        pRxFrmDesc
  -------         DO            
  X:39AEH         SYMBOL        cellAddr
  X:39B0H         SYMBOL        pRxPktQ1stDesc
  X:39B3H         SYMBOL        pRxPktQCPDesc
  X:39B6H         SYMBOL        rssiLqi
  X:39BAH         SYMBOL        plcRxFrmSwDesc
  X:39F7H         SYMBOL        frmLen
  X:39F9H         SYMBOL        tmpfrmLen
  D:0005H         SYMBOL        snid
  D:0004H         SYMBOL        stei
  X:39FBH         SYMBOL        ssn
  D:0005H         SYMBOL        i
  X:39FDH         SYMBOL        status
  X:39FEH         SYMBOL        ethHdr
  -------         ENDDO         
 C0:AFCEH         LINE#         659
 C0:AFD4H         LINE#         663
 C0:AFD4H         LINE#         680
 C0:AFD8H         LINE#         716
 C0:AFE1H         LINE#         717
 C0:AFEDH         LINE#         719
 C0:AFFFH         LINE#         720
 C0:B00AH         LINE#         721
 C0:B017H         LINE#         722
 C0:B021H         LINE#         724
 C0:B02BH         LINE#         725
 C0:B03AH         LINE#         726
 C0:B047H         LINE#         729
 C0:B056H         LINE#         730
 C0:B05CH         LINE#         731
 C0:B06AH         LINE#         733
 C0:B073H         LINE#         734
 C0:B082H         LINE#         736
 C0:B08FH         LINE#         773
 C0:B0A0H         LINE#         774
 C0:B0A5H         LINE#         776
 C0:B0B3H         LINE#         777
 C0:B0DEH         LINE#         801
 C0:B0EAH         LINE#         802
 C0:B101H         LINE#         803
 C0:B104H         LINE#         804
BL51 BANKED LINKER/LOCATER V6.22                                                      01/10/2015  21:25:33  PAGE 83


 C0:B10AH         LINE#         806
 C0:B111H         LINE#         807
 C0:B111H         LINE#         808
 C0:B11DH         LINE#         810
 C0:B129H         LINE#         811
 C0:B129H         LINE#         812
 C0:B132H         LINE#         813
 C0:B134H         LINE#         814
 C0:B13EH         LINE#         815
 C0:B13EH         LINE#         816
 C0:B144H         LINE#         817
 C0:B146H         LINE#         819
 C0:B146H         LINE#         820
 C0:B14AH         LINE#         821
 C0:B14AH         LINE#         822
 C0:B14CH         LINE#         823
 C0:B151H         LINE#         824
 C0:B151H         LINE#         828
 C0:B155H         LINE#         829
 C0:B161H         LINE#         834
 C0:B16AH         LINE#         836
 C0:B16CH         LINE#         838
 C0:B16CH         LINE#         839
 C0:B178H         LINE#         840
 C0:B178H         LINE#         849
 C0:B189H         LINE#         851
 C0:B198H         LINE#         853
 C0:B1A4H         LINE#         854
 C0:B1A6H         LINE#         855
 C0:B1B3H         LINE#         858
 C0:B1BDH         LINE#         860
 C0:B1C9H         LINE#         861
 C0:B1C9H         LINE#         862
 C0:B1EFH         LINE#         863
 C0:B1FFH         LINE#         864
 C0:B202H         LINE#         884
 C0:B208H         LINE#         886
 C0:B208H         LINE#         887
 C0:B216H         LINE#         888
 C0:B219H         LINE#         889
 C0:B21BH         LINE#         891
 C0:B21BH         LINE#         892
 C0:B228H         LINE#         894
 C0:B228H         LINE#         903
 C0:B228H         LINE#         908
 C0:B22BH         LINE#         911
 C0:B22BH         LINE#         912
 C0:B22DH         LINE#         914
 C0:B22DH         LINE#         915
 C0:B230H         LINE#         916
 C0:B230H         LINE#         917
 C0:B230H         LINE#         939
 C0:B237H         LINE#         940
 C0:B237H         LINE#         941
 C0:B23AH         LINE#         942
 C0:B23AH         LINE#         943
  -------         ENDPROC       _HHAL_RXINTHANDLER
BL51 BANKED LINKER/LOCATER V6.22                                                      01/10/2015  21:25:33  PAGE 84



  -------         PROC BANK=0   HHAL_BCNRXINTHANDLER
  -------         DO            
  X:4190H         SYMBOL        rxBcnWordArr
  X:4240H         SYMBOL        prxBcnWordArr
  X:4243H         SYMBOL        rxBcnByteArr
  X:4246H         SYMBOL        i
  D:0007H         SYMBOL        u8val
  X:4247H         SYMBOL        bcnDataOffset
  X:4248H         SYMBOL        plcStatus
  X:424CH         SYMBOL        pRxBcnHdr
  -------         ENDDO         
 C0:C32FH         LINE#         948
 C0:C32FH         LINE#         949
 C0:C32FH         LINE#         952
 C0:C335H         LINE#         959
 C0:C33CH         LINE#         960
 C0:C33CH         LINE#         961
 C0:C342H         LINE#         962
 C0:C344H         LINE#         964
 C0:C344H         LINE#         965
 C0:C349H         LINE#         966
 C0:C349H         LINE#         969
 C0:C34CH         LINE#         970
 C0:C358H         LINE#         972
 C0:C36FH         LINE#         973
 C0:C37BH         LINE#         974
 C0:C382H         LINE#         977
 C0:C382H         LINE#         979
 C0:C387H         LINE#         980
 C0:C387H         LINE#         981
 C0:C399H         LINE#         982
 C0:C3A3H         LINE#         984
 C0:C3A7H         LINE#         985
 C0:C3A9H         LINE#         986
 C0:C3AAH         LINE#         988
 C0:C3B3H         LINE#         991
 C0:C3C4H         LINE#         992
 C0:C3C4H         LINE#         993
 C0:C3C4H         LINE#         994
 C0:C3C7H         LINE#         995
 C0:C3CAH         LINE#         997
 C0:C3D7H         LINE#         998
 C0:C3D7H         LINE#         999
 C0:C3DAH         LINE#         1000
 C0:C3DAH         LINE#         1002
 C0:C3DCH         LINE#         1004
 C0:C3DCH         LINE#         1005
 C0:C3E2H         LINE#         1006
 C0:C3E8H         LINE#         1007
 C0:C3E8H         LINE#         1009
 C0:C3F4H         LINE#         1010
 C0:C3F4H         LINE#         1011
 C0:C3FAH         LINE#         1012
 C0:C3FAH         LINE#         1013
 C0:C400H         LINE#         1014
 C0:C400H         LINE#         1015
BL51 BANKED LINKER/LOCATER V6.22                                                      01/10/2015  21:25:33  PAGE 85


 C0:C400H         LINE#         1017
 C0:C407H         LINE#         1018
 C0:C407H         LINE#         1019
 C0:C413H         LINE#         1021
 C0:C413H         LINE#         1024
 C0:C416H         LINE#         1025
 C0:C421H         LINE#         1026
  -------         ENDPROC       HHAL_BCNRXINTHANDLER

  -------         PROC BANK=0   _HAL_SETCSMAREGIONS
  D:0001H         SYMBOL        regionArr
  -------         DO            
  D:0001H         SYMBOL        pCSMARgn
  X:3A25H         SYMBOL        i
  -------         ENDDO         
 C0:CB57H         LINE#         1028
 C0:CB57H         LINE#         1029
 C0:CB57H         LINE#         1031
 C0:CB5CH         LINE#         1033
 C0:CB5CH         LINE#         1036
 C0:CB66H         LINE#         1037
 C0:CB66H         LINE#         1038
 C0:CB7AH         LINE#         1039
 C0:CB7AH         LINE#         1040
 C0:CB7AH         LINE#         1042
 C0:CB80H         LINE#         1044
 C0:CB82H         LINE#         1046
 C0:CB82H         LINE#         1047
 C0:CB88H         LINE#         1050
 C0:CB8AH         LINE#         1052
 C0:CB8AH         LINE#         1053
 C0:CB90H         LINE#         1054
 C0:CB92H         LINE#         1056
 C0:CB92H         LINE#         1057
 C0:CB98H         LINE#         1058
 C0:CB9AH         LINE#         1060
 C0:CB9AH         LINE#         1061
 C0:CBA0H         LINE#         1062
 C0:CBA2H         LINE#         1064
 C0:CBA2H         LINE#         1065
 C0:CBABH         LINE#         1066
 C0:CBABH         LINE#         1067
 C0:CBABH         LINE#         1068
 C0:CBB1H         LINE#         1069
 C0:CBB8H         LINE#         1070
 C0:CBBAH         LINE#         1071
  -------         ENDPROC       _HAL_SETCSMAREGIONS

  -------         PROC BANK=0   _PROCESS_REGION
  D:0001H         SYMBOL        dataptr
  -------         DO            
  X:3A1AH         SYMBOL        pRgn
  X:3A1DH         SYMBOL        pCSMARgn
  X:3A20H         SYMBOL        i
  X:3A21H         SYMBOL        rgn_num
  X:3A22H         SYMBOL        start_time
  X:3A24H         SYMBOL        update
BL51 BANKED LINKER/LOCATER V6.22                                                      01/10/2015  21:25:33  PAGE 86


  D:0001H         SYMBOL        pRgns
  -------         ENDDO         
 C0:C22FH         LINE#         1073
 C0:C22FH         LINE#         1074
 C0:C22FH         LINE#         1081
 C0:C234H         LINE#         1087
 C0:C234H         LINE#         1088
 C0:C23DH         LINE#         1089
 C0:C24AH         LINE#         1092
 C0:C256H         LINE#         1093
 C0:C25FH         LINE#         1095
 C0:C266H         LINE#         1096
 C0:C26FH         LINE#         1097
 C0:C272H         LINE#         1099
 C0:C288H         LINE#         1100
 C0:C288H         LINE#         1102
 C0:C29DH         LINE#         1103
 C0:C29DH         LINE#         1104
 C0:C2A3H         LINE#         1106
 C0:C2AFH         LINE#         1108
 C0:C2B9H         LINE#         1110
 C0:C2C0H         LINE#         1111
 C0:C2C8H         LINE#         1112
 C0:C2D1H         LINE#         1113
 C0:C2D9H         LINE#         1115
 C0:C2E4H         LINE#         1116
 C0:C2F2H         LINE#         1117
 C0:C2FFH         LINE#         1121
 C0:C309H         LINE#         1122
 C0:C309H         LINE#         1124
 C0:C322H         LINE#         1126
 C0:C328H         LINE#         1127
 C0:C328H         LINE#         1139
 C0:C32EH         LINE#         1140
 C0:C32EH         LINE#         1141
  -------         ENDPROC       _PROCESS_REGION

  -------         PROC BANK=0   _HHAL_PROCBCNLOW
  X:39FBH         SYMBOL        bcn
  -------         DO            
  X:39FEH         SYMBOL        pRxBcnHdr
  X:3A01H         SYMBOL        pFrmCtrlBlk
  X:3A04H         SYMBOL        rxBcn
  X:3A07H         SYMBOL        pBcnHdr
  X:3A0AH         SYMBOL        pBeHdr
  X:3A0DH         SYMBOL        hm
  X:3A0EH         SYMBOL        reqDiscList
  X:3A0FH         SYMBOL        nbe
  X:3A10H         SYMBOL        dataptr
  X:3A13H         SYMBOL        macAddr
  X:3A16H         SYMBOL        bts
  -------         ENDDO         
 C0:B604H         LINE#         1146
 C0:B60AH         LINE#         1147
 C0:B60AH         LINE#         1151
 C0:B613H         LINE#         1152
 C0:B616H         LINE#         1154
BL51 BANKED LINKER/LOCATER V6.22                                                      01/10/2015  21:25:33  PAGE 87


 C0:B61BH         LINE#         1155
 C0:B61DH         LINE#         1156
 C0:B621H         LINE#         1157
 C0:B624H         LINE#         1160
 C0:B62AH         LINE#         1161
 C0:B630H         LINE#         1162
 C0:B639H         LINE#         1163
 C0:B648H         LINE#         1164
 C0:B654H         LINE#         1167
 C0:B65EH         LINE#         1168
 C0:B666H         LINE#         1169
 C0:B669H         LINE#         1171
 C0:B6CAH         LINE#         1172
 C0:B6DDH         LINE#         1174
 C0:B6E4H         LINE#         1191
 C0:B70BH         LINE#         1192
 C0:B70BH         LINE#         1193
 C0:B714H         LINE#         1194
 C0:B714H         LINE#         1195
 C0:B71AH         LINE#         1196
 C0:B72CH         LINE#         1197
 C0:B72CH         LINE#         1198
 C0:B72CH         LINE#         1199
 C0:B72CH         LINE#         1200
 C0:B735H         LINE#         1204
 C0:B737H         LINE#         1205
 C0:B737H         LINE#         1206
 C0:B737H         LINE#         1207
 C0:B737H         LINE#         1209
 C0:B748H         LINE#         1211
 C0:B768H         LINE#         1213
 C0:B768H         LINE#         1214
 C0:B776H         LINE#         1215
 C0:B77DH         LINE#         1216
 C0:B783H         LINE#         1217
 C0:B783H         LINE#         1218
 C0:B785H         LINE#         1219
 C0:B785H         LINE#         1220
 C0:B785H         LINE#         1221
 C0:B78BH         LINE#         1222
 C0:B78BH         LINE#         1224
 C0:B78BH         LINE#         1225
 C0:B78BH         LINE#         1226
 C0:B78BH         LINE#         1227
 C0:B78BH         LINE#         1228
 C0:B78BH         LINE#         1230
 C0:B79BH         LINE#         1231
 C0:B7A1H         LINE#         1232
 C0:B7A7H         LINE#         1233
 C0:B7AAH         LINE#         1234
 C0:B7B0H         LINE#         1235
 C0:B7B0H         LINE#         1237
  -------         ENDPROC       _HHAL_PROCBCNLOW
  -------         PROC          HHAL_BCNRXTIMEOUTINTHANDLER
 C0:CD84H         LINE#         1240
 C0:CD84H         LINE#         1241
 C0:CD84H         LINE#         1318
BL51 BANKED LINKER/LOCATER V6.22                                                      01/10/2015  21:25:33  PAGE 88


  -------         ENDPROC       HHAL_BCNRXTIMEOUTINTHANDLER

  -------         PROC BANK=0   _HAL_BEACONRXHANDLER
  X:392CH         SYMBOL        cookie
  -------         DO            
  X:392FH         SYMBOL        hhalCb
  X:3932H         SYMBOL        bcnHdr
  X:3935H         SYMBOL        rxBcnWordArr
  X:39E5H         SYMBOL        pFrmCtrlBlk
  X:39E8H         SYMBOL        prxBcnWordArr
  X:39EBH         SYMBOL        rxBcnByteArr
  X:39EEH         SYMBOL        i
  D:0007H         SYMBOL        u8val
  X:39EFH         SYMBOL        bts
  X:39F3H         SYMBOL        bcnDataOffset
  X:39F4H         SYMBOL        pRxBcnHdr
  X:39F7H         SYMBOL        plcStatus
  -------         ENDDO         
 C0:B433H         LINE#         1467
 C0:B439H         LINE#         1468
 C0:B439H         LINE#         1477
 C0:B445H         LINE#         1479
 C0:B450H         LINE#         1481
 C0:B456H         LINE#         1483
 C0:B45CH         LINE#         1492
 C0:B463H         LINE#         1493
 C0:B463H         LINE#         1494
 C0:B469H         LINE#         1495
 C0:B46BH         LINE#         1497
 C0:B46BH         LINE#         1498
 C0:B470H         LINE#         1499
 C0:B470H         LINE#         1503
 C0:B470H         LINE#         1505
 C0:B474H         LINE#         1506
 C0:B474H         LINE#         1509
 C0:B474H         LINE#         1510
 C0:B474H         LINE#         1512
 C0:B474H         LINE#         1531
 C0:B480H         LINE#         1535
 C0:B480H         LINE#         1537
 C0:B48FH         LINE#         1539
 C0:B49BH         LINE#         1541
 C0:B4A0H         LINE#         1542
 C0:B4A0H         LINE#         1543
 C0:B4B2H         LINE#         1544
 C0:B4BCH         LINE#         1546
 C0:B4C7H         LINE#         1547
 C0:B4D9H         LINE#         1549
 C0:B4E5H         LINE#         1551
 C0:B4F6H         LINE#         1554
 C0:B502H         LINE#         1555
 C0:B506H         LINE#         1556
 C0:B509H         LINE#         1557
 C0:B50AH         LINE#         1562
 C0:B511H         LINE#         1563
 C0:B511H         LINE#         1567
 C0:B51AH         LINE#         1572
BL51 BANKED LINKER/LOCATER V6.22                                                      01/10/2015  21:25:33  PAGE 89


 C0:B51AH         LINE#         1576
 C0:B52EH         LINE#         1577
 C0:B52EH         LINE#         1578
 C0:B52EH         LINE#         1579
 C0:B531H         LINE#         1580
 C0:B534H         LINE#         1582
 C0:B541H         LINE#         1583
 C0:B541H         LINE#         1584
 C0:B544H         LINE#         1586
 C0:B544H         LINE#         1589
 C0:B546H         LINE#         1591
 C0:B546H         LINE#         1592
 C0:B54CH         LINE#         1593
 C0:B552H         LINE#         1601
 C0:B552H         LINE#         1605
 C0:B55BH         LINE#         1610
 C0:B5B9H         LINE#         1611
 C0:B5C5H         LINE#         1613
 C0:B5C5H         LINE#         1615
 C0:B5D2H         LINE#         1616
 C0:B5DEH         LINE#         1617
 C0:B5EAH         LINE#         1618
 C0:B5F2H         LINE#         1619
 C0:B5F2H         LINE#         1641
 C0:B5F8H         LINE#         1670
 C0:B603H         LINE#         1672
  -------         ENDPROC       _HAL_BEACONRXHANDLER
  -------         ENDMOD        HAL_HPGPRX

  -------         MODULE        EHAL_TST
  C:0000H         SYMBOL        _ICE_DUMMY_
 C0:C422H         PUBLIC        _ETH_alloc1stCP
 C0:A9BDH         PUBLIC        _EHT_xmitData
 C0:CC58H         PUBLIC        _ETH_allocOneCP
  X:4471H         PUBLIC        testParams
  X:4492H         PUBLIC        stationType
  C:5000H         SYMBOL        _?ix1000
  C:5006H         SYMBOL        _?ix1001
  X:4493H         PUBLIC        numSlaves
  X:4494H         PUBLIC        ethDebugON
 C0:CA51H         PUBLIC        _EHT_CloseConn
 C0:BC84H         PUBLIC        _EHAL_CmdHALProcess
 C0:C6D7H         PUBLIC        _ETH_xmitCmdPkt
  X:4495H         PUBLIC        myStation
 C0:A000H         PUBLIC        _EHT_BasicTxRxMenu
 C0:A4E7H         PUBLIC        _EHT_SimulateTx
 C0:C5F3H         PUBLIC        _EHT_OpenConn
 C0:C50CH         PUBLIC        _EHT_testTxRxStations
  X:4496H         PUBLIC        ETH_TxRxTest
 C0:AD38H         SYMBOL        Com00FD
 C0:AD38H         SYMBOL        L?0254
 C0:AD45H         SYMBOL        L?0256
 C0:AD49H         SYMBOL        L?0257
 C0:AD4DH         SYMBOL        L?0258
 C0:AD54H         SYMBOL        L?0259
 C0:AD61H         SYMBOL        L?0261
 C0:AD6EH         SYMBOL        L?0264
BL51 BANKED LINKER/LOCATER V6.22                                                      01/10/2015  21:25:33  PAGE 90


 C0:AD7BH         SYMBOL        L?0265
 C0:ADB3H         SYMBOL        L?0267
 C0:ADB8H         SYMBOL        L?0268
 C0:ADBBH         SYMBOL        L?0269
 C0:ADC1H         SYMBOL        L?0270
 C0:ADECH         SYMBOL        L?0271
 C0:ADF0H         SYMBOL        L?0272
 C0:ADF2H         SYMBOL        L?0273
 C0:ADF8H         SYMBOL        L?0274
 C0:AE05H         SYMBOL        L?0275
 C0:AE11H         SYMBOL        L?0276
 C0:AE18H         SYMBOL        L?0277
 C0:AE1EH         SYMBOL        L?0278
 C0:AE27H         SYMBOL        L?0279
 C0:AE27H         SYMBOL        L?0280
 C0:AE2AH         SYMBOL        L?0281
 C0:AE31H         SYMBOL        L?0282
 C0:AE34H         SYMBOL        L?0283
 C0:AE37H         SYMBOL        L?0284
 C0:AE3DH         SYMBOL        L?0286
 C0:AE40H         SYMBOL        L?0287
 C0:AE4EH         SYMBOL        L?0289
 C0:AE53H         SYMBOL        L?0290
 C0:AE5AH         SYMBOL        L?0292
 C0:AE6DH         SYMBOL        L?0293
 C0:AE78H         SYMBOL        L?0294
 C0:AE7BH         SYMBOL        L?0295
 C0:AE82H         SYMBOL        L?0296
 C0:AE8EH         SYMBOL        L?0297
 C0:AE95H         SYMBOL        L?0298
 C0:AEA2H         SYMBOL        L?0299
 C0:AEA2H         SYMBOL        L?0300
 C0:AEADH         SYMBOL        L?0301
 C0:AEBFH         SYMBOL        L?0302
 C0:AEC1H         SYMBOL        L?0303
 C0:AEC9H         SYMBOL        L?0304
 C0:AEC9H         SYMBOL        L?0305
 C0:AECFH         SYMBOL        L?0306
 C0:AECFH         SYMBOL        L?0307
 C0:AED9H         SYMBOL        L?0308
 C0:AEE8H         SYMBOL        L?0309
 C0:AEF7H         SYMBOL        L?0310
 C0:AF05H         SYMBOL        L?0311
 C0:AF0FH         SYMBOL        L?0312
 C0:AF1DH         SYMBOL        L?0314
 C0:AF1DH         SYMBOL        L?0315
 C0:AF23H         SYMBOL        L?0316
 C0:AF30H         SYMBOL        L?0317
 C0:AF3DH         SYMBOL        L?0318
 C0:AF3DH         SYMBOL        L?0319
 C0:AF43H         SYMBOL        L?0321
 C0:AF4BH         SYMBOL        L?0322
 C0:AF57H         SYMBOL        L?0323
 C0:AF62H         SYMBOL        L?0324
 C0:AF6AH         SYMBOL        L?0325
 C0:AF6CH         SYMBOL        L?0326
 C0:AF72H         SYMBOL        L?0328
BL51 BANKED LINKER/LOCATER V6.22                                                      01/10/2015  21:25:33  PAGE 91


 C0:AF7CH         SYMBOL        L?0329
 C0:AF7DH         SYMBOL        L?0330
 C0:AF83H         SYMBOL        L?0331
 C0:AF8AH         SYMBOL        L?0332
 C0:AF8AH         SYMBOL        L?0333
 C0:AF91H         SYMBOL        L?0334
 C0:AF91H         SYMBOL        L?0335
 C0:AF97H         SYMBOL        L?0336
 C0:AFA1H         SYMBOL        L?0337
 C0:AFA1H         SYMBOL        L?0338
 C0:AFA8H         SYMBOL        L?0339
 C0:AFA8H         SYMBOL        L?0340
 C0:AFAEH         SYMBOL        L?0341
 C0:AFAEH         SYMBOL        L?0342
 C0:AFB4H         SYMBOL        L?0343
 C0:AFBEH         SYMBOL        L?0344
 C0:AFBEH         SYMBOL        L?0345
 C0:AFC4H         SYMBOL        L?0346
  -------         PROC          COM00FD
  -------         ENDPROC       COM00FD
 C0:A9B4H         SYMBOL        L?0320

  -------         PROC BANK=0   _EHT_SIMULATETX
  X:376EH         SYMBOL        pTestParams
  -------         DO            
  X:3771H         SYMBOL        tmpFrmLen
  X:3773H         SYMBOL        minFrmLen
  X:3775H         SYMBOL        maxFrmLen
  X:3777H         SYMBOL        curFrmLen
  X:3779H         SYMBOL        curOffsetDW
  X:377AH         SYMBOL        curDescLen
  X:377BH         SYMBOL        status
  X:377CH         SYMBOL        i
  X:377DH         SYMBOL        j
  X:377EH         SYMBOL        quit
  -------         DO            
  X:377FH         SYMBOL        ethTxFrmSwDesc
  X:37BCH         SYMBOL        pEth2Hdr
  X:37BFH         SYMBOL        eth2Hdr
  X:37CDH         SYMBOL        ethHdrArr
  X:37D0H         SYMBOL        ethHdrLenSoFar
  X:37D1H         SYMBOL        ethHdrLenCurCP
  X:37D2H         SYMBOL        frmData
  -------         DO            
  X:37D3H         SYMBOL        cp
  X:37D4H         SYMBOL        cellAddr
  X:37D6H         SYMBOL        tmpOffsetDW
  X:37D7H         SYMBOL        tmpOffsetByte
  X:37D8H         SYMBOL        tmpDescLen
  X:37D9H         SYMBOL        actualDescLen
  -------         ENDDO         
  -------         DO            
  X:37D3H         SYMBOL        delay64ticks
  -------         DO            
  X:37D7H         SYMBOL        userInput
  -------         ENDDO         
  -------         ENDDO         
BL51 BANKED LINKER/LOCATER V6.22                                                      01/10/2015  21:25:33  PAGE 92


  -------         ENDDO         
  -------         ENDDO         
 C0:A4E7H         LINE#         67
 C0:A4EDH         LINE#         68
 C0:A4EDH         LINE#         80
 C0:A4F2H         LINE#         81
 C0:A4F8H         LINE#         82
 C0:A4FCH         LINE#         85
 C0:A506H         LINE#         86
 C0:A506H         LINE#         87
 C0:A50EH         LINE#         88
 C0:A515H         LINE#         89
 C0:A51BH         LINE#         90
 C0:A52AH         LINE#         91
 C0:A52CH         LINE#         93
 C0:A52CH         LINE#         95
 C0:A538H         LINE#         96
 C0:A538H         LINE#         98
 C0:A541H         LINE#         99
 C0:A548H         LINE#         100
 C0:A552H         LINE#         101
 C0:A55CH         LINE#         104
 C0:A55CH         LINE#         105
 C0:A55CH         LINE#         113
 C0:A567H         LINE#         114
 C0:A56EH         LINE#         115
 C0:A572H         LINE#         116
 C0:A57DH         LINE#         117
 C0:A580H         LINE#         119
 C0:A58CH         LINE#         120
 C0:A592H         LINE#         121
 C0:A5A1H         LINE#         122
 C0:A5B0H         LINE#         123
 C0:A5BEH         LINE#         129
 C0:A5D3H         LINE#         130
 C0:A5D3H         LINE#         138
 C0:A5D8H         LINE#         141
 C0:A5D8H         LINE#         142
 C0:A5E6H         LINE#         143
 C0:A5ECH         LINE#         144
 C0:A5ECH         LINE#         146
 C0:A5F2H         LINE#         147
 C0:A5F4H         LINE#         148
 C0:A5F4H         LINE#         149
 C0:A5FAH         LINE#         150
 C0:A602H         LINE#         152
 C0:A60BH         LINE#         153
 C0:A60BH         LINE#         154
 C0:A60BH         LINE#         155
 C0:A60BH         LINE#         157
 C0:A60FH         LINE#         158
 C0:A612H         LINE#         160
 C0:A61CH         LINE#         161
 C0:A61CH         LINE#         162
 C0:A627H         LINE#         163
 C0:A627H         LINE#         164
 C0:A62DH         LINE#         165
BL51 BANKED LINKER/LOCATER V6.22                                                      01/10/2015  21:25:33  PAGE 93


 C0:A632H         LINE#         170
 C0:A637H         LINE#         171
 C0:A63AH         LINE#         172
 C0:A63DH         LINE#         173
 C0:A63DH         LINE#         174
 C0:A644H         LINE#         175
 C0:A64CH         LINE#         176
 C0:A65AH         LINE#         178
 C0:A65AH         LINE#         179
 C0:A65AH         LINE#         180
 C0:A65CH         LINE#         182
 C0:A65CH         LINE#         183
 C0:A661H         LINE#         184
 C0:A667H         LINE#         185
 C0:A667H         LINE#         187
 C0:A671H         LINE#         188
 C0:A696H         LINE#         189
 C0:A6A7H         LINE#         190
 C0:A6A7H         LINE#         191
 C0:A6D0H         LINE#         193
 C0:A6D0H         LINE#         195
 C0:A6E8H         LINE#         198
 C0:A6F8H         LINE#         199
 C0:A71EH         LINE#         200
 C0:A728H         LINE#         201
 C0:A728H         LINE#         202
 C0:A73FH         LINE#         205
 C0:A752H         LINE#         206
 C0:A752H         LINE#         207
 C0:A788H         LINE#         209
 C0:A78DH         LINE#         210
 C0:A798H         LINE#         211
 C0:A79EH         LINE#         212
 C0:A79EH         LINE#         213
 C0:A7ABH         LINE#         214
 C0:A7ABH         LINE#         215
 C0:A7D0H         LINE#         216
 C0:A7D0H         LINE#         217
 C0:A7E2H         LINE#         219
 C0:A7E7H         LINE#         220
 C0:A7E7H         LINE#         221
 C0:A800H         LINE#         222
 C0:A80AH         LINE#         224
 C0:A818H         LINE#         225
 C0:A830H         LINE#         226
 C0:A836H         LINE#         227
 C0:A839H         LINE#         230
 C0:A83FH         LINE#         231
 C0:A83FH         LINE#         232
 C0:A842H         LINE#         233
 C0:A842H         LINE#         235
 C0:A842H         LINE#         237
 C0:A842H         LINE#         239
 C0:A850H         LINE#         248
 C0:A854H         LINE#         250
 C0:A860H         LINE#         251
 C0:A87AH         LINE#         254
BL51 BANKED LINKER/LOCATER V6.22                                                      01/10/2015  21:25:33  PAGE 94


 C0:A884H         LINE#         255
 C0:A884H         LINE#         256
 C0:A88AH         LINE#         258
 C0:A89EH         LINE#         259
 C0:A89EH         LINE#         260
 C0:A8C4H         LINE#         261
 C0:A8CFH         LINE#         262
 C0:A8CFH         LINE#         263
 C0:A8CFH         LINE#         264
 C0:A8CFH         LINE#         265
 C0:A8E2H         LINE#         266
 C0:A8E2H         LINE#         267
 C0:A8ECH         LINE#         268
 C0:A8ECH         LINE#         269
 C0:A8F7H         LINE#         270
 C0:A8F7H         LINE#         271
 C0:A900H         LINE#         272
 C0:A909H         LINE#         273
 C0:A909H         LINE#         274
 C0:A90EH         LINE#         275
 C0:A911H         LINE#         276
 C0:A911H         LINE#         277
 C0:A911H         LINE#         279
 C0:A91FH         LINE#         280
 C0:A91FH         LINE#         282
 C0:A92EH         LINE#         283
 C0:A936H         LINE#         284
 C0:A936H         LINE#         285
 C0:A93AH         LINE#         286
 C0:A943H         LINE#         287
 C0:A943H         LINE#         288
 C0:A943H         LINE#         289
 C0:A94BH         LINE#         290
 C0:A955H         LINE#         291
 C0:A955H         LINE#         293
 C0:A955H         LINE#         294
 C0:A955H         LINE#         295
 C0:A95EH         LINE#         296
 C0:A95EH         LINE#         298
 C0:A964H         LINE#         299
 C0:A966H         LINE#         300
 C0:A966H         LINE#         301
 C0:A966H         LINE#         302
 C0:A966H         LINE#         304
 C0:A96EH         LINE#         305
 C0:A96EH         LINE#         306
 C0:A979H         LINE#         307
 C0:A97BH         LINE#         309
 C0:A97BH         LINE#         311
 C0:A984H         LINE#         312
 C0:A984H         LINE#         313
 C0:A99EH         LINE#         314
 C0:A99EH         LINE#         315
 C0:A99EH         LINE#         316
 C0:A99EH         LINE#         317
 C0:A9B4H         LINE#         319
  -------         ENDPROC       _EHT_SIMULATETX
BL51 BANKED LINKER/LOCATER V6.22                                                      01/10/2015  21:25:33  PAGE 95



  -------         PROC BANK=0   _ETH_ALLOCONECP
  X:3854H         SYMBOL        cp
  -------         DO            
  X:3857H         SYMBOL        i
  X:3858H         SYMBOL        status
  -------         ENDDO         
 C0:CC58H         LINE#         321
 C0:CC5EH         LINE#         322
 C0:CC5EH         LINE#         323
 C0:CC63H         LINE#         327
 C0:CC63H         LINE#         328
 C0:CC71H         LINE#         329
 C0:CC77H         LINE#         330
 C0:CC7FH         LINE#         332
 C0:CC85H         LINE#         333
 C0:CC85H         LINE#         334
 C0:CC8EH         LINE#         335
 C0:CC8EH         LINE#         336
 C0:CC93H         LINE#         337
  -------         ENDPROC       _ETH_ALLOCONECP

  -------         PROC BANK=0   _ETH_ALLOC1STCP
  X:383FH         SYMBOL        srcaddr
  X:3842H         SYMBOL        dstaddr
  X:3845H         SYMBOL        pSrcGCIHdr
  X:3848H         SYMBOL        pEthTxFrmSwDesc
  -------         DO            
  X:384BH         SYMBOL        cp
  X:384CH         SYMBOL        pEth2Hdr
  X:384FH         SYMBOL        cellAddr
  X:3851H         SYMBOL        pGCIHdr
  -------         ENDDO         
 C0:C422H         LINE#         339
 C0:C428H         LINE#         341
 C0:C428H         LINE#         347
 C0:C434H         LINE#         348
 C0:C437H         LINE#         350
 C0:C447H         LINE#         353
 C0:C452H         LINE#         354
 C0:C461H         LINE#         355
 C0:C476H         LINE#         356
 C0:C484H         LINE#         360
 C0:C49CH         LINE#         361
 C0:C4ADH         LINE#         362
 C0:C4C1H         LINE#         363
 C0:C4E2H         LINE#         366
 C0:C4F0H         LINE#         367
 C0:C4F7H         LINE#         369
 C0:C4FFH         LINE#         370
 C0:C509H         LINE#         371
 C0:C50BH         LINE#         372
  -------         ENDPROC       _ETH_ALLOC1STCP

  -------         PROC BANK=0   _ETH_XMITCMDPKT
  D:0001H         SYMBOL        srcaddr
  X:37F9H         SYMBOL        dstaddr
BL51 BANKED LINKER/LOCATER V6.22                                                      01/10/2015  21:25:33  PAGE 96


  X:37FCH         SYMBOL        pSrcGCIHdr
  -------         DO            
  X:37FFH         SYMBOL        ethTxFrmSwDesc
  X:383CH         SYMBOL        status
  X:383DH         SYMBOL        i
  -------         DO            
  X:383EH         SYMBOL        i
  -------         ENDDO         
  -------         ENDDO         
 C0:C6D7H         LINE#         374
 C0:C6D7H         LINE#         375
 C0:C6D7H         LINE#         381
 C0:C6E0H         LINE#         382
 C0:C718H         LINE#         383
 C0:C71BH         LINE#         384
 C0:C71BH         LINE#         385
 C0:C72BH         LINE#         387
 C0:C72DH         LINE#         388
 C0:C72DH         LINE#         391
 C0:C732H         LINE#         393
 C0:C732H         LINE#         394
 C0:C740H         LINE#         395
 C0:C743H         LINE#         396
 C0:C743H         LINE#         397
 C0:C746H         LINE#         398
 C0:C74CH         LINE#         399
 C0:C74CH         LINE#         400
 C0:C75AH         LINE#         402
 C0:C75EH         LINE#         403
 C0:C75EH         LINE#         409
 C0:C771H         LINE#         410
 C0:C78CH         LINE#         411
 C0:C78CH         LINE#         412
 C0:C791H         LINE#         413
  -------         ENDPROC       _ETH_XMITCMDPKT

  -------         PROC BANK=0   _EHT_OPENCONN
  X:3776H         SYMBOL        pConnState
  X:3779H         SYMBOL        pTestParams
  -------         DO            
  X:377CH         SYMBOL        GCIHdr
  D:0007H         SYMBOL        status
  X:378CH         SYMBOL        i
  -------         ENDDO         
 C0:C5F3H         LINE#         416
 C0:C5F9H         LINE#         417
 C0:C5F9H         LINE#         422
 C0:C600H         LINE#         423
 C0:C61BH         LINE#         424
 C0:C640H         LINE#         425
 C0:C652H         LINE#         427
 C0:C65EH         LINE#         428
 C0:C664H         LINE#         429
 C0:C66EH         LINE#         430
 C0:C69AH         LINE#         431
 C0:C69EH         LINE#         432
 C0:C69FH         LINE#         435
BL51 BANKED LINKER/LOCATER V6.22                                                      01/10/2015  21:25:33  PAGE 97


 C0:C6A6H         LINE#         437
 C0:C6A6H         LINE#         439
 C0:C6A9H         LINE#         440
 C0:C6AFH         LINE#         441
 C0:C6C7H         LINE#         443
 C0:C6CAH         LINE#         444
 C0:C6CAH         LINE#         447
 C0:C6D1H         LINE#         448
 C0:C6D4H         LINE#         449
 C0:C6D4H         LINE#         451
 C0:C6D6H         LINE#         452
  -------         ENDPROC       _EHT_OPENCONN

  -------         PROC BANK=0   _EHT_CLOSECONN
  X:37E1H         SYMBOL        pConnState
  -------         DO            
  X:37E4H         SYMBOL        GCIHdr
  D:0007H         SYMBOL        status
  X:37F4H         SYMBOL        i
  -------         ENDDO         
 C0:CA51H         LINE#         454
 C0:CA57H         LINE#         455
 C0:CA57H         LINE#         458
 C0:CA5EH         LINE#         460
 C0:CA65H         LINE#         461
 C0:CA68H         LINE#         463
 C0:CA6FH         LINE#         464
 C0:CA75H         LINE#         465
 C0:CAA2H         LINE#         466
 C0:CAA6H         LINE#         467
 C0:CAA7H         LINE#         472
 C0:CAA7H         LINE#         473
 C0:CAAAH         LINE#         474
 C0:CAB0H         LINE#         475
 C0:CAC9H         LINE#         476
 C0:CAD3H         LINE#         477
 C0:CAD3H         LINE#         480
 C0:CAD6H         LINE#         481
 C0:CAD9H         LINE#         482
 C0:CAD9H         LINE#         487
 C0:CAE2H         LINE#         489
 C0:CAE4H         LINE#         490
  -------         ENDPROC       _EHT_CLOSECONN
 C0:AD2FH         SYMBOL        L?0313

  -------         PROC BANK=0   _EHT_XMITDATA
  X:3776H         SYMBOL        pConnState
  X:3779H         SYMBOL        pTestParms
  -------         DO            
  X:377CH         SYMBOL        curFrmLen
  X:377EH         SYMBOL        tmpFrmLen
  X:3780H         SYMBOL        i
  D:0007H         SYMBOL        j
  X:3781H         SYMBOL        quit
  X:3782H         SYMBOL        numFrames2xmit
  X:3786H         SYMBOL        maxNumFrames2xmit
  X:378AH         SYMBOL        status
BL51 BANKED LINKER/LOCATER V6.22                                                      01/10/2015  21:25:33  PAGE 98


  -------         DO            
  X:378BH         SYMBOL        ethTxFrmSwDesc
  X:37C8H         SYMBOL        frmData
  X:37C9H         SYMBOL        userInput
  -------         DO            
  X:37CAH         SYMBOL        tmpCpCount
  X:37CBH         SYMBOL        tmpOffsetByte
  X:37CCH         SYMBOL        cellAddr
  X:37CEH         SYMBOL        numBytes2Write
  X:37D0H         SYMBOL        GCIHdr
  X:37CAH         SYMBOL        delay64ticks
  -------         DO            
  X:37E0H         SYMBOL        cp
  -------         ENDDO         
  -------         ENDDO         
  -------         DO            
  X:37CAH         SYMBOL        delay64ticks
  -------         ENDDO         
  -------         ENDDO         
  -------         ENDDO         
 C0:A9BDH         LINE#         492
 C0:A9C3H         LINE#         493
 C0:A9C3H         LINE#         497
 C0:A9C8H         LINE#         500
 C0:A9CCH         LINE#         502
 C0:A9DFH         LINE#         505
 C0:A9EFH         LINE#         506
 C0:A9F7H         LINE#         507
 C0:AA06H         LINE#         509
 C0:AA21H         LINE#         510
 C0:AA21H         LINE#         512
 C0:AA27H         LINE#         513
 C0:AA2AH         LINE#         515
 C0:AA37H         LINE#         516
 C0:AA3EH         LINE#         517
 C0:AA4DH         LINE#         518
 C0:AA50H         LINE#         520
 C0:AA65H         LINE#         521
 C0:AA65H         LINE#         528
 C0:AA6DH         LINE#         530
 C0:AA6FH         LINE#         531
 C0:AA6FH         LINE#         534
 C0:AA7CH         LINE#         535
 C0:AA82H         LINE#         538
 C0:AABBH         LINE#         540
 C0:AABEH         LINE#         541
 C0:AABEH         LINE#         542
 C0:AAC5H         LINE#         544
 C0:AAC7H         LINE#         545
 C0:AAC7H         LINE#         546
 C0:AACDH         LINE#         547
 C0:AACFH         LINE#         548
 C0:AACFH         LINE#         552
 C0:AADDH         LINE#         553
 C0:AAE0H         LINE#         554
 C0:AAE0H         LINE#         555
 C0:AAEAH         LINE#         557
BL51 BANKED LINKER/LOCATER V6.22                                                      01/10/2015  21:25:33  PAGE 99


 C0:AAF0H         LINE#         558
 C0:AAF0H         LINE#         559
 C0:AB04H         LINE#         560
 C0:AB0AH         LINE#         561
 C0:AB14H         LINE#         562
 C0:AB1AH         LINE#         563
 C0:AB1FH         LINE#         564
 C0:AB1FH         LINE#         567
 C0:AB2FH         LINE#         569
 C0:AB58H         LINE#         573
 C0:AB66H         LINE#         574
 C0:AB6EH         LINE#         576
 C0:AB83H         LINE#         577
 C0:AB83H         LINE#         578
 C0:AB98H         LINE#         579
 C0:ABA1H         LINE#         580
 C0:ABA4H         LINE#         581
 C0:ABA7H         LINE#         582
 C0:ABB9H         LINE#         583
 C0:ABC2H         LINE#         584
 C0:ABC5H         LINE#         587
 C0:ABC5H         LINE#         589
 C0:ABD3H         LINE#         590
 C0:ABD6H         LINE#         591
 C0:ABD6H         LINE#         592
 C0:ABD9H         LINE#         593
 C0:ABDFH         LINE#         594
 C0:ABDFH         LINE#         595
 C0:ABEFH         LINE#         596
 C0:ABF3H         LINE#         597
 C0:ABF3H         LINE#         598
 C0:ABFCH         LINE#         599
 C0:ABFFH         LINE#         600
 C0:ABFFH         LINE#         603
 C0:AC0BH         LINE#         604
 C0:AC26H         LINE#         605
 C0:AC26H         LINE#         606
 C0:AC2FH         LINE#         608
 C0:AC3EH         LINE#         609
 C0:AC4CH         LINE#         611
 C0:AC67H         LINE#         613
 C0:AC67H         LINE#         616
 C0:AC75H         LINE#         617
 C0:AC75H         LINE#         618
 C0:AC84H         LINE#         619
 C0:AC90H         LINE#         620
 C0:AC90H         LINE#         621
 C0:AC95H         LINE#         622
 C0:AC95H         LINE#         623
 C0:AC95H         LINE#         625
 C0:AC9DH         LINE#         626
 C0:AC9DH         LINE#         627
 C0:ACACH         LINE#         628
 C0:ACB4H         LINE#         629
 C0:ACB4H         LINE#         630
 C0:ACBDH         LINE#         631
 C0:ACBDH         LINE#         632
BL51 BANKED LINKER/LOCATER V6.22                                                      01/10/2015  21:25:33  PAGE 100


 C0:ACBDH         LINE#         633
 C0:ACC0H         LINE#         634
 C0:ACCAH         LINE#         635
 C0:ACCAH         LINE#         637
 C0:ACCAH         LINE#         638
 C0:ACCAH         LINE#         639
 C0:ACD3H         LINE#         640
 C0:ACD3H         LINE#         642
 C0:ACD9H         LINE#         643
 C0:ACDBH         LINE#         644
 C0:ACDBH         LINE#         645
 C0:ACDBH         LINE#         646
 C0:ACDBH         LINE#         648
 C0:ACE3H         LINE#         649
 C0:ACE3H         LINE#         650
 C0:ACEEH         LINE#         651
 C0:ACF0H         LINE#         652
 C0:ACF0H         LINE#         655
 C0:ACF6H         LINE#         656
 C0:ACFEH         LINE#         657
 C0:AD0BH         LINE#         659
 C0:AD11H         LINE#         661
 C0:AD17H         LINE#         662
 C0:AD17H         LINE#         664
 C0:AD1DH         LINE#         665
 C0:AD1DH         LINE#         666
 C0:AD2CH         LINE#         667
 C0:AD2EH         LINE#         668
  -------         ENDPROC       _EHT_XMITDATA

  -------         PROC BANK=0   _EHT_TESTTXRXSTATIONS
  X:376EH         SYMBOL        pTestParms
  -------         DO            
  X:3771H         SYMBOL        i
  X:3772H         SYMBOL        numStations
  X:3773H         SYMBOL        numClosedStations
  X:3774H         SYMBOL        numOpenStations
  X:3775H         SYMBOL        status
  D:0001H         SYMBOL        pConnState
  -------         ENDDO         
 C0:C50CH         LINE#         670
 C0:C512H         LINE#         671
 C0:C512H         LINE#         672
 C0:C517H         LINE#         676
 C0:C525H         LINE#         678
 C0:C532H         LINE#         680
 C0:C53EH         LINE#         681
 C0:C53EH         LINE#         683
 C0:C54AH         LINE#         684
 C0:C56BH         LINE#         685
 C0:C56DH         LINE#         686
 C0:C56DH         LINE#         687
 C0:C577H         LINE#         688
 C0:C57DH         LINE#         689
 C0:C57DH         LINE#         690
 C0:C585H         LINE#         692
 C0:C58BH         LINE#         693
BL51 BANKED LINKER/LOCATER V6.22                                                      01/10/2015  21:25:33  PAGE 101


 C0:C58BH         LINE#         694
 C0:C594H         LINE#         696
 C0:C594H         LINE#         699
 C0:C594H         LINE#         700
 C0:C594H         LINE#         701
 C0:C599H         LINE#         702
 C0:C5A5H         LINE#         703
 C0:C5A5H         LINE#         704
 C0:C5A9H         LINE#         705
 C0:C5AEH         LINE#         706
 C0:C5AEH         LINE#         707
 C0:C5B4H         LINE#         708
 C0:C5B6H         LINE#         709
 C0:C5B6H         LINE#         711
 C0:C5D3H         LINE#         712
 C0:C5D6H         LINE#         713
 C0:C5E0H         LINE#         714
 C0:C5E8H         LINE#         716
 C0:C5F2H         LINE#         718
  -------         ENDPROC       _EHT_TESTTXRXSTATIONS
 C0:A465H         SYMBOL        L?0255
 C0:A478H         SYMBOL        L?0260
 C0:A488H         SYMBOL        L?0262
 C0:A499H         SYMBOL        L?0263
 C0:A4B0H         SYMBOL        L?0266
 C0:A4C9H         SYMBOL        L?0288
 C0:A4D9H         SYMBOL        L?0291

  -------         PROC BANK=0   _EHT_BASICTXRXMENU
  X:36E2H         SYMBOL        txrxtest
  -------         DO            
  X:36E3H         SYMBOL        frmLen
  X:36E5H         SYMBOL        numFrames
  X:36E9H         SYMBOL        numFrames2xmit
  X:36EDH         SYMBOL        alterDescLenNOffset
  X:36EEH         SYMBOL        input
  X:3752H         SYMBOL        testType
  X:3753H         SYMBOL        numbytes
  X:3754H         SYMBOL        MACaddr
  X:375AH         SYMBOL        delay
  X:375EH         SYMBOL        defMasterMACaddr
  X:3764H         SYMBOL        defSlaveMACaddr
  -------         DO            
  X:376AH         SYMBOL        limit
  -------         ENDDO         
  -------         ENDDO         
 C0:A000H         LINE#         722
 C0:A005H         LINE#         723
 C0:A005H         LINE#         734
 C0:A014H         LINE#         735
 C0:A023H         LINE#         737
 C0:A029H         LINE#         738
 C0:A029H         LINE#         740
 C0:A029H         LINE#         741
 C0:A035H         LINE#         742
 C0:A03DH         LINE#         743
 C0:A040H         LINE#         744
BL51 BANKED LINKER/LOCATER V6.22                                                      01/10/2015  21:25:33  PAGE 102


 C0:A040H         LINE#         746
 C0:A046H         LINE#         747
 C0:A048H         LINE#         748
 C0:A048H         LINE#         749
 C0:A048H         LINE#         750
 C0:A056H         LINE#         751
 C0:A063H         LINE#         752
 C0:A073H         LINE#         753
 C0:A073H         LINE#         754
 C0:A073H         LINE#         755
 C0:A073H         LINE#         758
 C0:A07BH         LINE#         759
 C0:A07BH         LINE#         761
 C0:A086H         LINE#         762
 C0:A086H         LINE#         764
 C0:A08CH         LINE#         765
 C0:A093H         LINE#         766
 C0:A09EH         LINE#         767
 C0:A0A8H         LINE#         768
 C0:A0B2H         LINE#         769
 C0:A0B7H         LINE#         770
 C0:A0C1H         LINE#         771
 C0:A0CBH         LINE#         772
 C0:A0D4H         LINE#         773
 C0:A0DDH         LINE#         774
 C0:A0EFH         LINE#         777
 C0:A11CH         LINE#         780
 C0:A134H         LINE#         781
 C0:A143H         LINE#         782
 C0:A152H         LINE#         783
 C0:A161H         LINE#         784
 C0:A161H         LINE#         786
 C0:A16CH         LINE#         787
 C0:A16CH         LINE#         789
 C0:A16CH         LINE#         790
 C0:A170H         LINE#         791
 C0:A178H         LINE#         792
 C0:A17BH         LINE#         793
 C0:A17BH         LINE#         795
 C0:A181H         LINE#         796
 C0:A183H         LINE#         797
 C0:A183H         LINE#         798
 C0:A183H         LINE#         799
 C0:A1A6H         LINE#         801
 C0:A1A6H         LINE#         802
 C0:A1A6H         LINE#         803
 C0:A1A6H         LINE#         804
 C0:A1A6H         LINE#         805
 C0:A1A6H         LINE#         806
 C0:A1AEH         LINE#         809
 C0:A1AEH         LINE#         811
 C0:A1B2H         LINE#         812
 C0:A1BDH         LINE#         813
 C0:A1BDH         LINE#         815
 C0:A1C4H         LINE#         816
 C0:A1C6H         LINE#         817
 C0:A1C6H         LINE#         818
BL51 BANKED LINKER/LOCATER V6.22                                                      01/10/2015  21:25:33  PAGE 103


 C0:A1C6H         LINE#         819
 C0:A1E3H         LINE#         822
 C0:A1E3H         LINE#         823
 C0:A1E3H         LINE#         824
 C0:A1E3H         LINE#         827
 C0:A1F2H         LINE#         830
 C0:A1F2H         LINE#         832
 C0:A1FDH         LINE#         834
 C0:A208H         LINE#         835
 C0:A208H         LINE#         837
 C0:A217H         LINE#         838
 C0:A219H         LINE#         839
 C0:A219H         LINE#         840
 C0:A219H         LINE#         841
 C0:A22DH         LINE#         843
 C0:A22DH         LINE#         844
 C0:A231H         LINE#         845
 C0:A231H         LINE#         846
 C0:A231H         LINE#         847
 C0:A231H         LINE#         848
 C0:A231H         LINE#         849
 C0:A240H         LINE#         857
 C0:A256H         LINE#         858
 C0:A256H         LINE#         859
 C0:A26FH         LINE#         860
 C0:A284H         LINE#         862
 C0:A284H         LINE#         863
 C0:A28CH         LINE#         864
 C0:A299H         LINE#         868
 C0:A299H         LINE#         869
 C0:A299H         LINE#         870
 C0:A299H         LINE#         872
 C0:A2A4H         LINE#         873
 C0:A2A4H         LINE#         875
 C0:A2A4H         LINE#         876
 C0:A2ADH         LINE#         877
 C0:A2B2H         LINE#         878
 C0:A2B2H         LINE#         879
 C0:A2C4H         LINE#         880
 C0:A2C4H         LINE#         882
 C0:A2D9H         LINE#         884
 C0:A2E2H         LINE#         885
 C0:A2E7H         LINE#         886
 C0:A2E7H         LINE#         887
 C0:A2F3H         LINE#         888
 C0:A2F3H         LINE#         890
 C0:A2F3H         LINE#         892
 C0:A2FBH         LINE#         893
 C0:A2FBH         LINE#         897
 C0:A304H         LINE#         898
 C0:A310H         LINE#         899
 C0:A319H         LINE#         902
 C0:A319H         LINE#         903
 C0:A327H         LINE#         905
 C0:A32FH         LINE#         906
 C0:A332H         LINE#         907
 C0:A332H         LINE#         909
BL51 BANKED LINKER/LOCATER V6.22                                                      01/10/2015  21:25:33  PAGE 104


 C0:A33CH         LINE#         910
 C0:A33EH         LINE#         911
 C0:A348H         LINE#         912
 C0:A367H         LINE#         913
 C0:A373H         LINE#         914
 C0:A373H         LINE#         916
 C0:A379H         LINE#         917
 C0:A379H         LINE#         920
 C0:A379H         LINE#         921
 C0:A382H         LINE#         922
 C0:A38AH         LINE#         923
 C0:A38AH         LINE#         924
 C0:A3AAH         LINE#         925
 C0:A3AAH         LINE#         927
 C0:A3B3H         LINE#         928
 C0:A3B3H         LINE#         930
 C0:A3C1H         LINE#         931
 C0:A3C1H         LINE#         933
 C0:A3CAH         LINE#         934
 C0:A3DCH         LINE#         935
 C0:A3DCH         LINE#         936
 C0:A3F1H         LINE#         937
 C0:A3F1H         LINE#         939
 C0:A3FDH         LINE#         941
 C0:A406H         LINE#         942
 C0:A412H         LINE#         943
 C0:A412H         LINE#         944
 C0:A417H         LINE#         945
 C0:A419H         LINE#         947
 C0:A419H         LINE#         948
 C0:A41EH         LINE#         949
 C0:A41EH         LINE#         951
 C0:A42DH         LINE#         952
 C0:A433H         LINE#         953
 C0:A433H         LINE#         954
 C0:A43BH         LINE#         956
 C0:A43DH         LINE#         957
 C0:A43DH         LINE#         958
 C0:A443H         LINE#         959
 C0:A447H         LINE#         960
 C0:A449H         LINE#         962
 C0:A449H         LINE#         963
 C0:A44EH         LINE#         964
 C0:A452H         LINE#         965
 C0:A452H         LINE#         966
 C0:A452H         LINE#         967
 C0:A452H         LINE#         969
 C0:A45EH         LINE#         971
 C0:A461H         LINE#         974
 C0:A464H         LINE#         975
  -------         ENDPROC       _EHT_BASICTXRXMENU
 C0:BDB8H         SYMBOL        L?0285
 C0:BDC0H         SYMBOL        L?0327

  -------         PROC BANK=0   _EHAL_CMDHALPROCESS
  D:0001H         SYMBOL        CmdBuf
  -------         DO            
BL51 BANKED LINKER/LOCATER V6.22                                                      01/10/2015  21:25:33  PAGE 105


  X:36CEH         SYMBOL        cmd
  -------         ENDDO         
 C0:BC84H         LINE#         1036
 C0:BC84H         LINE#         1037
 C0:BC84H         LINE#         1041
 C0:BCBDH         LINE#         1042
 C0:BCBDH         LINE#         1043
 C0:BCC1H         LINE#         1044
 C0:BCCBH         LINE#         1045
 C0:BCCFH         LINE#         1046
 C0:BCD9H         LINE#         1047
 C0:BCDDH         LINE#         1048
 C0:BCE7H         LINE#         1049
 C0:BCEBH         LINE#         1050
 C0:BCF5H         LINE#         1051
 C0:BCFEH         LINE#         1053
 C0:BCFEH         LINE#         1055
 C0:BD10H         LINE#         1056
 C0:BD10H         LINE#         1057
 C0:BD12H         LINE#         1058
 C0:BD14H         LINE#         1059
 C0:BD26H         LINE#         1060
 C0:BD26H         LINE#         1061
 C0:BD28H         LINE#         1062
 C0:BD2AH         LINE#         1063
 C0:BD3CH         LINE#         1064
 C0:BD3CH         LINE#         1065
 C0:BD41H         LINE#         1066
 C0:BD41H         LINE#         1067
 C0:BD4AH         LINE#         1068
 C0:BD4AH         LINE#         1069
 C0:BD4DH         LINE#         1071
 C0:BD4DH         LINE#         1072
 C0:BD5FH         LINE#         1073
 C0:BD5FH         LINE#         1074
 C0:BD62H         LINE#         1075
 C0:BD62H         LINE#         1076
 C0:BD6BH         LINE#         1077
 C0:BD6BH         LINE#         1078
 C0:BD6EH         LINE#         1079
 C0:BD6EH         LINE#         1080
 C0:BD77H         LINE#         1081
 C0:BD77H         LINE#         1082
 C0:BD7AH         LINE#         1083
 C0:BD7AH         LINE#         1084
 C0:BD8CH         LINE#         1085
 C0:BD8CH         LINE#         1087
 C0:BD9DH         LINE#         1088
 C0:BDB7H         LINE#         1089
 C0:BDB7H         LINE#         1097
  -------         ENDPROC       _EHAL_CMDHALPROCESS
  -------         ENDMOD        EHAL_TST

  -------         MODULE        CHAL_TST
  C:0000H         SYMBOL        _ICE_DUMMY_
 C0:BAF8H         PUBLIC        CHT_TestMem
 C0:BEFBH         PUBLIC        CHT_TestCps
BL51 BANKED LINKER/LOCATER V6.22                                                      01/10/2015  21:25:33  PAGE 106


 C0:CD7AH         PUBLIC        CHAL_CmdHelp
  C:5B9EH         SYMBOL        _?ix1000
 C0:CD01H         PUBLIC        CHT_CpUsageDisplay
 C0:C9AEH         PUBLIC        _CHAL_CmdHALProcess
 C0:BDC8H         PUBLIC        CHT_PktBufBankSelTst
 C0:C84DH         PUBLIC        CHT_DumpMem
 C0:C906H         SYMBOL        Com0031
 C0:C906H         SYMBOL        L?0050
 C0:C913H         SYMBOL        L?0052
 C0:C920H         SYMBOL        L?0054
 C0:C922H         SYMBOL        L?0055
 C0:C92BH         SYMBOL        L?0056
 C0:C938H         SYMBOL        L?0059
 C0:C942H         SYMBOL        L?0060
 C0:C94CH         SYMBOL        L?0062
 C0:C959H         SYMBOL        L?0063
 C0:C96CH         SYMBOL        L?0064
 C0:C977H         SYMBOL        L?0066
 C0:C977H         SYMBOL        L?0067
 C0:C97DH         SYMBOL        L?0070
 C0:C989H         SYMBOL        L?0072
 C0:C993H         SYMBOL        L?0073
 C0:C993H         SYMBOL        L?0074
 C0:C99AH         SYMBOL        L?0075
 C0:C9A4H         SYMBOL        L?0076
  -------         PROC          COM0031
  -------         ENDPROC       COM0031
 C0:BC73H         SYMBOL        L?0061

  -------         PROC BANK=0   CHT_TESTMEM
  -------         DO            
  X:36D8H         SYMBOL        patternWr
  X:36DCH         SYMBOL        patternWrLE
  X:36E0H         SYMBOL        pPatternWrLE
  X:36E3H         SYMBOL        baseAddr
  X:36E5H         SYMBOL        lengthInBytes
  X:36E7H         SYMBOL        i
  -------         DO            
  X:36E9H         SYMBOL        byteRead
  -------         ENDDO         
  -------         ENDDO         
 C0:BAF8H         LINE#         27
 C0:BAF8H         LINE#         28
 C0:BAF8H         LINE#         36
 C0:BB04H         LINE#         37
 C0:BB0DH         LINE#         38
 C0:BB14H         LINE#         39
 C0:BB17H         LINE#         40
 C0:BB20H         LINE#         41
 C0:BB27H         LINE#         42
 C0:BB2AH         LINE#         43
 C0:BB33H         LINE#         44
 C0:BB43H         LINE#         45
 C0:BB49H         LINE#         46
 C0:BBBBH         LINE#         47
 C0:BBEBH         LINE#         49
 C0:BBF7H         LINE#         50
BL51 BANKED LINKER/LOCATER V6.22                                                      01/10/2015  21:25:33  PAGE 107


 C0:BBF7H         LINE#         51
 C0:BC13H         LINE#         52
 C0:BC18H         LINE#         53
 C0:BC24H         LINE#         54
 C0:BC24H         LINE#         55
 C0:BC39H         LINE#         57
 C0:BC44H         LINE#         58
 C0:BC44H         LINE#         59
 C0:BC64H         LINE#         60
 C0:BC64H         LINE#         61
 C0:BC6AH         LINE#         62
 C0:BC73H         LINE#         63
  -------         ENDPROC       CHT_TESTMEM

  -------         PROC BANK=0   CHT_CPUSAGEDISPLAY
  -------         DO            
  X:36D8H         SYMBOL        i
  -------         ENDDO         
 C0:CD01H         LINE#         66
 C0:CD01H         LINE#         67
 C0:CD01H         LINE#         69
 C0:CD10H         LINE#         70
 C0:CD10H         LINE#         71
 C0:CD29H         LINE#         73
 C0:CD31H         LINE#         74
  -------         ENDPROC       CHT_CPUSAGEDISPLAY
 C0:BFFCH         SYMBOL        L?0068
 C0:C00BH         SYMBOL        L?0071

  -------         PROC BANK=0   CHT_TESTCPS
  -------         DO            
  X:36D8H         SYMBOL        cp
  X:3759H         SYMBOL        freeCpCnt
  X:375AH         SYMBOL        refCP
  X:375BH         SYMBOL        i
  X:375CH         SYMBOL        j
  X:375DH         SYMBOL        offset
  X:375EH         SYMBOL        bufLen
  -------         ENDDO         
 C0:BEFBH         LINE#         77
 C0:BEFBH         LINE#         78
 C0:BEFBH         LINE#         79
 C0:BF0EH         LINE#         88
 C0:BF16H         LINE#         89
 C0:BF1FH         LINE#         90
 C0:BF2FH         LINE#         91
 C0:BF39H         LINE#         100
 C0:BF48H         LINE#         101
 C0:BF48H         LINE#         102
 C0:BF56H         LINE#         103
 C0:BF5AH         LINE#         104
 C0:BF6CH         LINE#         105
 C0:BF6CH         LINE#         107
 C0:BF70H         LINE#         108
 C0:BF7BH         LINE#         157
 C0:BF83H         LINE#         158
 C0:BF83H         LINE#         159
BL51 BANKED LINKER/LOCATER V6.22                                                      01/10/2015  21:25:33  PAGE 108


 C0:BF9DH         LINE#         163
 C0:BFA3H         LINE#         164
 C0:BFA3H         LINE#         165
 C0:BFA8H         LINE#         166
 C0:BFB2H         LINE#         167
 C0:BFB2H         LINE#         170
 C0:BFBBH         LINE#         171
 C0:BFBBH         LINE#         173
 C0:BFBEH         LINE#         174
 C0:BFC4H         LINE#         175
 C0:BFC6H         LINE#         176
 C0:BFC6H         LINE#         177
 C0:BFEFH         LINE#         178
 C0:BFFBH         LINE#         179
  -------         ENDPROC       CHT_TESTCPS
 C0:C8F9H         SYMBOL        L?0065

  -------         PROC BANK=0   CHT_DUMPMEM
  -------         DO            
  X:36D8H         SYMBOL        patternRd
  X:36DCH         SYMBOL        baseAddr
  X:36E0H         SYMBOL        lengthInBytes
  X:36E2H         SYMBOL        i
  -------         ENDDO         
 C0:C84DH         LINE#         182
 C0:C84DH         LINE#         183
 C0:C84DH         LINE#         189
 C0:C856H         LINE#         190
 C0:C863H         LINE#         191
 C0:C866H         LINE#         192
 C0:C86FH         LINE#         193
 C0:C87CH         LINE#         194
 C0:C87FH         LINE#         196
 C0:C89AH         LINE#         197
 C0:C89AH         LINE#         198
 C0:C8A3H         LINE#         200
 C0:C8A8H         LINE#         201
 C0:C8A8H         LINE#         202
 C0:C8AEH         LINE#         203
 C0:C8C8H         LINE#         204
 C0:C8C8H         LINE#         205
 C0:C8E6H         LINE#         206
 C0:C8F3H         LINE#         207
 C0:C8F9H         LINE#         208
  -------         ENDPROC       CHT_DUMPMEM
 C0:BE7DH         SYMBOL        L?0048
 C0:BE9CH         SYMBOL        L?0051
 C0:BEABH         SYMBOL        L?0053
 C0:BEBAH         SYMBOL        L?0057
 C0:BEC6H         SYMBOL        L?0058
 C0:BEE5H         SYMBOL        L?0069
 C0:BEF4H         SYMBOL        L?0077

  -------         PROC BANK=0   CHT_PKTBUFBANKSELTST
  -------         DO            
  X:468FH         SYMBOL        i
  -------         ENDDO         
BL51 BANKED LINKER/LOCATER V6.22                                                      01/10/2015  21:25:33  PAGE 109


 C0:BDC8H         LINE#         211
 C0:BDC8H         LINE#         212
 C0:BDC8H         LINE#         215
 C0:BDCDH         LINE#         216
 C0:BDCDH         LINE#         217
 C0:BDD7H         LINE#         218
 C0:BDE1H         LINE#         219
 C0:BDEBH         LINE#         220
 C0:BDF5H         LINE#         221
 C0:BE02H         LINE#         222
 C0:BE0CH         LINE#         223
 C0:BE19H         LINE#         224
 C0:BE23H         LINE#         226
 C0:BE2DH         LINE#         227
 C0:BE34H         LINE#         229
 C0:BE3EH         LINE#         230
 C0:BE45H         LINE#         232
 C0:BE4FH         LINE#         233
 C0:BE59H         LINE#         235
 C0:BE63H         LINE#         236
 C0:BE6DH         LINE#         237
 C0:BE7CH         LINE#         238
  -------         ENDPROC       CHT_PKTBUFBANKSELTST

  -------         PROC BANK=0   CHAL_CMDHELP
 C0:CD7AH         LINE#         241
 C0:CD7AH         LINE#         242
 C0:CD7AH         LINE#         243
 C0:CD83H         LINE#         251
  -------         ENDPROC       CHAL_CMDHELP

  -------         PROC BANK=0   _CHAL_CMDHALPROCESS
  D:0001H         SYMBOL        CmdBuf
  -------         DO            
  X:36CEH         SYMBOL        cmd
  -------         ENDDO         
 C0:C9AEH         LINE#         254
 C0:C9AEH         LINE#         255
 C0:C9AEH         LINE#         258
 C0:C9B5H         LINE#         260
 C0:C9F0H         LINE#         261
 C0:C9F0H         LINE#         262
 C0:C9F3H         LINE#         264
 C0:C9F3H         LINE#         266
 C0:CA05H         LINE#         267
 C0:CA05H         LINE#         268
 C0:CA08H         LINE#         269
 C0:CA08H         LINE#         270
 C0:CA1AH         LINE#         271
 C0:CA1AH         LINE#         272
 C0:CA1DH         LINE#         273
 C0:CA1DH         LINE#         274
 C0:CA2FH         LINE#         275
 C0:CA2FH         LINE#         276
 C0:CA32H         LINE#         277
 C0:CA32H         LINE#         278
 C0:CA4DH         LINE#         279
BL51 BANKED LINKER/LOCATER V6.22                                                      01/10/2015  21:25:33  PAGE 110


 C0:CA4DH         LINE#         280
 C0:CA50H         LINE#         281
 C0:CA50H         LINE#         282
  -------         ENDPROC       _CHAL_CMDHALPROCESS
  -------         ENDMOD        CHAL_TST

  -------         MODULE        IHAL_UI
  C:0000H         SYMBOL        _ICE_DUMMY_
 C0:CC10H         PUBLIC        ihal_ui_rx_menu
 C0:C792H         PUBLIC        ihal_ui_tx_menu
 C0:CAE5H         PUBLIC        _ihal_ui_cmd_process
 C0:CD32H         SYMBOL        Com0018
 C0:CD32H         SYMBOL        L?0025
 C0:CD32H         SYMBOL        L?0026
 C0:CD36H         SYMBOL        L?0027
 C0:CD41H         SYMBOL        L?0030
 C0:CD4EH         SYMBOL        L?0031
  -------         PROC          COM0018
  -------         ENDPROC       COM0018
 C0:C81FH         SYMBOL        L?0028
 C0:C836H         SYMBOL        L?0029

  -------         PROC BANK=0   IHAL_UI_TX_MENU
  -------         DO            
  X:36D8H         SYMBOL        frm_len
  X:36DAH         SYMBOL        inc_bytes
  X:36DCH         SYMBOL        max_tx_bytes
  X:36DEH         SYMBOL        num_frames
  X:36E0H         SYMBOL        input
  -------         ENDDO         
 C0:C792H         LINE#         31
 C0:C792H         LINE#         32
 C0:C792H         LINE#         39
 C0:C792H         LINE#         40
 C0:C79BH         LINE#         41
 C0:C7A0H         LINE#         42
 C0:C7ACH         LINE#         43
 C0:C7ACH         LINE#         44
 C0:C7ACH         LINE#         46
 C0:C7C4H         LINE#         48
 C0:C7CDH         LINE#         49
 C0:C7D2H         LINE#         50
 C0:C7DEH         LINE#         51
 C0:C7DEH         LINE#         52
 C0:C7DEH         LINE#         55
 C0:C7E9H         LINE#         56
 C0:C7EEH         LINE#         57
 C0:C7F5H         LINE#         58
 C0:C7F7H         LINE#         59
 C0:C7FEH         LINE#         60
 C0:C804H         LINE#         61
 C0:C804H         LINE#         63
 C0:C81FH         LINE#         64
  -------         ENDPROC       IHAL_UI_TX_MENU

  -------         PROC BANK=0   IHAL_UI_RX_MENU
  -------         DO            
BL51 BANKED LINKER/LOCATER V6.22                                                      01/10/2015  21:25:33  PAGE 111


  X:36D8H         SYMBOL        num_frames
  X:36DAH         SYMBOL        input
  -------         ENDDO         
 C0:CC10H         LINE#         66
 C0:CC10H         LINE#         67
 C0:CC10H         LINE#         71
 C0:CC19H         LINE#         72
 C0:CC31H         LINE#         73
 C0:CC4AH         LINE#         74
 C0:CC4AH         LINE#         75
 C0:CC4AH         LINE#         77
  -------         ENDPROC       IHAL_UI_RX_MENU

  -------         PROC BANK=0   _IHAL_UI_CMD_PROCESS
  D:0001H         SYMBOL        CmdBuf
  -------         DO            
  X:36CEH         SYMBOL        cmd
  -------         ENDDO         
 C0:CAE5H         LINE#         97
 C0:CAE5H         LINE#         98
 C0:CAE5H         LINE#         101
 C0:CB1AH         LINE#         102
 C0:CB1AH         LINE#         103
 C0:CB23H         LINE#         104
 C0:CB2CH         LINE#         105
 C0:CB35H         LINE#         111
 C0:CB35H         LINE#         113
 C0:CB3EH         LINE#         114
 C0:CB41H         LINE#         115
 C0:CB53H         LINE#         116
 C0:CB56H         LINE#         117
 C0:CB56H         LINE#         132
  -------         ENDPROC       _IHAL_UI_CMD_PROCESS
  -------         ENDMOD        IHAL_UI

  -------         MODULE        IHAL_TST
  C:0000H         SYMBOL        _ICE_DUMMY_
  X:30A7H         PUBLIC        spi_tx_data
  X:36A7H         PUBLIC        data_value
 C0:C12DH         PUBLIC        _ihal_tst_rx
 C0:B24AH         PUBLIC        _ihal_tst_slave_tx_dma
 C0:CBBBH         SYMBOL        Com001D
 C0:CBBBH         SYMBOL        L?0030
 C0:CBBBH         SYMBOL        L?0031
 C0:CBCCH         SYMBOL        L?0032
 C0:CBCCH         SYMBOL        L?0033
 C0:CBD5H         SYMBOL        L?0034
 C0:CBDDH         SYMBOL        L?0035
 C0:CBE4H         SYMBOL        L?0037
 C0:CBF3H         SYMBOL        L?0038
 C0:CC00H         SYMBOL        L?0039
 C0:CC00H         SYMBOL        L?0040
 C0:CC07H         SYMBOL        L?0041
  -------         PROC          COM001D
  -------         ENDPROC       COM001D

  -------         PROC BANK=0   _IHAL_TST_SLAVE_TX_DMA
BL51 BANKED LINKER/LOCATER V6.22                                                      01/10/2015  21:25:33  PAGE 112


  X:36EAH         SYMBOL        max_data_size
  X:36ECH         SYMBOL        inc_bytes
  X:36EEH         SYMBOL        num_pkts_in
  -------         DO            
  X:36F0H         SYMBOL        tx_pkts
  X:36F4H         SYMBOL        tx_bytes
  X:36F8H         SYMBOL        tx_done
  X:36FCH         SYMBOL        tx_overrun
  X:3700H         SYMBOL        spi_busy
  X:3704H         SYMBOL        tx_size
  X:3706H         SYMBOL        tx_abort
  X:3707H         SYMBOL        data_size
  X:3709H         SYMBOL        data_size_start
  X:370BH         SYMBOL        more_bytes
  X:370DH         SYMBOL        tx_errs
  X:370FH         SYMBOL        cp_alloc_errs
  D:0006H         SYMBOL        idx
  D:0007H         SYMBOL        c
  -------         ENDDO         
 C0:B24AH         LINE#         29
 C0:B25EH         LINE#         31
 C0:B25EH         LINE#         32
 C0:B266H         LINE#         33
 C0:B270H         LINE#         34
 C0:B27AH         LINE#         35
 C0:B284H         LINE#         36
 C0:B28EH         LINE#         37
 C0:B295H         LINE#         40
 C0:B29DH         LINE#         41
 C0:B2A2H         LINE#         47
 C0:B2A5H         LINE#         49
 C0:B2A5H         LINE#         50
 C0:B2ADH         LINE#         51
 C0:B2B6H         LINE#         52
 C0:B2D1H         LINE#         53
 C0:B2E0H         LINE#         54
 C0:B2E9H         LINE#         55
 C0:B2E9H         LINE#         56
 C0:B2EBH         LINE#         57
 C0:B2FAH         LINE#         58
 C0:B2FAH         LINE#         59
 C0:B314H         LINE#         60
 C0:B32EH         LINE#         61
 C0:B345H         LINE#         63
 C0:B345H         LINE#         64
 C0:B34AH         LINE#         65
 C0:B356H         LINE#         67
 C0:B366H         LINE#         69
 C0:B369H         LINE#         70
 C0:B369H         LINE#         71
 C0:B37CH         LINE#         72
 C0:B37CH         LINE#         73
 C0:B37CH         LINE#         74
 C0:B381H         LINE#         75
 C0:B390H         LINE#         76
 C0:B3A3H         LINE#         77
 C0:B3AAH         LINE#         81
BL51 BANKED LINKER/LOCATER V6.22                                                      01/10/2015  21:25:33  PAGE 113


 C0:B3AAH         LINE#         82
 C0:B3B3H         LINE#         83
 C0:B3B3H         LINE#         84
 C0:B3B5H         LINE#         85
 C0:B3C1H         LINE#         86
 C0:B3C1H         LINE#         88
 C0:B3D4H         LINE#         91
 C0:B3D7H         LINE#         93
 C0:B3DDH         LINE#         95
 C0:B3DDH         LINE#         96
 C0:B3DDH         LINE#         98
 C0:B3E0H         LINE#         99
 C0:B3F3H         LINE#         100
  -------         ENDPROC       _IHAL_TST_SLAVE_TX_DMA
 C0:C21BH         SYMBOL        L?0036

  -------         PROC BANK=0   _IHAL_TST_RX
  X:36E4H         SYMBOL        data_size
  X:36E4H         SYMBOL        num_pkts_in
  -------         DO            
  X:36E6H         SYMBOL        spi_rx_pkts
  X:36EAH         SYMBOL        spi_rx_bytes
  X:36EEH         SYMBOL        spi_rx_crc_err
  X:36F0H         SYMBOL        spi_rx_bad_cmd
  X:36F2H         SYMBOL        spi_rx_bad_len
  X:36F4H         SYMBOL        dma_mode
  X:36F5H         SYMBOL        abort_test
  D:0007H         SYMBOL        c
  -------         ENDDO         
 C0:C12DH         LINE#         105
 C0:C135H         LINE#         107
 C0:C135H         LINE#         114
 C0:C13AH         LINE#         117
 C0:C13EH         LINE#         118
 C0:C13EH         LINE#         120
 C0:C141H         LINE#         121
 C0:C144H         LINE#         122
 C0:C144H         LINE#         123
 C0:C14AH         LINE#         124
 C0:C15CH         LINE#         125
 C0:C15CH         LINE#         126
 C0:C16CH         LINE#         128
 C0:C16FH         LINE#         130
 C0:C175H         LINE#         131
 C0:C175H         LINE#         132
 C0:C177H         LINE#         133
 C0:C189H         LINE#         134
 C0:C189H         LINE#         135
 C0:C199H         LINE#         137
 C0:C19CH         LINE#         138
 C0:C1A1H         LINE#         139
 C0:C1A1H         LINE#         140
 C0:C1A1H         LINE#         141
 C0:C1A4H         LINE#         142
 C0:C1B5H         LINE#         143
 C0:C1B5H         LINE#         144
 C0:C1B5H         LINE#         145
BL51 BANKED LINKER/LOCATER V6.22                                                      01/10/2015  21:25:33  PAGE 114


 C0:C1B8H         LINE#         147
 C0:C1BBH         LINE#         149
 C0:C1BBH         LINE#         150
 C0:C1BBH         LINE#         152
 C0:C1BEH         LINE#         154
 C0:C1C1H         LINE#         155
 C0:C1DCH         LINE#         157
 C0:C1F9H         LINE#         160
 C0:C21BH         LINE#         162
  -------         ENDPROC       _IHAL_TST_RX
  -------         ENDMOD        IHAL_TST

  -------         MODULE        HAL_HPGP
  C:0000H         SYMBOL        _ICE_DUMMY_
 C1:D039H         PUBLIC        _HHAL_DisableLMBcnBuf
  X:3BF4H         PUBLIC        gCCO_BTS
 C1:CB44H         PUBLIC        hal_hpgp_mac_monitoring
 C1:CF9AH         PUBLIC        _HHAL_GetPlcTxQFreeDescCnt
 C1:C9B5H         PUBLIC        _HHAL_SetCsmaRegions
  X:3BF8H         PUBLIC        OldCCOBpst
  X:3BFCH         PUBLIC        gsyncTimeout
  X:3BFDH         PUBLIC        gAltEksTstArr
 C1:D0BDH         PUBLIC        HHAL_ClearBcnInit
 C1:A8F9H         PUBLIC        HHAL_Init
 C1:CF6DH         PUBLIC        HHAL_SetDefAddrConfig
  X:3C08H         PUBLIC        gHpgpHalCB
 C1:CE87H         PUBLIC        _HHAL_PhyPgmRoboMd
  X:3E2EH         PUBLIC        gRollOver
 C1:C765H         PUBLIC        _HHAL_RemovePPEK
  X:3E2FH         PUBLIC        gbpst
 C1:CD62H         PUBLIC        FREQDET_DetectFrequencyUsingBcn
  X:3E33H         PUBLIC        gBcnPer
 C1:CBF8H         PUBLIC        _HHAL_SetSWStatReqScanFlag
  X:3E37H         PUBLIC        gavg
 C1:CF0FH         PUBLIC        _HHAL_SetDiagMode
 C1:C618H         PUBLIC        FREQDET_DetectFrequencyUsingZC
  X:3E3BH         PUBLIC        gBPSTdelta
 C1:CC82H         PUBLIC        _set_plc_paramter
 C1:D08AH         PUBLIC        HHAL_GetSnid
 C1:BB34H         PUBLIC        doSynchronization
 C1:CA85H         PUBLIC        _HHAL_AdjustNextBcnTime
 C1:B735H         PUBLIC        _HHAL_AddPPEK
  X:3E3FH         PUBLIC        gNegativeflag
 C1:CDCDH         PUBLIC        _HHAL_SetSnid
  X:3E40H         PUBLIC        avg
  X:3E44H         PUBLIC        TCC_REG_485_486_val
 C1:D09BH         PUBLIC        HHAL_GetTei
 C1:CCF3H         PUBLIC        HHAL_ResetPlcStat
 C1:B332H         PUBLIC        _HHAL_SyncNet
  X:3E54H         PUBLIC        TX_RXLatency_TCC
 C1:CE2BH         PUBLIC        _HHAL_RemoveNEK
 C1:D01FH         PUBLIC        _HHAL_SetTei
  X:3E74H         PUBLIC        gbpst1
  X:3E78H         PUBLIC        gDefNID
 C1:C04AH         PUBLIC        _HHAL_SetDevMode
 C1:C890H         PUBLIC        _HHT_GetMinMaxLen
 C1:D066H         PUBLIC        HHAL_SetBcnInit
BL51 BANKED LINKER/LOCATER V6.22                                                      01/10/2015  21:25:33  PAGE 115


  X:3E7FH         PUBLIC        oldss1
  X:3E83H         PUBLIC        zcCCONTB_OLD
  X:3E87H         PUBLIC        zcFlag
  X:3E88H         PUBLIC        zcCCONTBold
  X:3E8CH         PUBLIC        AC_MIN_THRESHOLD
  X:3E90H         PUBLIC        oldRetrievedBTS
 C1:A000H         PUBLIC        _HHT_SimulateTx
  X:3E94H         PUBLIC        PLC_MIN_AC_BPLEN
  X:3E98H         PUBLIC        firsttime
  X:3E99H         PUBLIC        gPositiveflag
  X:3E9AH         PUBLIC        PLC_MAX_AC_BPLEN
  X:3E9EH         PUBLIC        testflag
 C1:C2B1H         PUBLIC        _FREQDET_FreqSetting
 C1:D050H         PUBLIC        HHAL_AFEInit
  X:3E9FH         PUBLIC        prevCsmaRgns
  X:3EABH         PUBLIC        gBcnMissingRescanCnt
 C1:D0C9H         PUBLIC        FREQDET_FreqDetectReset
  X:3EACH         PUBLIC        goldbpst
  X:3EB0H         PUBLIC        PLC_DC_LINE_CYCLE_FREQENCY
  X:3EB4H         PUBLIC        gAltRoboLenArr
  X:3EBCH         PUBLIC        avgdone
 C1:BDC9H         PUBLIC        _HHAL_AddNEK
 C1:D079H         PUBLIC        HHAL_GetPlcDevMode
  X:3EBDH         PUBLIC        avgcount
 C1:CF3EH         PUBLIC        hal_hpgp_soft_reset
 C1:CFC1H         PUBLIC        _HHAL_SetDiagModeNoSack
  X:3EBEH         PUBLIC        gOldBTS
 C1:C474H         PUBLIC        plc_init_parameters
 C1:D0C3H         PUBLIC        FREQDET_FreqDetectInit
 C1:D005H         PUBLIC        _HHAL_SetPlcDevMode
  X:3EC2H         PUBLIC        zctrack
  X:3EC3H         PUBLIC        PLC_AC_BP_LEN
  X:3EC7H         PUBLIC        PLC_DC_BP_LEN
 C1:CED9H         PUBLIC        _HHAL_SetLMBcnBuf
  X:3ECBH         PUBLIC        cnt5
 C1:D0AAH         PUBLIC        HHAL_PowerSaveConfig
 C1:CFE4H         PUBLIC        hhal_setStaSnidValid
  X:3ECFH         PUBLIC        gpHhalCb
 C1:AE8BH         SYMBOL        Com01CC
 C1:AE8BH         SYMBOL        L?0461
 C1:AE8EH         SYMBOL        L?0462
 C1:AE98H         SYMBOL        L?0463
 C1:AE9BH         SYMBOL        L?0464
 C1:AEA4H         SYMBOL        L?0465
 C1:AEA7H         SYMBOL        L?0466
 C1:AEB0H         SYMBOL        L?0467
 C1:AEB3H         SYMBOL        L?0468
 C1:AEB6H         SYMBOL        L?0469
 C1:AEC0H         SYMBOL        L?0470
 C1:AEC0H         SYMBOL        L?0471
 C1:AEC7H         SYMBOL        L?0472
 C1:AECAH         SYMBOL        L?0473
 C1:AECDH         SYMBOL        L?0474
 C1:AED0H         SYMBOL        L?0475
 C1:AED6H         SYMBOL        L?0476
 C1:AEF0H         SYMBOL        L?0477
 C1:AEFDH         SYMBOL        L?0478
BL51 BANKED LINKER/LOCATER V6.22                                                      01/10/2015  21:25:33  PAGE 116


 C1:AEFDH         SYMBOL        L?0479
 C1:AF00H         SYMBOL        L?0480
 C1:AF03H         SYMBOL        L?0481
 C1:AF0DH         SYMBOL        L?0482
 C1:AF0DH         SYMBOL        L?0483
 C1:AF10H         SYMBOL        L?0484
 C1:AF13H         SYMBOL        L?0485
 C1:AF1DH         SYMBOL        L?0486
 C1:AF1DH         SYMBOL        L?0487
 C1:AF20H         SYMBOL        L?0488
 C1:AF23H         SYMBOL        L?0489
 C1:AF26H         SYMBOL        L?0490
 C1:AF2CH         SYMBOL        L?0491
 C1:AF2FH         SYMBOL        L?0492
 C1:AF3BH         SYMBOL        L?0493
 C1:AF3EH         SYMBOL        L?0494
 C1:AF41H         SYMBOL        L?0495
 C1:AF49H         SYMBOL        L?0496
 C1:AF4CH         SYMBOL        L?0497
 C1:AF57H         SYMBOL        L?0498
 C1:AF57H         SYMBOL        L?0499
 C1:AF64H         SYMBOL        L?0500
 C1:AF64H         SYMBOL        L?0501
 C1:AF67H         SYMBOL        L?0502
 C1:AF71H         SYMBOL        L?0503
 C1:AF74H         SYMBOL        L?0504
 C1:AF79H         SYMBOL        L?0505
 C1:AF80H         SYMBOL        L?0506
 C1:AF80H         SYMBOL        L?0507
 C1:AF86H         SYMBOL        L?0508
 C1:AF89H         SYMBOL        L?0509
 C1:AF91H         SYMBOL        L?0510
 C1:AFA2H         SYMBOL        L?0511
 C1:AFA8H         SYMBOL        L?0512
 C1:AFA8H         SYMBOL        L?0513
 C1:AFAAH         SYMBOL        L?0514
 C1:AFB6H         SYMBOL        L?0515
 C1:AFB6H         SYMBOL        L?0516
 C1:AFB9H         SYMBOL        L?0517
 C1:AFBAH         SYMBOL        L?0518
 C1:AFC0H         SYMBOL        L?0521
 C1:AFD4H         SYMBOL        L?0522
 C1:AFD6H         SYMBOL        L?0523
 C1:AFDDH         SYMBOL        L?0525
 C1:AFEDH         SYMBOL        L?0526
 C1:B002H         SYMBOL        L?0527
 C1:B003H         SYMBOL        L?0528
 C1:B009H         SYMBOL        L?0530
 C1:B009H         SYMBOL        L?0531
 C1:B00CH         SYMBOL        L?0532
 C1:B018H         SYMBOL        L?0535
 C1:B018H         SYMBOL        L?0536
 C1:B01EH         SYMBOL        L?0537
 C1:B024H         SYMBOL        L?0540
 C1:B027H         SYMBOL        L?0541
 C1:B030H         SYMBOL        L?0542
 C1:B030H         SYMBOL        L?0543
BL51 BANKED LINKER/LOCATER V6.22                                                      01/10/2015  21:25:33  PAGE 117


 C1:B036H         SYMBOL        L?0544
 C1:B040H         SYMBOL        L?0545
 C1:B040H         SYMBOL        L?0546
 C1:B041H         SYMBOL        L?0547
 C1:B047H         SYMBOL        L?0548
 C1:B047H         SYMBOL        L?0549
 C1:B050H         SYMBOL        L?0552
 C1:B062H         SYMBOL        L?0554
 C1:B062H         SYMBOL        L?0555
 C1:B072H         SYMBOL        L?0556
 C1:B075H         SYMBOL        L?0557
 C1:B07CH         SYMBOL        L?0559
 C1:B097H         SYMBOL        L?0560
 C1:B098H         SYMBOL        L?0561
 C1:B0A7H         SYMBOL        L?0562
 C1:B0AAH         SYMBOL        L?0563
 C1:B0B7H         SYMBOL        L?0564
 C1:B0B8H         SYMBOL        L?0565
 C1:B0BEH         SYMBOL        L?0566
 C1:B0BEH         SYMBOL        L?0567
 C1:B0C0H         SYMBOL        L?0568
 C1:B0C7H         SYMBOL        L?0569
 C1:B0CBH         SYMBOL        L?0570
 C1:B0D4H         SYMBOL        L?0571
 C1:B0D4H         SYMBOL        L?0572
 C1:B0DEH         SYMBOL        L?0573
 C1:B0DFH         SYMBOL        L?0574
 C1:B0E8H         SYMBOL        L?0575
 C1:B0ECH         SYMBOL        L?0576
 C1:B0F3H         SYMBOL        L?0577
 C1:B0F9H         SYMBOL        L?0578
 C1:B0FFH         SYMBOL        L?0579
 C1:B0FFH         SYMBOL        L?0580
 C1:B10CH         SYMBOL        L?0581
 C1:B116H         SYMBOL        L?0582
 C1:B11EH         SYMBOL        L?0583
 C1:B11EH         SYMBOL        L?0584
 C1:B121H         SYMBOL        L?0585
 C1:B127H         SYMBOL        L?0589
 C1:B132H         SYMBOL        L?0590
 C1:B139H         SYMBOL        L?0591
 C1:B14EH         SYMBOL        L?0592
 C1:B159H         SYMBOL        L?0594
 C1:B159H         SYMBOL        L?0595
 C1:B161H         SYMBOL        L?0596
 C1:B175H         SYMBOL        L?0598
 C1:B175H         SYMBOL        L?0599
 C1:B17BH         SYMBOL        L?0600
 C1:B17BH         SYMBOL        L?0601
 C1:B181H         SYMBOL        L?0602
 C1:B187H         SYMBOL        L?0603
 C1:B18FH         SYMBOL        L?0604
 C1:B19EH         SYMBOL        L?0605
 C1:B1AFH         SYMBOL        L?0606
 C1:B1B0H         SYMBOL        L?0607
 C1:B1B7H         SYMBOL        L?0608
 C1:B1C8H         SYMBOL        L?0609
BL51 BANKED LINKER/LOCATER V6.22                                                      01/10/2015  21:25:33  PAGE 118


 C1:B1C8H         SYMBOL        L?0610
 C1:B1CEH         SYMBOL        L?0611
 C1:B1D1H         SYMBOL        L?0612
 C1:B1D7H         SYMBOL        L?0613
 C1:B1DDH         SYMBOL        L?0614
 C1:B1E4H         SYMBOL        L?0615
 C1:B1E4H         SYMBOL        L?0616
 C1:B1ECH         SYMBOL        L?0617
 C1:B1ECH         SYMBOL        L?0618
 C1:B1F4H         SYMBOL        L?0619
 C1:B1FDH         SYMBOL        L?0620
 C1:B1FDH         SYMBOL        L?0621
 C1:B204H         SYMBOL        L?0622
 C1:B20AH         SYMBOL        L?0623
 C1:B210H         SYMBOL        L?0624
 C1:B210H         SYMBOL        L?0625
 C1:B21AH         SYMBOL        L?0627
 C1:B21BH         SYMBOL        L?0628
 C1:B224H         SYMBOL        L?0629
 C1:B233H         SYMBOL        L?0630
 C1:B23DH         SYMBOL        L?0631
 C1:B24BH         SYMBOL        L?0632
 C1:B259H         SYMBOL        L?0633
 C1:B266H         SYMBOL        L?0634
 C1:B269H         SYMBOL        L?0635
 C1:B26FH         SYMBOL        L?0636
 C1:B276H         SYMBOL        L?0637
 C1:B282H         SYMBOL        L?0638
 C1:B284H         SYMBOL        L?0639
 C1:B28AH         SYMBOL        L?0640
 C1:B296H         SYMBOL        L?0641
 C1:B2A2H         SYMBOL        L?0642
 C1:B2AEH         SYMBOL        L?0643
 C1:B2B9H         SYMBOL        L?0645
 C1:B2C4H         SYMBOL        L?0646
 C1:B2CFH         SYMBOL        L?0647
 C1:B2DAH         SYMBOL        L?0649
 C1:B2DAH         SYMBOL        L?0650
 C1:B2E0H         SYMBOL        L?0651
 C1:B2E0H         SYMBOL        L?0652
 C1:B2E6H         SYMBOL        L?0653
 C1:B2E6H         SYMBOL        L?0654
 C1:B2ECH         SYMBOL        L?0655
 C1:B2ECH         SYMBOL        L?0656
 C1:B2F2H         SYMBOL        L?0657
 C1:B2F2H         SYMBOL        L?0658
 C1:B2F9H         SYMBOL        L?0659
 C1:B300H         SYMBOL        L?0660
 C1:B300H         SYMBOL        L?0661
 C1:B30AH         SYMBOL        L?0662
 C1:B313H         SYMBOL        L?0663
 C1:B313H         SYMBOL        L?0664
 C1:B319H         SYMBOL        L?0665
 C1:B322H         SYMBOL        L?0666
 C1:B32CH         SYMBOL        L?0667
 C1:B32CH         SYMBOL        L?0668
  -------         PROC          COM01CC
BL51 BANKED LINKER/LOCATER V6.22                                                      01/10/2015  21:25:33  PAGE 119


  -------         ENDPROC       COM01CC

  -------         PROC BANK=1   _HHT_GETMINMAXLEN
  X:3AEAH         SYMBOL        pTestParams
  X:3AEDH         SYMBOL        stdModeSel
  X:3AF0H         SYMBOL        minFrmLen
  X:3AF3H         SYMBOL        maxFrmLen
 C1:C890H         LINE#         556
 C1:C896H         LINE#         557
 C1:C896H         LINE#         558
 C1:C89FH         LINE#         559
 C1:C89FH         LINE#         560
 C1:C8A4H         LINE#         561
 C1:C8A4H         LINE#         562
 C1:C8A9H         LINE#         563
 C1:C8B5H         LINE#         564
 C1:C8B8H         LINE#         565
 C1:C8BDH         LINE#         566
 C1:C8BDH         LINE#         567
 C1:C8C8H         LINE#         568
 C1:C8D7H         LINE#         569
 C1:C8DCH         LINE#         570
 C1:C8DFH         LINE#         571
 C1:C8E6H         LINE#         572
 C1:C8E6H         LINE#         573
 C1:C8F5H         LINE#         574
 C1:C904H         LINE#         575
 C1:C908H         LINE#         576
 C1:C90BH         LINE#         577
 C1:C910H         LINE#         578
 C1:C910H         LINE#         579
 C1:C91BH         LINE#         580
 C1:C92AH         LINE#         581
 C1:C92DH         LINE#         582
 C1:C934H         LINE#         583
 C1:C934H         LINE#         584
 C1:C943H         LINE#         585
 C1:C952H         LINE#         586
 C1:C955H         LINE#         587
 C1:C95AH         LINE#         588
 C1:C95AH         LINE#         589
 C1:C965H         LINE#         590
 C1:C974H         LINE#         591
 C1:C974H         LINE#         592
 C1:C976H         LINE#         593
 C1:C97BH         LINE#         594
 C1:C97BH         LINE#         595
 C1:C983H         LINE#         596
 C1:C988H         LINE#         597
 C1:C997H         LINE#         598
 C1:C999H         LINE#         599
 C1:C99FH         LINE#         600
 C1:C99FH         LINE#         601
 C1:C9A7H         LINE#         602
 C1:C9B4H         LINE#         603
 C1:C9B4H         LINE#         604
  -------         ENDPROC       _HHT_GETMINMAXLEN
BL51 BANKED LINKER/LOCATER V6.22                                                      01/10/2015  21:25:33  PAGE 120


 C1:A8C8H         SYMBOL        L?0520

  -------         PROC BANK=1   _HHT_SIMULATETX
  X:39E7H         SYMBOL        pTestParams
  -------         DO            
  X:39EAH         SYMBOL        Sw_command_queue
  X:3A0AH         SYMBOL        cmd_num
  X:3A0BH         SYMBOL        plcTxFrmSwDesc
  X:3A48H         SYMBOL        stdModeSel
  X:3A49H         SYMBOL        stdRoboFrmLenMax
  X:3A4BH         SYMBOL        minFrmLen
  X:3A4CH         SYMBOL        maxFrmLen
  X:3A4DH         SYMBOL        curFrmLen
  X:3A4FH         SYMBOL        mcstMode
  X:3A50H         SYMBOL        frmType
  X:3A51H         SYMBOL        tmpFrmLen
  X:3A53H         SYMBOL        curOffsetDW
  X:3A54H         SYMBOL        curDescLen
  X:3A55H         SYMBOL        eksArrIdx
  X:3A56H         SYMBOL        altPlid
  X:3A57H         SYMBOL        altRoboLenIdx
  X:3A58H         SYMBOL        status
  X:3A59H         SYMBOL        i
  X:3A5AH         SYMBOL        c
  X:3A5BH         SYMBOL        j
  X:3A5DH         SYMBOL        quit
  X:3A5EH         SYMBOL        tmpPayloadLen
  X:3A60H         SYMBOL        cp_localBuf
  X:3AE0H         SYMBOL        dbc_pktchange
  -------         DO            
  X:3AE1H         SYMBOL        frmData
  -------         DO            
  X:3AE2H         SYMBOL        cp
  X:3AE3H         SYMBOL        tmpOffsetDW
  X:3AE4H         SYMBOL        tmpOffsetByte
  X:3AE5H         SYMBOL        tmpDescLen
  X:3AE6H         SYMBOL        remDescLen
  X:3AE7H         SYMBOL        actualDescLen
  X:3AE8H         SYMBOL        cellAddr
  X:3AE2H         SYMBOL        pkt_retry
  -------         ENDDO         
  -------         DO            
  X:3AE2H         SYMBOL        pkt_retry
  -------         ENDDO         
  -------         DO            
  X:3AE2H         SYMBOL        delay64ticks
  -------         DO            
  X:3AE6H         SYMBOL        userInput
  -------         ENDDO         
  -------         ENDDO         
  -------         DO            
  X:3AE2H         SYMBOL        p
  -------         ENDDO         
  -------         ENDDO         
  -------         ENDDO         
 C1:A000H         LINE#         606
 C1:A006H         LINE#         607
BL51 BANKED LINKER/LOCATER V6.22                                                      01/10/2015  21:25:33  PAGE 121


 C1:A006H         LINE#         641
 C1:A00BH         LINE#         642
 C1:A00FH         LINE#         643
 C1:A013H         LINE#         644
 C1:A015H         LINE#         645
 C1:A019H         LINE#         647
 C1:A01DH         LINE#         650
 C1:A02AH         LINE#         653
 C1:A049H         LINE#         655
 C1:A054H         LINE#         656
 C1:A059H         LINE#         657
 C1:A05CH         LINE#         658
 C1:A065H         LINE#         660
 C1:A06BH         LINE#         661
 C1:A06BH         LINE#         662
 C1:A072H         LINE#         663
 C1:A075H         LINE#         664
 C1:A078H         LINE#         665
 C1:A07CH         LINE#         666
 C1:A07CH         LINE#         667
 C1:A07CH         LINE#         668
 C1:A07FH         LINE#         669
 C1:A082H         LINE#         670
 C1:A08DH         LINE#         671
 C1:A08DH         LINE#         672
 C1:A094H         LINE#         673
 C1:A099H         LINE#         674
 C1:A0A3H         LINE#         675
 C1:A0B4H         LINE#         676
 C1:A0CBH         LINE#         677
 C1:A0CDH         LINE#         678
 C1:A0D1H         LINE#         679
 C1:A0D1H         LINE#         680
 C1:A0D1H         LINE#         681
 C1:A0D4H         LINE#         682
 C1:A0D7H         LINE#         683
 C1:A0D9H         LINE#         684
 C1:A0DFH         LINE#         685
 C1:A0DFH         LINE#         686
 C1:A0DFH         LINE#         687
 C1:A0E2H         LINE#         688
 C1:A0E8H         LINE#         689
 C1:A0E8H         LINE#         691
 C1:A0F2H         LINE#         692
 C1:A0F4H         LINE#         693
 C1:A0F4H         LINE#         694
 C1:A0F7H         LINE#         695
 C1:A0F9H         LINE#         697
 C1:A0F9H         LINE#         698
 C1:A0FFH         LINE#         699
 C1:A0FFH         LINE#         701
 C1:A102H         LINE#         702
 C1:A102H         LINE#         703
 C1:A102H         LINE#         704
 C1:A102H         LINE#         706
 C1:A102H         LINE#         707
 C1:A107H         LINE#         708
BL51 BANKED LINKER/LOCATER V6.22                                                      01/10/2015  21:25:33  PAGE 122


 C1:A107H         LINE#         711
 C1:A10FH         LINE#         714
 C1:A119H         LINE#         717
 C1:A120H         LINE#         718
 C1:A120H         LINE#         719
 C1:A145H         LINE#         721
 C1:A15FH         LINE#         722
 C1:A16CH         LINE#         723
 C1:A17FH         LINE#         724
 C1:A181H         LINE#         726
 C1:A181H         LINE#         728
 C1:A191H         LINE#         729
 C1:A191H         LINE#         730
 C1:A198H         LINE#         731
 C1:A19BH         LINE#         732
 C1:A19EH         LINE#         733
 C1:A1A8H         LINE#         736
 C1:A1A8H         LINE#         737
 C1:A1A8H         LINE#         738
 C1:A1ADH         LINE#         739
 C1:A1B3H         LINE#         740
 C1:A1B9H         LINE#         742
 C1:A1C2H         LINE#         743
 C1:A1C2H         LINE#         744
 C1:A1D1H         LINE#         745
 C1:A1D1H         LINE#         747
 C1:A1D9H         LINE#         748
 C1:A1DBH         LINE#         750
 C1:A1DBH         LINE#         752
 C1:A203H         LINE#         754
 C1:A203H         LINE#         757
 C1:A211H         LINE#         758
 C1:A211H         LINE#         759
 C1:A218H         LINE#         760
 C1:A218H         LINE#         761
 C1:A221H         LINE#         762
 C1:A223H         LINE#         763
 C1:A22AH         LINE#         764
 C1:A22AH         LINE#         765
 C1:A22DH         LINE#         766
 C1:A22DH         LINE#         767
 C1:A230H         LINE#         768
 C1:A238H         LINE#         769
 C1:A238H         LINE#         770
 C1:A23BH         LINE#         771
 C1:A23BH         LINE#         772
 C1:A23BH         LINE#         773
 C1:A23DH         LINE#         774
 C1:A241H         LINE#         775
 C1:A241H         LINE#         776
 C1:A249H         LINE#         777
 C1:A249H         LINE#         778
 C1:A24CH         LINE#         779
 C1:A253H         LINE#         780
 C1:A253H         LINE#         781
 C1:A271H         LINE#         782
 C1:A271H         LINE#         783
BL51 BANKED LINKER/LOCATER V6.22                                                      01/10/2015  21:25:33  PAGE 123


 C1:A276H         LINE#         784
 C1:A276H         LINE#         785
 C1:A278H         LINE#         787
 C1:A278H         LINE#         788
 C1:A27EH         LINE#         789
 C1:A27EH         LINE#         790
 C1:A27EH         LINE#         791
 C1:A281H         LINE#         792
 C1:A285H         LINE#         793
 C1:A285H         LINE#         794
 C1:A28AH         LINE#         795
 C1:A28AH         LINE#         796
 C1:A28EH         LINE#         797
 C1:A28EH         LINE#         798
 C1:A290H         LINE#         800
 C1:A290H         LINE#         801
 C1:A296H         LINE#         802
 C1:A296H         LINE#         803
 C1:A296H         LINE#         804
 C1:A298H         LINE#         805
 C1:A29EH         LINE#         806
 C1:A29EH         LINE#         807
 C1:A2A1H         LINE#         808
 C1:A2A1H         LINE#         809
 C1:A2A3H         LINE#         810
 C1:A2A7H         LINE#         811
 C1:A2A7H         LINE#         813
 C1:A2ACH         LINE#         814
 C1:A2ACH         LINE#         815
 C1:A2B0H         LINE#         816
 C1:A2B0H         LINE#         817
 C1:A2B2H         LINE#         819
 C1:A2B2H         LINE#         820
 C1:A2B8H         LINE#         821
 C1:A2B8H         LINE#         822
 C1:A2B8H         LINE#         823
 C1:A2BAH         LINE#         824
 C1:A2C0H         LINE#         825
 C1:A2C0H         LINE#         826
 C1:A2C5H         LINE#         827
 C1:A2C5H         LINE#         828
 C1:A2CBH         LINE#         829
 C1:A2D1H         LINE#         830
 C1:A2D3H         LINE#         832
 C1:A2D3H         LINE#         833
 C1:A2D9H         LINE#         834
 C1:A2D9H         LINE#         835
 C1:A2D9H         LINE#         836
 C1:A2DBH         LINE#         837
 C1:A2DFH         LINE#         838
 C1:A2DFH         LINE#         839
 C1:A2E4H         LINE#         840
 C1:A2E4H         LINE#         841
 C1:A2E5H         LINE#         842
 C1:A2E5H         LINE#         843
 C1:A2E7H         LINE#         845
 C1:A2E7H         LINE#         846
BL51 BANKED LINKER/LOCATER V6.22                                                      01/10/2015  21:25:33  PAGE 124


 C1:A2EEH         LINE#         847
 C1:A2F3H         LINE#         848
 C1:A2F3H         LINE#         849
 C1:A2F3H         LINE#         850
 C1:A2F3H         LINE#         852
 C1:A2F8H         LINE#         853
 C1:A30FH         LINE#         854
 C1:A31FH         LINE#         856
 C1:A325H         LINE#         857
 C1:A32DH         LINE#         859
 C1:A33EH         LINE#         862
 C1:A346H         LINE#         863
 C1:A346H         LINE#         864
 C1:A354H         LINE#         865
 C1:A354H         LINE#         866
 C1:A356H         LINE#         868
 C1:A35BH         LINE#         871
 C1:A36FH         LINE#         872
 C1:A36FH         LINE#         881
 C1:A371H         LINE#         882
 C1:A374H         LINE#         886
 C1:A374H         LINE#         887
 C1:A382H         LINE#         903
 C1:A384H         LINE#         905
 C1:A38DH         LINE#         906
 C1:A38DH         LINE#         907
 C1:A38DH         LINE#         908
 C1:A38DH         LINE#         910
 C1:A395H         LINE#         912
 C1:A3A6H         LINE#         914
 C1:A3A6H         LINE#         915
 C1:A3AEH         LINE#         916
 C1:A3AEH         LINE#         917
 C1:A3B4H         LINE#         918
 C1:A3B9H         LINE#         919
 C1:A3BEH         LINE#         920
 C1:A3C1H         LINE#         921
 C1:A3C4H         LINE#         922
 C1:A3C4H         LINE#         923
 C1:A3C4H         LINE#         924
 C1:A3C7H         LINE#         926
 C1:A3C7H         LINE#         927
 C1:A3C7H         LINE#         928
 C1:A3C9H         LINE#         929
 C1:A3D2H         LINE#         930
 C1:A3D2H         LINE#         931
 C1:A3D3H         LINE#         932
 C1:A3D6H         LINE#         933
 C1:A3D8H         LINE#         935
 C1:A3D8H         LINE#         936
 C1:A3DDH         LINE#         937
 C1:A3E3H         LINE#         938
 C1:A3E3H         LINE#         940
 C1:A3EDH         LINE#         941
 C1:A414H         LINE#         942
 C1:A418H         LINE#         944
 C1:A429H         LINE#         945
BL51 BANKED LINKER/LOCATER V6.22                                                      01/10/2015  21:25:33  PAGE 125


 C1:A429H         LINE#         946
 C1:A45DH         LINE#         948
 C1:A45DH         LINE#         956
 C1:A46DH         LINE#         958
 C1:A476H         LINE#         962
 C1:A47CH         LINE#         963
 C1:A47CH         LINE#         964
 C1:A486H         LINE#         965
 C1:A486H         LINE#         972
 C1:A49AH         LINE#         974
 C1:A4A8H         LINE#         977
 C1:A4AEH         LINE#         978
 C1:A4B4H         LINE#         979
 C1:A4B6H         LINE#         981
 C1:A4B6H         LINE#         984
 C1:A4C2H         LINE#         988
 C1:A4C2H         LINE#         989
 C1:A4C2H         LINE#         991
 C1:A4CCH         LINE#         992
 C1:A4CCH         LINE#         993
 C1:A4D4H         LINE#         994
 C1:A4D4H         LINE#         995
 C1:A4E4H         LINE#         996
 C1:A4ECH         LINE#         997
 C1:A4ECH         LINE#         999
 C1:A4ECH         LINE#         1003
 C1:A4F4H         LINE#         1004
 C1:A4F4H         LINE#         1010
 C1:A502H         LINE#         1011
 C1:A50FH         LINE#         1016
 C1:A517H         LINE#         1017
 C1:A517H         LINE#         1029
 C1:A528H         LINE#         1030
 C1:A531H         LINE#         1031
 C1:A53FH         LINE#         1032
 C1:A550H         LINE#         1033
 C1:A555H         LINE#         1034
 C1:A56EH         LINE#         1037
 C1:A57CH         LINE#         1038
 C1:A57CH         LINE#         1039
 C1:A59EH         LINE#         1040
 C1:A5A1H         LINE#         1041
 C1:A5A9H         LINE#         1042
 C1:A5A9H         LINE#         1043
 C1:A5BFH         LINE#         1044
 C1:A5C2H         LINE#         1045
 C1:A5C2H         LINE#         1055
 C1:A5C5H         LINE#         1105
 C1:A5CBH         LINE#         1106
 C1:A5CBH         LINE#         1107
 C1:A5D1H         LINE#         1109
 C1:A5D1H         LINE#         1113
 C1:A5DFH         LINE#         1117
 C1:A5E2H         LINE#         1118
 C1:A5E2H         LINE#         1119
 C1:A5E8H         LINE#         1123
 C1:A5F0H         LINE#         1124
BL51 BANKED LINKER/LOCATER V6.22                                                      01/10/2015  21:25:33  PAGE 126


 C1:A5FFH         LINE#         1125
 C1:A5FFH         LINE#         1127
 C1:A610H         LINE#         1129
 C1:A610H         LINE#         1130
 C1:A612H         LINE#         1131
 C1:A612H         LINE#         1132
 C1:A612H         LINE#         1135
 C1:A61AH         LINE#         1139
 C1:A61DH         LINE#         1140
 C1:A61DH         LINE#         1142
 C1:A623H         LINE#         1143
 C1:A625H         LINE#         1144
 C1:A625H         LINE#         1145
 C1:A62DH         LINE#         1146
 C1:A634H         LINE#         1147
 C1:A634H         LINE#         1150
 C1:A63DH         LINE#         1151
 C1:A63DH         LINE#         1152
 C1:A649H         LINE#         1153
 C1:A64EH         LINE#         1156
 C1:A670H         LINE#         1159
 C1:A678H         LINE#         1160
 C1:A678H         LINE#         1161
 C1:A695H         LINE#         1162
 C1:A697H         LINE#         1164
 C1:A697H         LINE#         1165
 C1:A6A6H         LINE#         1166
 C1:A6A6H         LINE#         1169
 C1:A6B1H         LINE#         1170
 C1:A6B1H         LINE#         1171
 C1:A6B8H         LINE#         1172
 C1:A6B8H         LINE#         1173
 C1:A6B9H         LINE#         1174
 C1:A6BCH         LINE#         1175
 C1:A6BEH         LINE#         1177
 C1:A6BEH         LINE#         1178
 C1:A6C4H         LINE#         1179
 C1:A6CAH         LINE#         1180
 C1:A6CAH         LINE#         1181
 C1:A6CAH         LINE#         1183
 C1:A6D5H         LINE#         1184
 C1:A6D5H         LINE#         1186
 C1:A6DAH         LINE#         1187
 C1:A6DAH         LINE#         1188
 C1:A6E0H         LINE#         1189
 C1:A6E8H         LINE#         1190
 C1:A6E8H         LINE#         1191
 C1:A6E8H         LINE#         1192
 C1:A6EBH         LINE#         1193
 C1:A6EBH         LINE#         1194
 C1:A6EEH         LINE#         1196
 C1:A6F8H         LINE#         1197
 C1:A6F8H         LINE#         1198
 C1:A6FEH         LINE#         1199
 C1:A719H         LINE#         1200
 C1:A719H         LINE#         1201
 C1:A71BH         LINE#         1202
BL51 BANKED LINKER/LOCATER V6.22                                                      01/10/2015  21:25:33  PAGE 127


 C1:A723H         LINE#         1203
 C1:A739H         LINE#         1205
 C1:A739H         LINE#         1207
 C1:A73EH         LINE#         1208
 C1:A73EH         LINE#         1209
 C1:A73EH         LINE#         1210
 C1:A741H         LINE#         1211
 C1:A747H         LINE#         1212
 C1:A747H         LINE#         1213
 C1:A749H         LINE#         1215
 C1:A753H         LINE#         1216
 C1:A753H         LINE#         1217
 C1:A771H         LINE#         1218
 C1:A771H         LINE#         1219
 C1:A773H         LINE#         1221
 C1:A773H         LINE#         1222
 C1:A77AH         LINE#         1223
 C1:A77EH         LINE#         1224
 C1:A782H         LINE#         1225
 C1:A78AH         LINE#         1227
 C1:A78FH         LINE#         1228
 C1:A78FH         LINE#         1230
 C1:A78FH         LINE#         1232
 C1:A79BH         LINE#         1233
 C1:A79BH         LINE#         1234
 C1:A7A4H         LINE#         1235
 C1:A7C8H         LINE#         1236
 C1:A7C8H         LINE#         1239
 C1:A7D3H         LINE#         1240
 C1:A7D3H         LINE#         1241
 C1:A7EFH         LINE#         1243
 C1:A7FBH         LINE#         1244
 C1:A7FBH         LINE#         1245
 C1:A800H         LINE#         1246
 C1:A800H         LINE#         1247
 C1:A800H         LINE#         1250
 C1:A817H         LINE#         1251
 C1:A817H         LINE#         1252
 C1:A826H         LINE#         1253
 C1:A82EH         LINE#         1254
 C1:A82EH         LINE#         1255
 C1:A837H         LINE#         1256
 C1:A837H         LINE#         1257
 C1:A837H         LINE#         1259
 C1:A83FH         LINE#         1263
 C1:A849H         LINE#         1264
 C1:A849H         LINE#         1266
 C1:A849H         LINE#         1267
 C1:A849H         LINE#         1268
 C1:A852H         LINE#         1269
 C1:A852H         LINE#         1271
 C1:A852H         LINE#         1272
 C1:A854H         LINE#         1273
 C1:A854H         LINE#         1274
 C1:A854H         LINE#         1275
 C1:A854H         LINE#         1277
 C1:A862H         LINE#         1278
BL51 BANKED LINKER/LOCATER V6.22                                                      01/10/2015  21:25:33  PAGE 128


 C1:A862H         LINE#         1279
 C1:A86AH         LINE#         1283
 C1:A872H         LINE#         1287
 C1:A875H         LINE#         1288
 C1:A875H         LINE#         1289
 C1:A87BH         LINE#         1290
 C1:A87BH         LINE#         1291
 C1:A87BH         LINE#         1292
 C1:A87BH         LINE#         1293
 C1:A87BH         LINE#         1295
 C1:A884H         LINE#         1296
 C1:A884H         LINE#         1300
 C1:A88DH         LINE#         1301
 C1:A88DH         LINE#         1306
 C1:A8A0H         LINE#         1307
 C1:A8BFH         LINE#         1308
 C1:A8C5H         LINE#         1309
 C1:A8C7H         LINE#         1315
 C1:A8C7H         LINE#         1316
 C1:A8C7H         LINE#         1317
 C1:A8C7H         LINE#         1318
  -------         ENDPROC       _HHT_SIMULATETX

  -------         PROC BANK=1   _SET_PLC_PARAMTER
  D:0003H         SYMBOL        sel
  X:3951H         SYMBOL        u32Val
  -------         DO            
  X:3955H         SYMBOL        val
  -------         ENDDO         
 C1:CC82H         LINE#         1413
 C1:CC84H         LINE#         1414
 C1:CC84H         LINE#         1420
 C1:CC8EH         LINE#         1421
 C1:CC93H         LINE#         1423
 C1:CC9CH         LINE#         1424
  -------         ENDPROC       _SET_PLC_PARAMTER

  -------         PROC BANK=1   _HHAL_PHYPGMROBOMD
  D:0004H         SYMBOL        enbRoboMdPgm
  D:0005H         SYMBOL        roboMd
  D:0003H         SYMBOL        numPBs
  -------         DO            
  X:36EEH         SYMBOL        phyRxEnbRobo
  X:36EFH         SYMBOL        phyRxRoboMd
  X:36F0H         SYMBOL        phyNumPBs
  -------         ENDDO         
 C1:CE87H         LINE#         1468
 C1:CE89H         LINE#         1469
 C1:CE89H         LINE#         1475
 C1:CE91H         LINE#         1476
 C1:CE9EH         LINE#         1477
 C1:CEA3H         LINE#         1480
 C1:CEA6H         LINE#         1481
 C1:CEA6H         LINE#         1482
 C1:CEAEH         LINE#         1483
 C1:CEBAH         LINE#         1484
 C1:CEBFH         LINE#         1487
BL51 BANKED LINKER/LOCATER V6.22                                                      01/10/2015  21:25:33  PAGE 129


 C1:CEC4H         LINE#         1488
 C1:CEC4H         LINE#         1489
 C1:CECCH         LINE#         1490
 C1:CED0H         LINE#         1491
 C1:CED3H         LINE#         1492
 C1:CED8H         LINE#         1493
 C1:CED8H         LINE#         1494
 C1:CED8H         LINE#         1495
  -------         ENDPROC       _HHAL_PHYPGMROBOMD

  -------         PROC BANK=1   _HHAL_SETPLCDEVMODE
  D:0003H         SYMBOL        plcDevMode
  -------         DO            
  X:3950H         SYMBOL        PlcDevCtrl
  -------         ENDDO         
 C1:D005H         LINE#         1532
 C1:D007H         LINE#         1533
 C1:D007H         LINE#         1535
 C1:D010H         LINE#         1536
 C1:D016H         LINE#         1537
  -------         ENDPROC       _HHAL_SETPLCDEVMODE

  -------         PROC BANK=1   _FREQDET_FREQSETTING
  D:0007H         SYMBOL        frequency
 C1:C2B1H         LINE#         1542
 C1:C2B1H         LINE#         1543
 C1:C2B1H         LINE#         1546
 C1:C2B7H         LINE#         1547
 C1:C2B7H         LINE#         1548
 C1:C2BBH         LINE#         1549
 C1:C2C3H         LINE#         1550
 C1:C2C3H         LINE#         1551
 C1:C2CDH         LINE#         1552
 C1:C2D7H         LINE#         1553
 C1:C2D7H         LINE#         1554
 C1:C2D7H         LINE#         1555
 C1:C2D7H         LINE#         1556
 C1:C2DAH         LINE#         1558
 C1:C2DAH         LINE#         1559
 C1:C2E4H         LINE#         1561
 C1:C2E4H         LINE#         1562
 C1:C329H         LINE#         1563
 C1:C333H         LINE#         1564
 C1:C33DH         LINE#         1565
 C1:C347H         LINE#         1566
 C1:C347H         LINE#         1571
 C1:C348H         LINE#         1573
 C1:C348H         LINE#         1574
 C1:C34EH         LINE#         1576
 C1:C359H         LINE#         1577
 C1:C359H         LINE#         1578
 C1:C363H         LINE#         1579
 C1:C36DH         LINE#         1580
 C1:C3BBH         LINE#         1581
 C1:C3BEH         LINE#         1582
 C1:C406H         LINE#         1583
 C1:C406H         LINE#         1585
BL51 BANKED LINKER/LOCATER V6.22                                                      01/10/2015  21:25:33  PAGE 130


 C1:C406H         LINE#         1586
 C1:C410H         LINE#         1588
 C1:C410H         LINE#         1589
 C1:C455H         LINE#         1590
 C1:C45FH         LINE#         1591
 C1:C469H         LINE#         1592
 C1:C473H         LINE#         1593
 C1:C473H         LINE#         1595
 C1:C473H         LINE#         1599
  -------         ENDPROC       _FREQDET_FREQSETTING

  -------         PROC BANK=1   HHAL_GETPLCDEVMODE
  -------         DO            
  X:36EEH         SYMBOL        PlcDevCtrl
  -------         ENDDO         
 C1:D079H         LINE#         1614
 C1:D079H         LINE#         1615
 C1:D079H         LINE#         1618
 C1:D082H         LINE#         1620
 C1:D089H         LINE#         1621
  -------         ENDPROC       HHAL_GETPLCDEVMODE

  -------         PROC BANK=1   _HHAL_SETSWSTATREQSCANFLAG
  X:3A44H         SYMBOL        scanEnb
  -------         DO            
  X:3A45H         SYMBOL        plcLineCtrl
  X:3A49H         SYMBOL        plcDevCtrl
  -------         ENDDO         
 C1:CBF8H         LINE#         1637
 C1:CBFDH         LINE#         1638
 C1:CBFDH         LINE#         1642
 C1:CC09H         LINE#         1643
 C1:CC12H         LINE#         1644
 C1:CC25H         LINE#         1646
 C1:CC2EH         LINE#         1647
 C1:CC2EH         LINE#         1648
 C1:CC35H         LINE#         1649
 C1:CC3AH         LINE#         1650
 C1:CC44H         LINE#         1651
 C1:CC49H         LINE#         1652
 C1:CC4DH         LINE#         1654
 C1:CC59H         LINE#         1656
 C1:CC59H         LINE#         1657
 C1:CC5FH         LINE#         1658
 C1:CC5FH         LINE#         1659
 C1:CC6BH         LINE#         1661
 C1:CC6BH         LINE#         1662
 C1:CC73H         LINE#         1663
 C1:CC79H         LINE#         1664
  -------         ENDPROC       _HHAL_SETSWSTATREQSCANFLAG

  -------         PROC BANK=1   HHAL_GETTEI
  -------         DO            
  X:36EEH         SYMBOL        PlcDevCtrl
  D:0007H         SYMBOL        stei
  -------         ENDDO         
 C1:D09BH         LINE#         1681
BL51 BANKED LINKER/LOCATER V6.22                                                      01/10/2015  21:25:33  PAGE 131


 C1:D09BH         LINE#         1682
 C1:D09BH         LINE#         1686
 C1:D0A4H         LINE#         1687
 C1:D0A9H         LINE#         1689
 C1:D0A9H         LINE#         1690
  -------         ENDPROC       HHAL_GETTEI

  -------         PROC BANK=1   _HHAL_SETTEI
  D:0003H         SYMBOL        stei
  -------         DO            
  X:39E7H         SYMBOL        PlcDevCtrlReg
  -------         ENDDO         
 C1:D01FH         LINE#         1705
 C1:D021H         LINE#         1706
 C1:D021H         LINE#         1709
 C1:D025H         LINE#         1713
 C1:D02EH         LINE#         1714
 C1:D033H         LINE#         1715
  -------         ENDPROC       _HHAL_SETTEI

  -------         PROC BANK=1   HHAL_GETSNID
  -------         DO            
  X:36EEH         SYMBOL        PlcDevCtrlReg
  D:0007H         SYMBOL        snid
  -------         ENDDO         
 C1:D08AH         LINE#         1731
 C1:D08AH         LINE#         1732
 C1:D08AH         LINE#         1736
 C1:D093H         LINE#         1737
 C1:D09AH         LINE#         1739
 C1:D09AH         LINE#         1740
  -------         ENDPROC       HHAL_GETSNID

  -------         PROC BANK=1   _HHAL_SETSNID
  X:3A2CH         SYMBOL        snid
  -------         DO            
  X:3A2DH         SYMBOL        PlcDevCtrlReg
  -------         ENDDO         
 C1:CDCDH         LINE#         1755
 C1:CDD3H         LINE#         1756
 C1:CDD3H         LINE#         1759
 C1:CDD6H         LINE#         1760
 C1:CDDFH         LINE#         1761
 C1:CDEBH         LINE#         1762
 C1:CDF7H         LINE#         1763
 C1:CDF7H         LINE#         1764
 C1:CDFEH         LINE#         1765
 C1:CE13H         LINE#         1767
 C1:CE15H         LINE#         1769
 C1:CE15H         LINE#         1782
 C1:CE1BH         LINE#         1783
 C1:CE22H         LINE#         1784
 C1:CE22H         LINE#         1785
  -------         ENDPROC       _HHAL_SETSNID

  -------         PROC BANK=1   _HHAL_DISABLELMBCNBUF
  D:0007H         SYMBOL        bcnType
BL51 BANKED LINKER/LOCATER V6.22                                                      01/10/2015  21:25:33  PAGE 132


 C1:D039H         LINE#         1788
 C1:D039H         LINE#         1789
 C1:D039H         LINE#         1790
 C1:D04FH         LINE#         1791
  -------         ENDPROC       _HHAL_DISABLELMBCNBUF

  -------         PROC BANK=1   _HHAL_SETLMBCNBUF
  D:0001H         SYMBOL        buff
  X:4651H         SYMBOL        bcnType
  X:4652H         SYMBOL        bpstoOffset
 C1:CED9H         LINE#         1793
 C1:CEDEH         LINE#         1794
 C1:CEDEH         LINE#         1795
 C1:CEE0H         LINE#         1796
 C1:CEE0H         LINE#         1797
 C1:CEECH         LINE#         1798
 C1:CEF4H         LINE#         1801
 C1:CEF4H         LINE#         1811
 C1:CF0EH         LINE#         1812
  -------         ENDPROC       _HHAL_SETLMBCNBUF

  -------         PROC BANK=1   _HHAL_SETCSMAREGIONS
  X:45DCH         SYMBOL        regionArr
  D:0005H         SYMBOL        regionCnt
  -------         DO            
  X:45DFH         SYMBOL        csmaRegion
  X:45E3H         SYMBOL        i
  X:45E4H         SYMBOL        csmaRegionCnt
  -------         ENDDO         
 C1:C9B5H         LINE#         1829
 C1:C9BBH         LINE#         1830
 C1:C9BBH         LINE#         1835
 C1:C9CCH         LINE#         1840
 C1:C9E1H         LINE#         1841
 C1:C9E1H         LINE#         1842
 C1:C9E6H         LINE#         1843
 C1:C9EBH         LINE#         1844
 C1:CA0AH         LINE#         1845
 C1:CA16H         LINE#         1846
 C1:CA22H         LINE#         1847
 C1:CA35H         LINE#         1848
 C1:CA4AH         LINE#         1849
 C1:CA4AH         LINE#         1850
 C1:CA4AH         LINE#         1851
 C1:CA50H         LINE#         1852
 C1:CA52H         LINE#         1853
 C1:CA52H         LINE#         1854
 C1:CA58H         LINE#         1855
 C1:CA5AH         LINE#         1856
 C1:CA5AH         LINE#         1857
 C1:CA60H         LINE#         1858
 C1:CA62H         LINE#         1859
 C1:CA62H         LINE#         1860
 C1:CA68H         LINE#         1861
 C1:CA6AH         LINE#         1862
 C1:CA6AH         LINE#         1863
 C1:CA70H         LINE#         1864
BL51 BANKED LINKER/LOCATER V6.22                                                      01/10/2015  21:25:33  PAGE 133


 C1:CA72H         LINE#         1865
 C1:CA72H         LINE#         1866
 C1:CA7BH         LINE#         1867
 C1:CA7BH         LINE#         1868
 C1:CA7BH         LINE#         1869
 C1:CA7BH         LINE#         1871
 C1:CA7BH         LINE#         1873
 C1:CA7BH         LINE#         1874
 C1:CA84H         LINE#         1875
  -------         ENDPROC       _HHAL_SETCSMAREGIONS

  -------         PROC BANK=1   _HHAL_SETDIAGMODE
  D:0003H         SYMBOL        regFlag
  -------         DO            
  X:36E3H         SYMBOL        plcStatus
  -------         ENDDO         
 C1:CF0FH         LINE#         1891
 C1:CF0FH         LINE#         1892
 C1:CF0FH         LINE#         1895
 C1:CF18H         LINE#         1896
 C1:CF1BH         LINE#         1897
 C1:CF1BH         LINE#         1898
 C1:CF21H         LINE#         1899
 C1:CF23H         LINE#         1901
 C1:CF23H         LINE#         1902
 C1:CF28H         LINE#         1903
 C1:CF28H         LINE#         1904
 C1:CF35H         LINE#         1905
  -------         ENDPROC       _HHAL_SETDIAGMODE

  -------         PROC BANK=1   _HHAL_SETDIAGMODENOSACK
  D:0003H         SYMBOL        regFlag
  -------         DO            
  X:36E3H         SYMBOL        plcStatus
  -------         ENDDO         
 C1:CFC1H         LINE#         1921
 C1:CFC1H         LINE#         1922
 C1:CFC1H         LINE#         1925
 C1:CFCAH         LINE#         1926
 C1:CFDBH         LINE#         1927
  -------         ENDPROC       _HHAL_SETDIAGMODENOSACK

  -------         PROC BANK=1   _HHAL_GETPLCTXQFREEDESCCNT
  X:3AEFH         SYMBOL        plid
  -------         DO            
  X:3AF0H         SYMBOL        capTxQStat
  D:0007H         SYMBOL        freeDescCnt
  D:0001H         SYMBOL        descCntArr
  -------         ENDDO         
 C1:CF9AH         LINE#         1944
 C1:CF9FH         LINE#         1945
 C1:CF9FH         LINE#         1950
 C1:CFABH         LINE#         1952
 C1:CFB1H         LINE#         1953
 C1:CFC0H         LINE#         1955
 C1:CFC0H         LINE#         1956
  -------         ENDPROC       _HHAL_GETPLCTXQFREEDESCCNT
BL51 BANKED LINKER/LOCATER V6.22                                                      01/10/2015  21:25:33  PAGE 134


 C1:C036H         SYMBOL        L?0586
 C1:C040H         SYMBOL        L?0669

  -------         PROC BANK=1   _HHAL_ADDNEK
  X:3A05H         SYMBOL        eks
  X:3A06H         SYMBOL        nek
  -------         DO            
  X:3A09H         SYMBOL        aesLutAddr
  X:3A0DH         SYMBOL        aesLutData
  X:3A11H         SYMBOL        aesKeyLutAddr
  X:3A15H         SYMBOL        aesKeyLutData
  X:3A19H         SYMBOL        aesCpuCmd
  X:3A1DH         SYMBOL        i
  D:0007H         SYMBOL        j
  X:3A1EH         SYMBOL        arrIdx
  -------         ENDDO         
 C1:BDC9H         LINE#         1963
 C1:BDD2H         LINE#         1964
 C1:BDD2H         LINE#         1974
 C1:BDD6H         LINE#         1977
 C1:BDDFH         LINE#         1978
 C1:BDE2H         LINE#         1979
 C1:BDE5H         LINE#         1990
 C1:BDF7H         LINE#         1991
 C1:BDF7H         LINE#         1992
 C1:BE01H         LINE#         1993
 C1:BE08H         LINE#         1994
 C1:BE0EH         LINE#         1995
 C1:BE1EH         LINE#         1996
 C1:BE21H         LINE#         1997
 C1:BE86H         LINE#         1998
 C1:BE88H         LINE#         1999
 C1:BE88H         LINE#         2000
 C1:BEA1H         LINE#         2001
 C1:BEA6H         LINE#         2002
 C1:BEACH         LINE#         2003
 C1:BF11H         LINE#         2004
 C1:BF1AH         LINE#         2007
 C1:BF24H         LINE#         2008
 C1:BF33H         LINE#         2009
 C1:BF38H         LINE#         2010
 C1:BF3EH         LINE#         2011
 C1:BFA3H         LINE#         2014
 C1:BFADH         LINE#         2015
 C1:BFB2H         LINE#         2016
 C1:BFB5H         LINE#         2017
 C1:C01AH         LINE#         2020
 C1:C023H         LINE#         2021
 C1:C02AH         LINE#         2022
 C1:C030H         LINE#         2023
 C1:C033H         LINE#         2025
 C1:C035H         LINE#         2026
  -------         ENDPROC       _HHAL_ADDNEK

  -------         PROC BANK=1   _HHAL_REMOVENEK
  D:0003H         SYMBOL        eks
  -------         DO            
BL51 BANKED LINKER/LOCATER V6.22                                                      01/10/2015  21:25:33  PAGE 135


  X:4573H         SYMBOL        aesLutAddr
  X:4577H         SYMBOL        aesLutData
  X:457BH         SYMBOL        aesCpuCmd
  X:457FH         SYMBOL        status
  -------         ENDDO         
 C1:CE2BH         LINE#         2028
 C1:CE2DH         LINE#         2029
 C1:CE2DH         LINE#         2037
 C1:CE36H         LINE#         2038
 C1:CE39H         LINE#         2039
 C1:CE3CH         LINE#         2049
 C1:CE46H         LINE#         2050
 C1:CE4CH         LINE#         2051
 C1:CE51H         LINE#         2052
 C1:CE57H         LINE#         2055
 C1:CE61H         LINE#         2056
 C1:CE65H         LINE#         2057
 C1:CE68H         LINE#         2060
 C1:CE71H         LINE#         2061
 C1:CE78H         LINE#         2062
 C1:CE7EH         LINE#         2063
 C1:CE81H         LINE#         2065
 C1:CE86H         LINE#         2066
  -------         ENDPROC       _HHAL_REMOVENEK
 C1:BB20H         SYMBOL        L?0550
 C1:BB2AH         SYMBOL        L?0587

  -------         PROC BANK=1   _HHAL_ADDPPEK
  X:36EFH         SYMBOL        eks
  X:36F0H         SYMBOL        ppek
  X:36F3H         SYMBOL        tei
  -------         DO            
  X:36F4H         SYMBOL        aesLutAddr
  X:36F8H         SYMBOL        aesLutData
  X:36FCH         SYMBOL        aesKeyLutAddr
  X:3700H         SYMBOL        aesKeyLutData
  X:3704H         SYMBOL        aesCpuCmd
  X:3708H         SYMBOL        status
  X:3709H         SYMBOL        i
  D:0007H         SYMBOL        j
  X:370AH         SYMBOL        arrIdx
  X:370BH         SYMBOL        keyNum
  X:370CH         SYMBOL        region
  -------         ENDDO         
 C1:B735H         LINE#         2068
 C1:B73EH         LINE#         2069
 C1:B73EH         LINE#         2081
 C1:B743H         LINE#         2083
 C1:B746H         LINE#         2085
 C1:B74FH         LINE#         2086
 C1:B752H         LINE#         2087
 C1:B755H         LINE#         2096
 C1:B763H         LINE#         2097
 C1:B763H         LINE#         2098
 C1:B763H         LINE#         2099
 C1:B766H         LINE#         2101
 C1:B766H         LINE#         2102
BL51 BANKED LINKER/LOCATER V6.22                                                      01/10/2015  21:25:33  PAGE 136


 C1:B770H         LINE#         2105
 C1:B77AH         LINE#         2106
 C1:B77AH         LINE#         2107
 C1:B77AH         LINE#         2108
 C1:B77AH         LINE#         2109
 C1:B7D3H         LINE#         2112
 C1:B7DFH         LINE#         2113
 C1:B844H         LINE#         2115
 C1:B84BH         LINE#         2116
 C1:B84BH         LINE#         2118
 C1:B852H         LINE#         2119
 C1:B854H         LINE#         2121
 C1:B854H         LINE#         2123
 C1:B863H         LINE#         2124
 C1:B863H         LINE#         2125
 C1:B87AH         LINE#         2126
 C1:B87AH         LINE#         2127
 C1:B882H         LINE#         2128
 C1:B8A8H         LINE#         2129
 C1:B8AAH         LINE#         2130
 C1:B8AAH         LINE#         2131
 C1:B8B2H         LINE#         2132
 C1:B8B9H         LINE#         2133
 C1:B8B9H         LINE#         2136
 C1:B8BFH         LINE#         2137
 C1:B8BFH         LINE#         2138
 C1:B8BFH         LINE#         2139
 C1:B8BFH         LINE#         2141
 C1:B8C8H         LINE#         2142
 C1:B8C8H         LINE#         2144
 C1:B8D7H         LINE#         2145
 C1:B8D7H         LINE#         2146
 C1:B8E1H         LINE#         2147
 C1:B8E8H         LINE#         2148
 C1:B8EEH         LINE#         2149
 C1:B901H         LINE#         2150
 C1:B90BH         LINE#         2151
 C1:B90EH         LINE#         2152
 C1:B973H         LINE#         2153
 C1:B975H         LINE#         2154
 C1:B975H         LINE#         2155
 C1:B98EH         LINE#         2156
 C1:B993H         LINE#         2157
 C1:B999H         LINE#         2158
 C1:B9FEH         LINE#         2159
 C1:BA07H         LINE#         2162
 C1:BA11H         LINE#         2163
 C1:BA11H         LINE#         2164
 C1:BA11H         LINE#         2165
 C1:BA11H         LINE#         2166
 C1:BA6DH         LINE#         2170
 C1:BA7CH         LINE#         2171
 C1:BA80H         LINE#         2172
 C1:BA89H         LINE#         2173
 C1:BA89H         LINE#         2174
 C1:BA8DH         LINE#         2175
 C1:BA8FH         LINE#         2177
BL51 BANKED LINKER/LOCATER V6.22                                                      01/10/2015  21:25:33  PAGE 137


 C1:BA8FH         LINE#         2178
 C1:BA93H         LINE#         2179
 C1:BA93H         LINE#         2181
 C1:BA99H         LINE#         2182
 C1:BB01H         LINE#         2183
 C1:BB01H         LINE#         2186
 C1:BB0AH         LINE#         2187
 C1:BB11H         LINE#         2188
 C1:BB17H         LINE#         2189
 C1:BB1AH         LINE#         2191
 C1:BB1FH         LINE#         2192
  -------         ENDPROC       _HHAL_ADDPPEK

  -------         PROC BANK=1   _HHAL_REMOVEPPEK
  X:4546H         SYMBOL        eks
  X:4547H         SYMBOL        tei
  -------         DO            
  X:4548H         SYMBOL        aesLutAddr
  X:454CH         SYMBOL        aesLutData
  X:4550H         SYMBOL        aesCpuCmd
  X:4554H         SYMBOL        status
  X:4555H         SYMBOL        region
  -------         ENDDO         
 C1:C765H         LINE#         2195
 C1:C76CH         LINE#         2196
 C1:C76CH         LINE#         2204
 C1:C772H         LINE#         2205
 C1:C775H         LINE#         2206
 C1:C778H         LINE#         2208
 C1:C77EH         LINE#         2209
 C1:C784H         LINE#         2210
 C1:C794H         LINE#         2211
 C1:C794H         LINE#         2212
 C1:C797H         LINE#         2213
 C1:C797H         LINE#         2214
 C1:C7A1H         LINE#         2217
 C1:C7ABH         LINE#         2218
 C1:C7B1H         LINE#         2219
 C1:C7B6H         LINE#         2220
 C1:C7BCH         LINE#         2223
 C1:C7C8H         LINE#         2224
 C1:C833H         LINE#         2226
 C1:C83AH         LINE#         2227
 C1:C83AH         LINE#         2228
 C1:C843H         LINE#         2229
 C1:C843H         LINE#         2230
 C1:C847H         LINE#         2231
 C1:C849H         LINE#         2233
 C1:C849H         LINE#         2234
 C1:C84DH         LINE#         2235
 C1:C84DH         LINE#         2236
 C1:C858H         LINE#         2237
 C1:C858H         LINE#         2239
 C1:C85FH         LINE#         2240
 C1:C866H         LINE#         2242
 C1:C866H         LINE#         2243
 C1:C86CH         LINE#         2244
BL51 BANKED LINKER/LOCATER V6.22                                                      01/10/2015  21:25:33  PAGE 138


 C1:C86EH         LINE#         2246
 C1:C86EH         LINE#         2247
 C1:C874H         LINE#         2248
 C1:C874H         LINE#         2251
 C1:C87AH         LINE#         2252
 C1:C881H         LINE#         2253
 C1:C887H         LINE#         2254
 C1:C88AH         LINE#         2256
 C1:C88FH         LINE#         2257
  -------         ENDPROC       _HHAL_REMOVEPPEK

  -------         PROC BANK=1   HHAL_SETDEFADDRCONFIG
 C1:CF6DH         LINE#         2260
 C1:CF6DH         LINE#         2261
 C1:CF6DH         LINE#         2269
 C1:CF76H         LINE#         2270
 C1:CF76H         LINE#         2271
 C1:CF79H         LINE#         2272
 C1:CF7CH         LINE#         2273
 C1:CF7EH         LINE#         2274
 C1:CF7EH         LINE#         2275
 C1:CF81H         LINE#         2276
 C1:CF84H         LINE#         2277
 C1:CF84H         LINE#         2278
 C1:CF8AH         LINE#         2282
 C1:CF92H         LINE#         2284
  -------         ENDPROC       HHAL_SETDEFADDRCONFIG

  -------         PROC BANK=1   HHAL_CLEARBCNINIT
 C1:D0BDH         LINE#         2289
 C1:D0BDH         LINE#         2290
 C1:D0BDH         LINE#         2291
 C1:D0C2H         LINE#         2294
  -------         ENDPROC       HHAL_CLEARBCNINIT

  -------         PROC BANK=1   HHAL_SETBCNINIT
 C1:D066H         LINE#         2296
 C1:D066H         LINE#         2297
 C1:D066H         LINE#         2298
 C1:D06CH         LINE#         2299
  -------         ENDPROC       HHAL_SETBCNINIT

  -------         PROC BANK=1   HHAL_POWERSAVECONFIG
  -------         DO            
  X:4668H         SYMBOL        plcLineCtrl
  -------         ENDDO         
 C1:D0AAH         LINE#         2303
 C1:D0AAH         LINE#         2304
 C1:D0AAH         LINE#         2307
  -------         ENDPROC       HHAL_POWERSAVECONFIG

  -------         PROC BANK=1   _HHAL_SETDEVMODE
  X:3931H         SYMBOL        devMode
  X:3932H         SYMBOL        lineMode
  -------         DO            
  X:3933H         SYMBOL        csmaRegArr
  X:394CH         SYMBOL        plcLineCtrl
BL51 BANKED LINKER/LOCATER V6.22                                                      01/10/2015  21:25:33  PAGE 139


  -------         ENDDO         
 C1:C04AH         LINE#         2325
 C1:C052H         LINE#         2329
 C1:C052H         LINE#         2337
 C1:C05BH         LINE#         2339
 C1:C066H         LINE#         2340
 C1:C066H         LINE#         2341
 C1:C06BH         LINE#         2342
 C1:C071H         LINE#         2344
 C1:C0BFH         LINE#         2345
 C1:C11CH         LINE#         2346
 C1:C173H         LINE#         2347
 C1:C173H         LINE#         2348
 C1:C178H         LINE#         2349
 C1:C17BH         LINE#         2350
 C1:C17DH         LINE#         2351
 C1:C180H         LINE#         2353
 C1:C183H         LINE#         2355
 C1:C183H         LINE#         2356
 C1:C188H         LINE#         2358
 C1:C18EH         LINE#         2360
 C1:C1DFH         LINE#         2361
 C1:C230H         LINE#         2363
 C1:C23BH         LINE#         2364
 C1:C243H         LINE#         2366
 C1:C243H         LINE#         2367
 C1:C248H         LINE#         2368
 C1:C24BH         LINE#         2369
 C1:C24DH         LINE#         2370
 C1:C250H         LINE#         2371
 C1:C258H         LINE#         2372
 C1:C258H         LINE#         2374
 C1:C25EH         LINE#         2375
 C1:C25EH         LINE#         2376
 C1:C262H         LINE#         2381
 C1:C268H         LINE#         2382
 C1:C268H         LINE#         2384
 C1:C26CH         LINE#         2386
 C1:C271H         LINE#         2392
 C1:C27BH         LINE#         2393
 C1:C280H         LINE#         2394
 C1:C282H         LINE#         2396
 C1:C282H         LINE#         2398
 C1:C287H         LINE#         2400
 C1:C287H         LINE#         2402
 C1:C28AH         LINE#         2404
 C1:C28AH         LINE#         2406
 C1:C28AH         LINE#         2407
 C1:C290H         LINE#         2412
 C1:C296H         LINE#         2413
 C1:C296H         LINE#         2414
 C1:C29BH         LINE#         2415
 C1:C2A0H         LINE#         2422
 C1:C2A2H         LINE#         2424
 C1:C2A2H         LINE#         2425
 C1:C2A7H         LINE#         2426
 C1:C2ADH         LINE#         2427
BL51 BANKED LINKER/LOCATER V6.22                                                      01/10/2015  21:25:33  PAGE 140


 C1:C2ADH         LINE#         2429
 C1:C2B0H         LINE#         2433
 C1:C2B0H         LINE#         2474
  -------         ENDPROC       _HHAL_SETDEVMODE

  -------         PROC BANK=1   HHAL_AFEINIT
 C1:D050H         LINE#         2480
 C1:D050H         LINE#         2481
 C1:D050H         LINE#         2485
 C1:D05BH         LINE#         2486
  -------         ENDPROC       HHAL_AFEINIT

  -------         PROC BANK=1   HAL_HPGP_SOFT_RESET
  -------         DO            
  X:466CH         SYMBOL        plcStatus
  -------         ENDDO         
 C1:CF3EH         LINE#         2512
 C1:CF3EH         LINE#         2513
 C1:CF3EH         LINE#         2516
 C1:CF47H         LINE#         2517
 C1:CF4EH         LINE#         2518
 C1:CF51H         LINE#         2520
 C1:CF57H         LINE#         2522
 C1:CF5DH         LINE#         2523
 C1:CF64H         LINE#         2524
 C1:CF67H         LINE#         2526
  -------         ENDPROC       HAL_HPGP_SOFT_RESET

  -------         PROC BANK=1   _HHAL_SYNCNET
  X:3A1AH         SYMBOL        bpsto
  -------         DO            
  X:3A1DH         SYMBOL        bpstoReg
  X:3A21H         SYMBOL        bpstoVal
  X:3A25H         SYMBOL        bpst
  X:3A29H         SYMBOL        ss1
  X:3A2DH         SYMBOL        NTB_delta
  X:3A31H         SYMBOL        BcnPer
  X:3A35H         SYMBOL        CCOBpst
  X:3A39H         SYMBOL        RetrievedBTS
  X:3A3DH         SYMBOL        rollover_snapshot1
  X:3A3EH         SYMBOL        rollover_retriveBTS
  X:3A3FH         SYMBOL        ToatalLatency
  X:3A43H         SYMBOL        ret
  -------         ENDDO         
 C1:B332H         LINE#         2532
 C1:B338H         LINE#         2536
 C1:B338H         LINE#         2551
 C1:B33DH         LINE#         2552
 C1:B33FH         LINE#         2555
 C1:B344H         LINE#         2559
 C1:B34AH         LINE#         2560
 C1:B34DH         LINE#         2565
 C1:B356H         LINE#         2566
 C1:B356H         LINE#         2567
 C1:B35DH         LINE#         2568
 C1:B368H         LINE#         2569
 C1:B36FH         LINE#         2571
BL51 BANKED LINKER/LOCATER V6.22                                                      01/10/2015  21:25:33  PAGE 141


 C1:B3BAH         LINE#         2574
 C1:B414H         LINE#         2580
 C1:B41AH         LINE#         2581
 C1:B41AH         LINE#         2582
 C1:B428H         LINE#         2583
 C1:B42EH         LINE#         2584
 C1:B42EH         LINE#         2585
 C1:B43AH         LINE#         2586
 C1:B449H         LINE#         2589
 C1:B44FH         LINE#         2590
 C1:B44FH         LINE#         2591
 C1:B45DH         LINE#         2592
 C1:B463H         LINE#         2593
 C1:B463H         LINE#         2595
 C1:B46FH         LINE#         2597
 C1:B47DH         LINE#         2598
 C1:B47DH         LINE#         2599
 C1:B486H         LINE#         2600
 C1:B486H         LINE#         2601
 C1:B48FH         LINE#         2602
 C1:B491H         LINE#         2604
 C1:B491H         LINE#         2605
 C1:B4A0H         LINE#         2607
 C1:B4A0H         LINE#         2608
 C1:B4ACH         LINE#         2609
 C1:B4ACH         LINE#         2610
 C1:B4B5H         LINE#         2611
 C1:B4B5H         LINE#         2613
 C1:B4B7H         LINE#         2615
 C1:B4B7H         LINE#         2617
 C1:B4C0H         LINE#         2618
 C1:B4C0H         LINE#         2619
 C1:B4D4H         LINE#         2620
 C1:B4D6H         LINE#         2622
 C1:B4D6H         LINE#         2623
 C1:B4E2H         LINE#         2626
 C1:B4E2H         LINE#         2627
 C1:B4F0H         LINE#         2628
 C1:B4F0H         LINE#         2629
 C1:B4FCH         LINE#         2630
 C1:B4FCH         LINE#         2631
 C1:B4FCH         LINE#         2633
 C1:B553H         LINE#         2641
 C1:B562H         LINE#         2649
 C1:B570H         LINE#         2650
 C1:B570H         LINE#         2651
 C1:B579H         LINE#         2652
 C1:B584H         LINE#         2654
 C1:B587H         LINE#         2655
 C1:B589H         LINE#         2657
 C1:B589H         LINE#         2658
 C1:B598H         LINE#         2659
 C1:B598H         LINE#         2662
 C1:B5A9H         LINE#         2663
 C1:B5B4H         LINE#         2665
 C1:B5D4H         LINE#         2667
 C1:B5E0H         LINE#         2670
BL51 BANKED LINKER/LOCATER V6.22                                                      01/10/2015  21:25:33  PAGE 142


 C1:B5ECH         LINE#         2671
 C1:B5ECH         LINE#         2672
 C1:B5EFH         LINE#         2673
 C1:B5F1H         LINE#         2675
 C1:B5F1H         LINE#         2676
 C1:B5FDH         LINE#         2677
 C1:B5FDH         LINE#         2680
 C1:B5FDH         LINE#         2681
 C1:B5FDH         LINE#         2686
 C1:B5FDH         LINE#         2689
 C1:B65AH         LINE#         2694
 C1:B65AH         LINE#         2695
 C1:B66CH         LINE#         2696
 C1:B678H         LINE#         2703
 C1:B6CFH         LINE#         2704
 C1:B6DBH         LINE#         2705
 C1:B6E5H         LINE#         2706
 C1:B6EFH         LINE#         2707
 C1:B6F9H         LINE#         2708
 C1:B6F9H         LINE#         2710
 C1:B6F9H         LINE#         2713
 C1:B700H         LINE#         2714
 C1:B700H         LINE#         2715
 C1:B705H         LINE#         2716
 C1:B705H         LINE#         2718
 C1:B714H         LINE#         2719
 C1:B714H         LINE#         2720
 C1:B71AH         LINE#         2721
 C1:B722H         LINE#         2722
 C1:B727H         LINE#         2723
 C1:B72FH         LINE#         2724
 C1:B72FH         LINE#         2729
 C1:B734H         LINE#         2730
  -------         ENDPROC       _HHAL_SYNCNET
 C1:C5D2H         SYMBOL        L?0519
 C1:C5D9H         SYMBOL        L?0524
 C1:C5E0H         SYMBOL        L?0529
 C1:C5E7H         SYMBOL        L?0534
 C1:C5EEH         SYMBOL        L?0538
 C1:C5F5H         SYMBOL        L?0551
 C1:C5FCH         SYMBOL        L?0558
 C1:C603H         SYMBOL        L?0588
 C1:C60AH         SYMBOL        L?0626
 C1:C611H         SYMBOL        L?0670

  -------         PROC BANK=1   PLC_INIT_PARAMETERS
  -------         DO            
  X:3929H         SYMBOL        plcIfs0
  X:392DH         SYMBOL        plcIfs1
  -------         ENDDO         
 C1:C474H         LINE#         2790
 C1:C474H         LINE#         2791
 C1:C474H         LINE#         2802
 C1:C480H         LINE#         2804
 C1:C48CH         LINE#         2806
 C1:C498H         LINE#         2808
 C1:C4A4H         LINE#         2810
BL51 BANKED LINKER/LOCATER V6.22                                                      01/10/2015  21:25:33  PAGE 143


 C1:C4B3H         LINE#         2818
 C1:C4BEH         LINE#         2821
 C1:C4C8H         LINE#         2822
 C1:C4CEH         LINE#         2823
 C1:C4D2H         LINE#         2824
 C1:C4D5H         LINE#         2825
 C1:C4D9H         LINE#         2826
 C1:C4E4H         LINE#         2829
 C1:C4EEH         LINE#         2830
 C1:C4F4H         LINE#         2831
 C1:C4F8H         LINE#         2832
 C1:C500H         LINE#         2835
 C1:C50CH         LINE#         2837
 C1:C518H         LINE#         2842
 C1:C524H         LINE#         2844
 C1:C530H         LINE#         2846
 C1:C53CH         LINE#         2848
 C1:C548H         LINE#         2850
 C1:C554H         LINE#         2857
 C1:C560H         LINE#         2859
 C1:C56CH         LINE#         2861
 C1:C578H         LINE#         2863
 C1:C584H         LINE#         2864
 C1:C590H         LINE#         2865
 C1:C59CH         LINE#         2866
 C1:C5A8H         LINE#         2867
 C1:C5B4H         LINE#         2868
 C1:C5C3H         LINE#         2869
 C1:C5D2H         LINE#         2870
  -------         ENDPROC       PLC_INIT_PARAMETERS
 C1:AE37H         SYMBOL        L?0533
 C1:AE55H         SYMBOL        L?0539
 C1:AE5FH         SYMBOL        L?0553
 C1:AE69H         SYMBOL        L?0593
 C1:AE73H         SYMBOL        L?0597
 C1:AE7BH         SYMBOL        L?0644
 C1:AE83H         SYMBOL        L?0648

  -------         PROC BANK=1   HHAL_INIT
  -------         DO            
  X:390FH         SYMBOL        plcStatus
  X:3913H         SYMBOL        plcLineCtrl
  X:3917H         SYMBOL        aesCpuCmd
  X:391BH         SYMBOL        plcSMCnt
  X:391FH         SYMBOL        i
  -------         DO            
  X:3921H         SYMBOL        plcCpMapIdx
  X:3925H         SYMBOL        plcCpMap
  -------         ENDDO         
  -------         ENDDO         
 C1:A8F9H         LINE#         2873
 C1:A8F9H         LINE#         2877
 C1:A8F9H         LINE#         2897
 C1:A903H         LINE#         2898
 C1:A90AH         LINE#         2899
 C1:A90FH         LINE#         2900
 C1:A913H         LINE#         2902
BL51 BANKED LINKER/LOCATER V6.22                                                      01/10/2015  21:25:33  PAGE 144


 C1:A918H         LINE#         2907
 C1:A91FH         LINE#         2913
 C1:A928H         LINE#         2914
 C1:A92FH         LINE#         2915
 C1:A938H         LINE#         2917
 C1:A93BH         LINE#         2921
 C1:A945H         LINE#         2922
 C1:A94AH         LINE#         2923
 C1:A951H         LINE#         2925
 C1:A955H         LINE#         2928
 C1:A959H         LINE#         2929
 C1:A95DH         LINE#         2933
 C1:A960H         LINE#         2935
 C1:A96AH         LINE#         2937
 C1:A974H         LINE#         2939
 C1:A97EH         LINE#         2941
 C1:A983H         LINE#         2942
 C1:A989H         LINE#         2943
 C1:A98FH         LINE#         2944
 C1:A995H         LINE#         2946
 C1:A99FH         LINE#         2950
 C1:A9AAH         LINE#         2951
 C1:A9AAH         LINE#         2952
 C1:A9F7H         LINE#         2953
 C1:AA01H         LINE#         2954
 C1:AA07H         LINE#         2957
 C1:AA10H         LINE#         2958
 C1:AA13H         LINE#         2959
 C1:AA16H         LINE#         2961
 C1:AA1CH         LINE#         2964
 C1:AA2BH         LINE#         2965
 C1:AA2BH         LINE#         2966
 C1:AA73H         LINE#         2967
 C1:AA7DH         LINE#         2968
 C1:AA83H         LINE#         2971
 C1:AA90H         LINE#         2972
 C1:AA90H         LINE#         2973
 C1:AAECH         LINE#         2974
 C1:AAF6H         LINE#         2975
 C1:AAFCH         LINE#         2979
 C1:AB07H         LINE#         2980
 C1:AB07H         LINE#         2981
 C1:AB4FH         LINE#         2982
 C1:AB59H         LINE#         2983
 C1:AB5FH         LINE#         2986
 C1:AB68H         LINE#         2987
 C1:AB6FH         LINE#         2988
 C1:AB75H         LINE#         2989
 C1:AB78H         LINE#         2994
 C1:AB7DH         LINE#         2995
 C1:AB81H         LINE#         2996
 C1:AB8BH         LINE#         2997
 C1:AB90H         LINE#         2998
 C1:AB94H         LINE#         2999
 C1:AB98H         LINE#         3000
 C1:ABA2H         LINE#         3001
 C1:ABACH         LINE#         3002
BL51 BANKED LINKER/LOCATER V6.22                                                      01/10/2015  21:25:33  PAGE 145


 C1:ABB6H         LINE#         3003
 C1:ABC0H         LINE#         3004
 C1:ABCAH         LINE#         3005
 C1:ABD4H         LINE#         3006
 C1:ABDEH         LINE#         3007
 C1:ABE3H         LINE#         3008
 C1:ABE5H         LINE#         3009
 C1:ABEDH         LINE#         3010
 C1:ABF2H         LINE#         3011
 C1:ABF4H         LINE#         3012
 C1:ABF8H         LINE#         3014
 C1:AC02H         LINE#         3018
 C1:AC15H         LINE#         3020
 C1:AC1FH         LINE#         3030
 C1:AC26H         LINE#         3031
 C1:AC29H         LINE#         3064
 C1:AC2FH         LINE#         3065
 C1:AC33H         LINE#         3067
 C1:AC3AH         LINE#         3069
 C1:AC40H         LINE#         3083
 C1:AC46H         LINE#         3084
 C1:AC4CH         LINE#         3086
 C1:AC52H         LINE#         3087
 C1:AC55H         LINE#         3088
 C1:AC5BH         LINE#         3089
 C1:AC5FH         LINE#         3090
 C1:AC61H         LINE#         3094
 C1:AC64H         LINE#         3095
 C1:AC64H         LINE#         3096
 C1:AC64H         LINE#         3097
 C1:AC64H         LINE#         3098
 C1:AC64H         LINE#         3099
 C1:AC67H         LINE#         3100
 C1:AC67H         LINE#         3101
 C1:AC67H         LINE#         3102
 C1:AC67H         LINE#         3103
 C1:AC67H         LINE#         3104
 C1:AC67H         LINE#         3105
 C1:AC67H         LINE#         3106
 C1:AC67H         LINE#         3107
 C1:AC67H         LINE#         3108
 C1:AC6AH         LINE#         3109
 C1:AC6AH         LINE#         3110
 C1:AC6AH         LINE#         3111
 C1:AC6AH         LINE#         3112
 C1:AC6AH         LINE#         3113
 C1:AC6AH         LINE#         3114
 C1:AC6AH         LINE#         3115
 C1:AC6AH         LINE#         3116
 C1:AC6AH         LINE#         3117
 C1:AC70H         LINE#         3118
 C1:AC74H         LINE#         3119
 C1:AC78H         LINE#         3120
 C1:AC7CH         LINE#         3121
 C1:AC80H         LINE#         3122
 C1:AC84H         LINE#         3123
 C1:AC88H         LINE#         3124
BL51 BANKED LINKER/LOCATER V6.22                                                      01/10/2015  21:25:33  PAGE 146


 C1:AC8CH         LINE#         3125
 C1:AC90H         LINE#         3126
 C1:AC94H         LINE#         3127
 C1:AC98H         LINE#         3128
 C1:AC9CH         LINE#         3129
 C1:ACA0H         LINE#         3130
 C1:ACA4H         LINE#         3131
 C1:ACA8H         LINE#         3132
 C1:ACACH         LINE#         3133
 C1:ACB0H         LINE#         3134
 C1:ACB4H         LINE#         3135
 C1:ACB8H         LINE#         3136
 C1:ACBCH         LINE#         3137
 C1:ACC0H         LINE#         3138
 C1:ACC4H         LINE#         3139
 C1:ACC8H         LINE#         3140
 C1:ACCCH         LINE#         3141
 C1:ACD0H         LINE#         3142
 C1:ACD4H         LINE#         3143
 C1:ACD8H         LINE#         3144
 C1:ACDCH         LINE#         3145
 C1:ACE0H         LINE#         3146
 C1:ACE4H         LINE#         3147
 C1:ACE8H         LINE#         3148
 C1:ACECH         LINE#         3149
 C1:ACF0H         LINE#         3150
 C1:ACF4H         LINE#         3151
 C1:ACF8H         LINE#         3152
 C1:ACFCH         LINE#         3153
 C1:AD00H         LINE#         3154
 C1:AD04H         LINE#         3155
 C1:AD08H         LINE#         3156
 C1:AD0CH         LINE#         3157
 C1:AD10H         LINE#         3158
 C1:AD14H         LINE#         3159
 C1:AD18H         LINE#         3160
 C1:AD1CH         LINE#         3161
 C1:AD20H         LINE#         3162
 C1:AD24H         LINE#         3163
 C1:AD28H         LINE#         3164
 C1:AD2CH         LINE#         3165
 C1:AD30H         LINE#         3166
 C1:AD34H         LINE#         3167
 C1:AD38H         LINE#         3168
 C1:AD3CH         LINE#         3169
 C1:AD40H         LINE#         3179
 C1:AD47H         LINE#         3180
 C1:AD4EH         LINE#         3183
 C1:AD51H         LINE#         3184
 C1:AD56H         LINE#         3185
 C1:AD5BH         LINE#         3186
 C1:AD5DH         LINE#         3188
 C1:AD5DH         LINE#         3189
 C1:AD60H         LINE#         3190
 C1:AD63H         LINE#         3191
 C1:AD68H         LINE#         3192
 C1:AD6DH         LINE#         3193
BL51 BANKED LINKER/LOCATER V6.22                                                      01/10/2015  21:25:33  PAGE 147


 C1:AD6FH         LINE#         3195
 C1:AD6FH         LINE#         3196
 C1:AD72H         LINE#         3199
 C1:AD77H         LINE#         3200
 C1:AD7CH         LINE#         3204
 C1:AD82H         LINE#         3206
 C1:AD8AH         LINE#         3207
 C1:AD92H         LINE#         3231
 C1:AD98H         LINE#         3232
 C1:AD9EH         LINE#         3233
 C1:ADA3H         LINE#         3239
 C1:ADABH         LINE#         3240
 C1:ADB2H         LINE#         3274
 C1:ADB5H         LINE#         3285
 C1:ADBBH         LINE#         3288
 C1:ADBEH         LINE#         3291
 C1:ADC9H         LINE#         3294
 C1:ADDCH         LINE#         3295
 C1:ADDCH         LINE#         3300
 C1:ADE4H         LINE#         3301
 C1:ADF0H         LINE#         3302
 C1:ADF9H         LINE#         3304
 C1:AE03H         LINE#         3305
 C1:AE0CH         LINE#         3306
 C1:AE15H         LINE#         3309
 C1:AE1AH         LINE#         3313
 C1:AE24H         LINE#         3314
 C1:AE2BH         LINE#         3315
 C1:AE37H         LINE#         3410
  -------         ENDPROC       HHAL_INIT

  -------         PROC BANK=1   HHAL_RESETPLCSTAT
 C1:CCF3H         LINE#         3413
 C1:CCF3H         LINE#         3414
 C1:CCF3H         LINE#         3415
 C1:CD02H         LINE#         3418
 C1:CD0CH         LINE#         3419
 C1:CD16H         LINE#         3420
 C1:CD20H         LINE#         3421
 C1:CD2AH         LINE#         3422
 C1:CD34H         LINE#         3423
 C1:CD3EH         LINE#         3425
 C1:CD43H         LINE#         3426
 C1:CD45H         LINE#         3427
 C1:CD47H         LINE#         3428
 C1:CD49H         LINE#         3429
 C1:CD4FH         LINE#         3430
 C1:CD55H         LINE#         3431
 C1:CD5BH         LINE#         3432
 C1:CD61H         LINE#         3433
  -------         ENDPROC       HHAL_RESETPLCSTAT

  -------         PROC BANK=1   HHAL_SETSTASNIDVALID
  -------         DO            
  X:4670H         SYMBOL        plcDevCtrl
  -------         ENDDO         
 C1:CFE4H         LINE#         3437
BL51 BANKED LINKER/LOCATER V6.22                                                      01/10/2015  21:25:33  PAGE 148


 C1:CFE4H         LINE#         3438
 C1:CFE4H         LINE#         3441
 C1:CFEBH         LINE#         3442
 C1:CFEBH         LINE#         3443
 C1:CFF4H         LINE#         3444
 C1:CFFBH         LINE#         3445
 C1:D004H         LINE#         3446
 C1:D004H         LINE#         3447
  -------         ENDPROC       HHAL_SETSTASNIDVALID

  -------         PROC BANK=1   HAL_HPGP_MAC_MONITORING
  -------         DO            
  X:392CH         SYMBOL        sm_status1
  X:3930H         SYMBOL        sm_status2
  X:3934H         SYMBOL        plcMedStat
  -------         ENDDO         
 C1:CB44H         LINE#         3449
 C1:CB44H         LINE#         3450
 C1:CB44H         LINE#         3462
 C1:CB44H         LINE#         3464
 C1:CB44H         LINE#         3465
 C1:CB44H         LINE#         3467
 C1:CB44H         LINE#         3469
 C1:CB55H         LINE#         3470
 C1:CB61H         LINE#         3472
 C1:CB72H         LINE#         3473
 C1:CB7EH         LINE#         3474
 C1:CB85H         LINE#         3475
 C1:CB8BH         LINE#         3476
 C1:CB8EH         LINE#         3487
 C1:CB8EH         LINE#         3488
 C1:CB90H         LINE#         3489
 C1:CB97H         LINE#         3490
 C1:CB97H         LINE#         3491
 C1:CB9EH         LINE#         3492
 C1:CBA4H         LINE#         3493
 C1:CBA7H         LINE#         3495
 C1:CBA7H         LINE#         3496
 C1:CBA8H         LINE#         3497
 C1:CBACH         LINE#         3498
 C1:CBACH         LINE#         3499
 C1:CBAEH         LINE#         3500
 C1:CBBBH         LINE#         3501
 C1:CBC1H         LINE#         3502
 C1:CBCEH         LINE#         3504
 C1:CBCEH         LINE#         3505
 C1:CBD0H         LINE#         3506
 C1:CBD7H         LINE#         3507
 C1:CBD7H         LINE#         3508
 C1:CBDCH         LINE#         3509
 C1:CBE2H         LINE#         3510
 C1:CBEFH         LINE#         3512
 C1:CBEFH         LINE#         3513
 C1:CBF0H         LINE#         3514
 C1:CBF7H         LINE#         3515
 C1:CBF7H         LINE#         3516
 C1:CBF7H         LINE#         3517
BL51 BANKED LINKER/LOCATER V6.22                                                      01/10/2015  21:25:33  PAGE 149


  -------         ENDPROC       HAL_HPGP_MAC_MONITORING

  -------         PROC BANK=1   _HHAL_ADJUSTNEXTBCNTIME
  D:0001H         SYMBOL        bto
  -------         DO            
  X:468DH         SYMBOL        btoVal
  -------         ENDDO         
 C1:CA85H         LINE#         3763
 C1:CA85H         LINE#         3767
 C1:CA85H         LINE#         3768
 C1:CA99H         LINE#         3769
 C1:CAA2H         LINE#         3770
 C1:CAA2H         LINE#         3772
 C1:CAB2H         LINE#         3773
 C1:CAB2H         LINE#         3774
 C1:CACEH         LINE#         3775
 C1:CAD0H         LINE#         3778
 C1:CADFH         LINE#         3779
 C1:CADFH         LINE#         3780
 C1:CAEEH         LINE#         3781
 C1:CAEEH         LINE#         3785
 C1:CAF6H         LINE#         3786
 C1:CAF6H         LINE#         3787
 C1:CB3BH         LINE#         3789
 C1:CB3BH         LINE#         3790
 C1:CB3DH         LINE#         3792
 C1:CB3DH         LINE#         3793
 C1:CB43H         LINE#         3794
 C1:CB43H         LINE#         3795
  -------         ENDPROC       _HHAL_ADJUSTNEXTBCNTIME

  -------         PROC BANK=1   DOSYNCHRONIZATION
  -------         DO            
  X:392CH         SYMBOL        zcCCONTB
  -------         ENDDO         
 C1:BB34H         LINE#         3835
 C1:BB34H         LINE#         3836
 C1:BB34H         LINE#         3840
 C1:BB8BH         LINE#         3843
 C1:BB91H         LINE#         3844
 C1:BB91H         LINE#         3845
 C1:BB93H         LINE#         3846
 C1:BB9CH         LINE#         3848
 C1:BB9CH         LINE#         3850
 C1:BBA2H         LINE#         3852
 C1:BBB0H         LINE#         3853
 C1:BBC2H         LINE#         3856
 C1:BBD6H         LINE#         3857
 C1:BBD6H         LINE#         3859
 C1:BBD6H         LINE#         3861
 C1:BBDFH         LINE#         3863
 C1:BBF1H         LINE#         3864
 C1:BBF1H         LINE#         3867
 C1:BBFCH         LINE#         3868
 C1:BBFCH         LINE#         3869
 C1:BBFFH         LINE#         3870
 C1:BC01H         LINE#         3871
BL51 BANKED LINKER/LOCATER V6.22                                                      01/10/2015  21:25:33  PAGE 150


 C1:BC0CH         LINE#         3872
 C1:BC0CH         LINE#         3873
 C1:BC15H         LINE#         3874
 C1:BC15H         LINE#         3876
 C1:BC24H         LINE#         3877
 C1:BC30H         LINE#         3879
 C1:BC3EH         LINE#         3880
 C1:BC3EH         LINE#         3881
 C1:BC43H         LINE#         3882
 C1:BC47H         LINE#         3883
 C1:BC47H         LINE#         3885
 C1:BC4DH         LINE#         3886
 C1:BC4DH         LINE#         3887
 C1:BC4FH         LINE#         3888
 C1:BC60H         LINE#         3889
 C1:BC6AH         LINE#         3890
 C1:BC74H         LINE#         3891
 C1:BC74H         LINE#         3892
 C1:BCD1H         LINE#         3894
 C1:BCD1H         LINE#         3898
 C1:BCD8H         LINE#         3899
 C1:BCD8H         LINE#         3900
 C1:BCDEH         LINE#         3901
 C1:BCEAH         LINE#         3902
 C1:BCEAH         LINE#         3904
 C1:BCF3H         LINE#         3905
 C1:BCF3H         LINE#         3907
 C1:BCFCH         LINE#         3908
 C1:BCFCH         LINE#         3910
 C1:BD02H         LINE#         3911
 C1:BD02H         LINE#         3913
 C1:BD17H         LINE#         3914
 C1:BD1DH         LINE#         3915
 C1:BD74H         LINE#         3917
 C1:BD74H         LINE#         3919
 C1:BD74H         LINE#         3921
 C1:BD7AH         LINE#         3922
 C1:BD88H         LINE#         3923
 C1:BD88H         LINE#         3925
 C1:BD8EH         LINE#         3926
 C1:BD8EH         LINE#         3927
 C1:BD90H         LINE#         3928
 C1:BD95H         LINE#         3930
 C1:BD95H         LINE#         3931
 C1:BD9EH         LINE#         3933
 C1:BDA3H         LINE#         3934
 C1:BDA3H         LINE#         3936
 C1:BDA8H         LINE#         3937
 C1:BDADH         LINE#         3938
 C1:BDADH         LINE#         3940
 C1:BDAEH         LINE#         3942
 C1:BDAEH         LINE#         3943
 C1:BDB4H         LINE#         3944
 C1:BDB4H         LINE#         3945
 C1:BDB4H         LINE#         3946
 C1:BDB7H         LINE#         3948
 C1:BDB7H         LINE#         3949
BL51 BANKED LINKER/LOCATER V6.22                                                      01/10/2015  21:25:33  PAGE 151


 C1:BDC0H         LINE#         3951
 C1:BDC5H         LINE#         3952
 C1:BDC5H         LINE#         3953
 C1:BDC5H         LINE#         3954
 C1:BDC8H         LINE#         3956
 C1:BDC8H         LINE#         3958
 C1:BDC8H         LINE#         3960
 C1:BDC8H         LINE#         3961
 C1:BDC8H         LINE#         3963
 C1:BDC8H         LINE#         3965
  -------         ENDPROC       DOSYNCHRONIZATION
  -------         PROC          FREQDET_DETECTFREQUENCYUSINGZC
  -------         DO            
  X:3BECH         SYMBOL        count
  X:3BEDH         SYMBOL        Retrycnt
  X:3BEEH         SYMBOL        valid60Hz
  X:3BEFH         SYMBOL        valid50Hz
  X:392CH         SYMBOL        zcCCONTB
  X:3BF0H         SYMBOL        zcCCONTBOld
  D:0004H         SYMBOL        linecyclePer
  X:3930H         SYMBOL        freq
  -------         ENDDO         
 C1:C618H         LINE#         3968
 C1:C618H         LINE#         3969
 C1:C618H         LINE#         3984
 C1:C61EH         LINE#         3985
 C1:C675H         LINE#         3987
 C1:C693H         LINE#         3988
 C1:C6ACH         LINE#         3990
 C1:C6B8H         LINE#         3993
 C1:C6C7H         LINE#         3994
 C1:C6C7H         LINE#         3995
 C1:C6CAH         LINE#         3996
 C1:C6CCH         LINE#         3997
 C1:C6DCH         LINE#         3998
 C1:C6DCH         LINE#         3999
 C1:C6E2H         LINE#         4000
 C1:C6E2H         LINE#         4003
 C1:C6EAH         LINE#         4004
 C1:C6EAH         LINE#         4006
 C1:C6EFH         LINE#         4007
 C1:C6F8H         LINE#         4008
 C1:C6F8H         LINE#         4011
 C1:C6F8H         LINE#         4012
 C1:C6FBH         LINE#         4013
 C1:C6FBH         LINE#         4014
 C1:C6FDH         LINE#         4015
 C1:C706H         LINE#         4016
 C1:C706H         LINE#         4019
 C1:C706H         LINE#         4020
 C1:C70CH         LINE#         4021
 C1:C721H         LINE#         4022
 C1:C723H         LINE#         4024
 C1:C723H         LINE#         4030
 C1:C72CH         LINE#         4031
 C1:C735H         LINE#         4032
 C1:C73AH         LINE#         4033
BL51 BANKED LINKER/LOCATER V6.22                                                      01/10/2015  21:25:33  PAGE 152


 C1:C73EH         LINE#         4035
 C1:C743H         LINE#         4036
 C1:C746H         LINE#         4041
 C1:C750H         LINE#         4044
 C1:C758H         LINE#         4048
 C1:C758H         LINE#         4054
 C1:C75EH         LINE#         4055
 C1:C761H         LINE#         4057
 C1:C764H         LINE#         4062
 C1:C764H         LINE#         4063
  -------         ENDPROC       FREQDET_DETECTFREQUENCYUSINGZC
  -------         PROC          FREQDET_DETECTFREQUENCYUSINGBCN
  -------         DO            
  X:39FBH         SYMBOL        calcBCNper
  -------         ENDDO         
 C1:CD62H         LINE#         4065
 C1:CD62H         LINE#         4066
 C1:CD62H         LINE#         4073
 C1:CD74H         LINE#         4076
 C1:CD80H         LINE#         4080
 C1:CD8EH         LINE#         4081
 C1:CD8EH         LINE#         4082
 C1:CDA0H         LINE#         4083
 C1:CDA0H         LINE#         4085
 C1:CDA0H         LINE#         4086
 C1:CDA3H         LINE#         4088
 C1:CDA3H         LINE#         4090
 C1:CDA5H         LINE#         4091
 C1:CDAEH         LINE#         4092
 C1:CDAEH         LINE#         4094
 C1:CDC0H         LINE#         4096
 C1:CDC0H         LINE#         4097
 C1:CDC6H         LINE#         4099
 C1:CDCCH         LINE#         4101
 C1:CDCCH         LINE#         4102
 C1:CDCCH         LINE#         4105
  -------         ENDPROC       FREQDET_DETECTFREQUENCYUSINGBCN

  -------         PROC BANK=1   FREQDET_FREQDETECTINIT
 C1:D0C3H         LINE#         4109
 C1:D0C3H         LINE#         4110
 C1:D0C3H         LINE#         4113
 C1:D0C8H         LINE#         4120
  -------         ENDPROC       FREQDET_FREQDETECTINIT

  -------         PROC BANK=1   FREQDET_FREQDETECTRESET
 C1:D0C9H         LINE#         4122
 C1:D0C9H         LINE#         4123
 C1:D0C9H         LINE#         4126
 C1:D0CEH         LINE#         4129
  -------         ENDPROC       FREQDET_FREQDETECTRESET
  -------         ENDMOD        HAL_HPGP

  -------         MODULE        SYS_COMMON
  C:0000H         SYMBOL        _ICE_DUMMY_
 C1:D0B6H         PUBLIC        get_Version
  X:4532H         PUBLIC        gVersion
BL51 BANKED LINKER/LOCATER V6.22                                                      01/10/2015  21:25:33  PAGE 153



  -------         PROC BANK=1   GET_VERSION
 C1:D0B6H         LINE#         52
 C1:D0B6H         LINE#         53
 C1:D0B6H         LINE#         54
 C1:D0BCH         LINE#         55
  -------         ENDPROC       GET_VERSION
  -------         ENDMOD        SYS_COMMON

  -------         MODULE        HAL_HPGPTX
  C:0000H         SYMBOL        _ICE_DUMMY_
 C3:BE41H         PUBLIC        HHAL_BPIntHandler
  B:00A8H.7       PUBLIC        EA
 C3:BA33H         PUBLIC        setCSMA_onCCO
  X:4421H         PUBLIC        CSMA_REGIONS_VAL_DC_STA
 C3:B5A5H         PUBLIC        setCSMA_onSTA
  X:442DH         PUBLIC        gsendBcn
 C3:C4F2H         PUBLIC        HHAL_PlcPendingTx
 C3:BD5FH         PUBLIC        setCSMA_onCCO1
 C3:B399H         PUBLIC        _HHAL_PlcBcnWrite
  X:442EH         PUBLIC        CSMA_REGIONS_VAL_AC
  X:443AH         PUBLIC        CSMA_REGIONS_VAL_DC
 C3:A000H         PUBLIC        _HHAL_PlcTxQWrite
 C3:C4A1H         PUBLIC        HHAL_Bcn3SentIntHandler
 C3:C29BH         PUBLIC        HHAL_IsPlcIdle
 C3:AE9BH         SYMBOL        Com009A
 C3:AE9BH         SYMBOL        L?0155
 C3:AE9BH         SYMBOL        L?0156
 C3:AEA2H         SYMBOL        L?0157
 C3:AECEH         SYMBOL        L?0158
 C3:AED1H         SYMBOL        L?0159
 C3:AED4H         SYMBOL        L?0160
 C3:AEDCH         SYMBOL        L?0161
 C3:AEDCH         SYMBOL        L?0162
 C3:AEE3H         SYMBOL        L?0163
 C3:AEEBH         SYMBOL        L?0164
 C3:AEEDH         SYMBOL        L?0165
 C3:AEF4H         SYMBOL        L?0166
 C3:AEF5H         SYMBOL        L?0167
 C3:AEFBH         SYMBOL        L?0168
 C3:AF07H         SYMBOL        L?0169
 C3:AF0AH         SYMBOL        L?0170
 C3:AF21H         SYMBOL        L?0171
 C3:AF29H         SYMBOL        L?0172
 C3:AF35H         SYMBOL        L?0173
 C3:AF38H         SYMBOL        L?0174
 C3:AF44H         SYMBOL        L?0175
 C3:AF44H         SYMBOL        L?0176
 C3:AF47H         SYMBOL        L?0177
 C3:AF4EH         SYMBOL        L?0178
 C3:AF4EH         SYMBOL        L?0179
 C3:AF51H         SYMBOL        L?0180
 C3:AF58H         SYMBOL        L?0181
 C3:AF59H         SYMBOL        L?0182
 C3:AF5AH         SYMBOL        L?0183
 C3:AF60H         SYMBOL        L?0184
 C3:AF60H         SYMBOL        L?0185
BL51 BANKED LINKER/LOCATER V6.22                                                      01/10/2015  21:25:33  PAGE 154


 C3:AF6AH         SYMBOL        L?0186
 C3:AF84H         SYMBOL        L?0187
 C3:AF87H         SYMBOL        L?0188
 C3:AF8EH         SYMBOL        L?0189
 C3:AF8EH         SYMBOL        L?0190
 C3:AF9BH         SYMBOL        L?0191
 C3:AF9BH         SYMBOL        L?0192
 C3:AFA8H         SYMBOL        L?0193
 C3:AFA8H         SYMBOL        L?0194
 C3:AFB5H         SYMBOL        L?0195
 C3:AFB5H         SYMBOL        L?0196
 C3:AFC2H         SYMBOL        L?0197
 C3:AFC2H         SYMBOL        L?0198
 C3:AFCFH         SYMBOL        L?0199
 C3:AFD2H         SYMBOL        L?0200
 C3:AFDBH         SYMBOL        L?0201
 C3:AFDBH         SYMBOL        L?0202
 C3:AFE7H         SYMBOL        L?0203
 C3:AFE7H         SYMBOL        L?0204
 C3:AFF0H         SYMBOL        L?0205
 C3:AFF0H         SYMBOL        L?0206
 C3:AFFAH         SYMBOL        L?0207
 C3:AFFAH         SYMBOL        L?0208
 C3:B004H         SYMBOL        L?0209
 C3:B004H         SYMBOL        L?0210
 C3:B00EH         SYMBOL        L?0211
 C3:B00EH         SYMBOL        L?0212
 C3:B018H         SYMBOL        L?0213
 C3:B018H         SYMBOL        L?0214
 C3:B022H         SYMBOL        L?0215
 C3:B02CH         SYMBOL        L?0216
 C3:B031H         SYMBOL        L?0217
 C3:B039H         SYMBOL        L?0218
 C3:B03EH         SYMBOL        L?0219
 C3:B046H         SYMBOL        L?0220
 C3:B052H         SYMBOL        L?0221
 C3:B062H         SYMBOL        L?0222
 C3:B071H         SYMBOL        L?0223
 C3:B080H         SYMBOL        L?0224
 C3:B080H         SYMBOL        L?0225
 C3:B089H         SYMBOL        L?0226
 C3:B097H         SYMBOL        L?0227
 C3:B0A4H         SYMBOL        L?0228
 C3:B0B1H         SYMBOL        L?0229
 C3:B0BEH         SYMBOL        L?0230
 C3:B0CBH         SYMBOL        L?0231
 C3:B0D8H         SYMBOL        L?0232
 C3:B0E5H         SYMBOL        L?0233
 C3:B0E5H         SYMBOL        L?0234
 C3:B0ECH         SYMBOL        L?0235
 C3:B0ECH         SYMBOL        L?0236
 C3:B0F2H         SYMBOL        L?0237
 C3:B0F2H         SYMBOL        L?0238
 C3:B0F8H         SYMBOL        L?0239
 C3:B0F8H         SYMBOL        L?0240
 C3:B0FFH         SYMBOL        L?0241
 C3:B0FFH         SYMBOL        L?0242
BL51 BANKED LINKER/LOCATER V6.22                                                      01/10/2015  21:25:33  PAGE 155


 C3:B107H         SYMBOL        L?0243
 C3:B107H         SYMBOL        L?0244
 C3:B10FH         SYMBOL        L?0245
 C3:B10FH         SYMBOL        L?0246
 C3:B117H         SYMBOL        L?0247
 C3:B117H         SYMBOL        L?0248
 C3:B11EH         SYMBOL        L?0249
 C3:B12AH         SYMBOL        L?0250
 C3:B136H         SYMBOL        L?0251
 C3:B141H         SYMBOL        L?0252
 C3:B149H         SYMBOL        L?0253
 C3:B14AH         SYMBOL        L?0254
 C3:B151H         SYMBOL        L?0255
 C3:B15BH         SYMBOL        L?0256
 C3:B162H         SYMBOL        L?0257
 C3:B169H         SYMBOL        L?0258
 C3:B169H         SYMBOL        L?0259
 C3:B170H         SYMBOL        L?0260
 C3:B170H         SYMBOL        L?0261
 C3:B176H         SYMBOL        L?0262
  -------         PROC          COM009A
  -------         ENDPROC       COM009A

  -------         PROC BANK=3   SETCSMA_ONSTA
  -------         DO            
  X:3950H         SYMBOL        pCSMARgn
  X:3953H         SYMBOL        csma0
  X:3955H         SYMBOL        csma1
  X:3957H         SYMBOL        csma2
  X:3959H         SYMBOL        csma3
  X:395BH         SYMBOL        csma4
  X:395DH         SYMBOL        csma5
  -------         ENDDO         
 C3:B5A5H         LINE#         296
 C3:B5A5H         LINE#         297
 C3:B5A5H         LINE#         304
 C3:B5ABH         LINE#         305
 C3:B5B3H         LINE#         306
 C3:B5BEH         LINE#         307
 C3:B5C1H         LINE#         308
 C3:B5CAH         LINE#         318
 C3:B5CFH         LINE#         319
 C3:B5CFH         LINE#         320
 C3:B5DEH         LINE#         321
 C3:B5EDH         LINE#         322
 C3:B5FCH         LINE#         324
 C3:B60BH         LINE#         325
 C3:B61AH         LINE#         326
 C3:B629H         LINE#         327
 C3:B62BH         LINE#         329
 C3:B62FH         LINE#         330
 C3:B62FH         LINE#         331
 C3:B635H         LINE#         332
 C3:B63BH         LINE#         334
 C3:B641H         LINE#         336
 C3:B647H         LINE#         337
 C3:B64DH         LINE#         338
BL51 BANKED LINKER/LOCATER V6.22                                                      01/10/2015  21:25:33  PAGE 156


 C3:B658H         LINE#         339
 C3:B658H         LINE#         341
 C3:B668H         LINE#         342
 C3:B676H         LINE#         343
 C3:B679H         LINE#         344
 C3:B682H         LINE#         347
 C3:B68AH         LINE#         350
 C3:B698H         LINE#         352
 C3:B6A6H         LINE#         353
 C3:B6A9H         LINE#         354
 C3:B6B2H         LINE#         356
 C3:B6BAH         LINE#         359
 C3:B6C3H         LINE#         362
 C3:B6CDH         LINE#         363
 C3:B6CDH         LINE#         364
 C3:B6DBH         LINE#         365
 C3:B6DEH         LINE#         366
 C3:B6EBH         LINE#         367
 C3:B6F4H         LINE#         369
 C3:B6F7H         LINE#         370
 C3:B6FAH         LINE#         371
 C3:B707H         LINE#         372
 C3:B710H         LINE#         374
 C3:B713H         LINE#         375
 C3:B716H         LINE#         376
 C3:B723H         LINE#         377
 C3:B72CH         LINE#         379
 C3:B72FH         LINE#         380
 C3:B732H         LINE#         381
 C3:B73FH         LINE#         382
 C3:B74BH         LINE#         385
 C3:B74BH         LINE#         388
  -------         ENDPROC       SETCSMA_ONSTA

  -------         PROC BANK=3   SETCSMA_ONCCO1
  -------         DO            
  X:4556H         SYMBOL        pCSMARgn
  X:4559H         SYMBOL        csma0
  X:455BH         SYMBOL        csma1
  X:455DH         SYMBOL        csma2
  X:455FH         SYMBOL        csma3
  X:4561H         SYMBOL        csma4
  X:4563H         SYMBOL        csma5
  -------         ENDDO         
 C3:BD5FH         LINE#         392
 C3:BD5FH         LINE#         393
 C3:BD5FH         LINE#         400
 C3:BD65H         LINE#         401
 C3:BD6AH         LINE#         402
 C3:BD72H         LINE#         403
 C3:BD75H         LINE#         404
 C3:BD7BH         LINE#         414
 C3:BD82H         LINE#         415
 C3:BD82H         LINE#         416
 C3:BD8CH         LINE#         417
 C3:BD92H         LINE#         418
 C3:BD98H         LINE#         419
BL51 BANKED LINKER/LOCATER V6.22                                                      01/10/2015  21:25:33  PAGE 157


 C3:BD9EH         LINE#         420
 C3:BDA4H         LINE#         421
 C3:BDAFH         LINE#         422
 C3:BDB1H         LINE#         423
 C3:BDB4H         LINE#         424
 C3:BDB4H         LINE#         425
 C3:BDBAH         LINE#         426
 C3:BDC0H         LINE#         427
 C3:BDC6H         LINE#         428
 C3:BDCCH         LINE#         429
 C3:BDD2H         LINE#         430
 C3:BDDDH         LINE#         431
 C3:BDDDH         LINE#         432
 C3:BDEDH         LINE#         433
 C3:BDEDH         LINE#         434
 C3:BDEDH         LINE#         435
 C3:BDF3H         LINE#         437
 C3:BDFEH         LINE#         438
 C3:BE0EH         LINE#         439
 C3:BE14H         LINE#         440
 C3:BE1AH         LINE#         444
 C3:BE1AH         LINE#         445
 C3:BE1DH         LINE#         446
 C3:BE1DH         LINE#         447
 C3:BE1DH         LINE#         448
 C3:BE23H         LINE#         450
 C3:BE26H         LINE#         451
 C3:BE26H         LINE#         452
 C3:BE26H         LINE#         453
 C3:BE2CH         LINE#         455
 C3:BE2FH         LINE#         456
 C3:BE2FH         LINE#         457
 C3:BE2FH         LINE#         458
 C3:BE35H         LINE#         460
 C3:BE38H         LINE#         461
 C3:BE38H         LINE#         462
 C3:BE38H         LINE#         463
  -------         ENDPROC       SETCSMA_ONCCO1

  -------         PROC BANK=3   SETCSMA_ONCCO
  -------         DO            
  X:3950H         SYMBOL        pCSMARgn
  X:3953H         SYMBOL        csma0
  X:3955H         SYMBOL        csma1
  X:3957H         SYMBOL        csma2
  X:3959H         SYMBOL        csma3
  X:395BH         SYMBOL        csma4
  X:395DH         SYMBOL        csma5
  -------         ENDDO         
 C3:BA33H         LINE#         469
 C3:BA33H         LINE#         470
 C3:BA33H         LINE#         477
 C3:BA39H         LINE#         478
 C3:BA41H         LINE#         479
 C3:BA4CH         LINE#         480
 C3:BA4FH         LINE#         481
 C3:BA58H         LINE#         491
BL51 BANKED LINKER/LOCATER V6.22                                                      01/10/2015  21:25:33  PAGE 158


 C3:BA5DH         LINE#         492
 C3:BA5DH         LINE#         493
 C3:BA67H         LINE#         494
 C3:BA6DH         LINE#         495
 C3:BA73H         LINE#         496
 C3:BA79H         LINE#         497
 C3:BA7FH         LINE#         498
 C3:BA8AH         LINE#         499
 C3:BA8CH         LINE#         500
 C3:BA90H         LINE#         501
 C3:BA90H         LINE#         502
 C3:BA96H         LINE#         503
 C3:BA9CH         LINE#         504
 C3:BAA2H         LINE#         505
 C3:BAA8H         LINE#         506
 C3:BAAEH         LINE#         507
 C3:BAB9H         LINE#         508
 C3:BAB9H         LINE#         509
 C3:BACCH         LINE#         510
 C3:BACFH         LINE#         511
 C3:BAD8H         LINE#         513
 C3:BADBH         LINE#         514
 C3:BADEH         LINE#         515
 C3:BAE7H         LINE#         519
 C3:BAE7H         LINE#         520
 C3:BAEAH         LINE#         521
 C3:BAEDH         LINE#         522
 C3:BAFAH         LINE#         523
 C3:BB03H         LINE#         525
 C3:BB06H         LINE#         526
 C3:BB09H         LINE#         527
 C3:BB16H         LINE#         528
 C3:BB1FH         LINE#         530
 C3:BB22H         LINE#         531
 C3:BB25H         LINE#         532
 C3:BB32H         LINE#         533
 C3:BB3BH         LINE#         535
 C3:BB3EH         LINE#         536
 C3:BB41H         LINE#         537
 C3:BB4EH         LINE#         538
  -------         ENDPROC       SETCSMA_ONCCO

  -------         PROC BANK=3   _HHAL_PLCBCNWRITE
  X:3934H         SYMBOL        pTxBcn
  X:3937H         SYMBOL        bcnType
  X:3938H         SYMBOL        bpstoValueOffset
  -------         DO            
  X:3939H         SYMBOL        bcnStatus
  X:393DH         SYMBOL        bpstoReg
  X:3941H         SYMBOL        status
  X:3942H         SYMBOL        tempU32
  X:3946H         SYMBOL        ptempU8Ptr
  X:3949H         SYMBOL        BcnFifoWrRegAddr
  X:394DH         SYMBOL        BPSTORegAddr
  X:3951H         SYMBOL        pAvFcBlk
  X:3954H         SYMBOL        i
  -------         ENDDO         
BL51 BANKED LINKER/LOCATER V6.22                                                      01/10/2015  21:25:33  PAGE 159


 C3:B399H         LINE#         563
 C3:B3A2H         LINE#         564
 C3:B3A2H         LINE#         577
 C3:B3A7H         LINE#         578
 C3:B3B6H         LINE#         579
 C3:B3BDH         LINE#         585
 C3:B3C9H         LINE#         596
 C3:B3D2H         LINE#         597
 C3:B3D2H         LINE#         599
 C3:B3DFH         LINE#         601
 C3:B3E7H         LINE#         602
 C3:B401H         LINE#         606
 C3:B410H         LINE#         607
 C3:B443H         LINE#         610
 C3:B443H         LINE#         611
 C3:B443H         LINE#         612
 C3:B44DH         LINE#         613
 C3:B457H         LINE#         614
 C3:B457H         LINE#         616
 C3:B457H         LINE#         617
 C3:B457H         LINE#         618
 C3:B457H         LINE#         619
 C3:B457H         LINE#         622
 C3:B460H         LINE#         623
 C3:B464H         LINE#         624
 C3:B46EH         LINE#         625
 C3:B485H         LINE#         627
 C3:B485H         LINE#         628
 C3:B485H         LINE#         630
 C3:B485H         LINE#         633
 C3:B499H         LINE#         638
 C3:B4AAH         LINE#         639
 C3:B4AAH         LINE#         640
 C3:B4C5H         LINE#         641
 C3:B4EFH         LINE#         642
 C3:B50AH         LINE#         643
 C3:B528H         LINE#         644
 C3:B53FH         LINE#         645
 C3:B53FH         LINE#         646
 C3:B53FH         LINE#         647
 C3:B53FH         LINE#         648
 C3:B53FH         LINE#         650
 C3:B53FH         LINE#         652
 C3:B53FH         LINE#         653
 C3:B549H         LINE#         655
 C3:B555H         LINE#         657
 C3:B555H         LINE#         658
 C3:B555H         LINE#         660
 C3:B555H         LINE#         734
 C3:B555H         LINE#         735
 C3:B555H         LINE#         736
 C3:B55CH         LINE#         737
 C3:B55CH         LINE#         739
 C3:B55CH         LINE#         740
 C3:B55CH         LINE#         741
 C3:B55CH         LINE#         743
 C3:B568H         LINE#         744
BL51 BANKED LINKER/LOCATER V6.22                                                      01/10/2015  21:25:33  PAGE 160


 C3:B574H         LINE#         745
 C3:B57DH         LINE#         746
 C3:B57FH         LINE#         750
 C3:B57FH         LINE#         752
 C3:B587H         LINE#         753
 C3:B587H         LINE#         754
 C3:B595H         LINE#         755
 C3:B597H         LINE#         757
 C3:B597H         LINE#         758
 C3:B59EH         LINE#         759
 C3:B5A4H         LINE#         760
 C3:B5A4H         LINE#         761
 C3:B5A4H         LINE#         762
  -------         ENDPROC       _HHAL_PLCBCNWRITE

  -------         PROC BANK=3   HHAL_ISPLCIDLE
  -------         DO            
  X:3B55H         SYMBOL        bcnStatus
  X:3B59H         SYMBOL        plcStatus
  X:3B5DH         SYMBOL        plcMedStat
  X:3B61H         SYMBOL        plcLineCtrl
  -------         ENDDO         
 C3:C29BH         LINE#         889
 C3:C29BH         LINE#         890
 C3:C29BH         LINE#         899
 C3:C2A1H         LINE#         900
 C3:C2AAH         LINE#         902
 C3:C2B6H         LINE#         904
 C3:C2C2H         LINE#         907
 C3:C2E0H         LINE#         910
 C3:C2E0H         LINE#         929
 C3:C2E3H         LINE#         930
 C3:C2E3H         LINE#         941
 C3:C2E5H         LINE#         942
  -------         ENDPROC       HHAL_ISPLCIDLE

  -------         PROC BANK=3   _HHAL_PLCTXQWRITE
  X:3B55H         SYMBOL        txFrmSwDesc
  -------         DO            
  X:3B58H         SYMBOL        frmDescCnt
  X:3B59H         SYMBOL        status
  X:3B5AH         SYMBOL        bcnStatus
  X:3B5EH         SYMBOL        plcStatus
  X:3B62H         SYMBOL        plcMedStat
  X:3B66H         SYMBOL        plcLineCtrl
  X:3B6AH         SYMBOL        txfrmHwDesc
  X:3B6EH         SYMBOL        vofDesc0
  X:3B72H         SYMBOL        vofDesc1
  X:3B76H         SYMBOL        vofDesc2
  X:3B7AH         SYMBOL        vofDesc3
  X:3B7EH         SYMBOL        cap_write
  X:3B82H         SYMBOL        txCpDesc
  X:3B86H         SYMBOL        txCmdQueueWrtie
  X:3B8AH         SYMBOL        roboMode
  X:3B8BH         SYMBOL        numPBs
  X:3B8CH         SYMBOL        flAv
  X:3B8EH         SYMBOL        miniRoboFrmLenMax
BL51 BANKED LINKER/LOCATER V6.22                                                      01/10/2015  21:25:33  PAGE 161


  X:3B90H         SYMBOL        stdRoboFrmLenMax
  X:3B92H         SYMBOL        hsRobo2PbFrmLenMax
  X:3B94H         SYMBOL        hsRobo3PbFrmLenMax
  X:3B96H         SYMBOL        CapQueueStatus
  D:0007H         SYMBOL        mfsCmd
  X:3B97H         SYMBOL        i
  X:3B98H         SYMBOL        tmpPtr
  X:3B9BH         SYMBOL        val_32
  -------         ENDDO         
 C3:A000H         LINE#         963
 C3:A006H         LINE#         971
 C3:A006H         LINE#         1002
 C3:A00BH         LINE#         1003
 C3:A01AH         LINE#         1005
 C3:A026H         LINE#         1007
 C3:A032H         LINE#         1008
 C3:A038H         LINE#         1009
 C3:A041H         LINE#         1012
 C3:A053H         LINE#         1021
 C3:A053H         LINE#         1022
 C3:A056H         LINE#         1023
 C3:A056H         LINE#         1026
 C3:A056H         LINE#         1028
 C3:A060H         LINE#         1029
 C3:A060H         LINE#         1031
 C3:A063H         LINE#         1033
 C3:A065H         LINE#         1034
 C3:A068H         LINE#         1035
 C3:A068H         LINE#         1036
 C3:A06BH         LINE#         1038
 C3:A06DH         LINE#         1039
 C3:A078H         LINE#         1040
 C3:A078H         LINE#         1041
 C3:A07BH         LINE#         1043
 C3:A07DH         LINE#         1044
 C3:A080H         LINE#         1045
 C3:A080H         LINE#         1046
 C3:A088H         LINE#         1048
 C3:A088H         LINE#         1050
 C3:A08DH         LINE#         1051
 C3:A08DH         LINE#         1054
 C3:A093H         LINE#         1055
 C3:A096H         LINE#         1057
 C3:A096H         LINE#         1060
 C3:A09AH         LINE#         1061
 C3:A0A4H         LINE#         1062
 C3:A0A8H         LINE#         1063
 C3:A0AFH         LINE#         1064
 C3:A0B6H         LINE#         1065
 C3:A0C0H         LINE#         1067
 C3:A0D0H         LINE#         1068
 C3:A0D0H         LINE#         1069
 C3:A0D6H         LINE#         1070
 C3:A0DBH         LINE#         1071
 C3:A0E0H         LINE#         1072
 C3:A0E8H         LINE#         1074
 C3:A0EAH         LINE#         1076
BL51 BANKED LINKER/LOCATER V6.22                                                      01/10/2015  21:25:33  PAGE 162


 C3:A0EAH         LINE#         1077
 C3:A0F0H         LINE#         1078
 C3:A0F5H         LINE#         1079
 C3:A0FAH         LINE#         1080
 C3:A102H         LINE#         1081
 C3:A102H         LINE#         1086
 C3:A105H         LINE#         1087
 C3:A105H         LINE#         1088
 C3:A111H         LINE#         1089
 C3:A111H         LINE#         1090
 C3:A111H         LINE#         1091
 C3:A116H         LINE#         1092
 C3:A116H         LINE#         1093
 C3:A118H         LINE#         1095
 C3:A118H         LINE#         1096
 C3:A118H         LINE#         1097
 C3:A11BH         LINE#         1098
 C3:A11BH         LINE#         1099
 C3:A11BH         LINE#         1100
 C3:A11DH         LINE#         1102
 C3:A11DH         LINE#         1103
 C3:A131H         LINE#         1104
 C3:A131H         LINE#         1105
 C3:A131H         LINE#         1106
 C3:A135H         LINE#         1107
 C3:A135H         LINE#         1108
 C3:A137H         LINE#         1109
 C3:A143H         LINE#         1110
 C3:A143H         LINE#         1112
 C3:A14BH         LINE#         1113
 C3:A14BH         LINE#         1114
 C3:A14BH         LINE#         1115
 C3:A151H         LINE#         1116
 C3:A153H         LINE#         1119
 C3:A153H         LINE#         1120
 C3:A159H         LINE#         1121
 C3:A161H         LINE#         1122
 C3:A161H         LINE#         1123
 C3:A166H         LINE#         1124
 C3:A168H         LINE#         1126
 C3:A168H         LINE#         1127
 C3:A16EH         LINE#         1128
 C3:A17FH         LINE#         1129
 C3:A17FH         LINE#         1130
 C3:A185H         LINE#         1131
 C3:A188H         LINE#         1132
 C3:A18AH         LINE#         1133
 C3:A192H         LINE#         1134
 C3:A192H         LINE#         1135
 C3:A19CH         LINE#         1136
 C3:A1A2H         LINE#         1137
 C3:A1A4H         LINE#         1139
 C3:A1A4H         LINE#         1145
 C3:A1AAH         LINE#         1146
 C3:A1AAH         LINE#         1147
 C3:A1AAH         LINE#         1148
 C3:A1AAH         LINE#         1155
BL51 BANKED LINKER/LOCATER V6.22                                                      01/10/2015  21:25:33  PAGE 163


 C3:A1B4H         LINE#         1167
 C3:A1C6H         LINE#         1173
 C3:A1E0H         LINE#         1174
 C3:A1E8H         LINE#         1175
 C3:A1E8H         LINE#         1177
 C3:A1EFH         LINE#         1182
 C3:A1F1H         LINE#         1183
 C3:A1F4H         LINE#         1184
 C3:A1F4H         LINE#         1185
 C3:A1FAH         LINE#         1190
 C3:A1FCH         LINE#         1191
 C3:A207H         LINE#         1192
 C3:A207H         LINE#         1193
 C3:A20DH         LINE#         1198
 C3:A20FH         LINE#         1199
 C3:A212H         LINE#         1200
 C3:A212H         LINE#         1201
 C3:A218H         LINE#         1206
 C3:A218H         LINE#         1220
 C3:A222H         LINE#         1223
 C3:A22DH         LINE#         1224
 C3:A22DH         LINE#         1226
 C3:A22DH         LINE#         1227
 C3:A230H         LINE#         1229
 C3:A234H         LINE#         1230
 C3:A237H         LINE#         1232
 C3:A23DH         LINE#         1235
 C3:A242H         LINE#         1241
 C3:A242H         LINE#         1242
 C3:A242H         LINE#         1243
 C3:A242H         LINE#         1246
 C3:A242H         LINE#         1247
 C3:A245H         LINE#         1249
 C3:A245H         LINE#         1252
 C3:A245H         LINE#         1253
 C3:A248H         LINE#         1256
 C3:A251H         LINE#         1257
 C3:A251H         LINE#         1258
 C3:A258H         LINE#         1259
 C3:A25AH         LINE#         1260
 C3:A25DH         LINE#         1261
 C3:A25DH         LINE#         1262
 C3:A264H         LINE#         1263
 C3:A264H         LINE#         1265
 C3:A27BH         LINE#         1268
 C3:A281H         LINE#         1271
 C3:A28EH         LINE#         1272
 C3:A28EH         LINE#         1273
 C3:A291H         LINE#         1274
 C3:A293H         LINE#         1276
 C3:A293H         LINE#         1277
 C3:A298H         LINE#         1278
 C3:A298H         LINE#         1281
 C3:A2B3H         LINE#         1282
 C3:A2B9H         LINE#         1283
 C3:A2C5H         LINE#         1286
 C3:A2C9H         LINE#         1287
BL51 BANKED LINKER/LOCATER V6.22                                                      01/10/2015  21:25:33  PAGE 164


 C3:A2C9H         LINE#         1290
 C3:A2D3H         LINE#         1291
 C3:A2DEH         LINE#         1292
 C3:A2DEH         LINE#         1293
 C3:A2E7H         LINE#         1294
 C3:A2E9H         LINE#         1295
 C3:A2F3H         LINE#         1296
 C3:A2F3H         LINE#         1297
 C3:A2FCH         LINE#         1298
 C3:A2FEH         LINE#         1299
 C3:A305H         LINE#         1300
 C3:A305H         LINE#         1301
 C3:A30BH         LINE#         1302
 C3:A30DH         LINE#         1304
 C3:A313H         LINE#         1308
 C3:A31DH         LINE#         1316
 C3:A327H         LINE#         1317
 C3:A333H         LINE#         1318
 C3:A341H         LINE#         1321
 C3:A349H         LINE#         1323
 C3:A350H         LINE#         1324
 C3:A350H         LINE#         1325
 C3:A35AH         LINE#         1326
 C3:A360H         LINE#         1328
 C3:A364H         LINE#         1331
 C3:A373H         LINE#         1338
 C3:A38EH         LINE#         1339
 C3:A39FH         LINE#         1340
 C3:A3A5H         LINE#         1341
 C3:A3A8H         LINE#         1344
 C3:A3B5H         LINE#         1346
 C3:A3B8H         LINE#         1348
 C3:A3B8H         LINE#         1350
 C3:A3C8H         LINE#         1351
 C3:A3CFH         LINE#         1357
 C3:A3DCH         LINE#         1362
 C3:A3EAH         LINE#         1363
 C3:A404H         LINE#         1378
 C3:A418H         LINE#         1379
 C3:A41EH         LINE#         1381
 C3:A422H         LINE#         1386
 C3:A42DH         LINE#         1387
 C3:A42DH         LINE#         1395
 C3:A437H         LINE#         1397
 C3:A442H         LINE#         1398
 C3:A442H         LINE#         1399
 C3:A44EH         LINE#         1400
 C3:A44EH         LINE#         1401
 C3:A44EH         LINE#         1402
 C3:A455H         LINE#         1403
 C3:A458H         LINE#         1404
 C3:A458H         LINE#         1405
 C3:A45FH         LINE#         1406
 C3:A462H         LINE#         1407
 C3:A462H         LINE#         1408
 C3:A462H         LINE#         1409
 C3:A469H         LINE#         1410
BL51 BANKED LINKER/LOCATER V6.22                                                      01/10/2015  21:25:33  PAGE 165


 C3:A46CH         LINE#         1411
 C3:A46CH         LINE#         1412
 C3:A46CH         LINE#         1414
 C3:A46CH         LINE#         1416
 C3:A47AH         LINE#         1418
 C3:A480H         LINE#         1419
 C3:A483H         LINE#         1423
 C3:A48CH         LINE#         1424
 C3:A48CH         LINE#         1425
 C3:A493H         LINE#         1426
 C3:A493H         LINE#         1427
 C3:A495H         LINE#         1428
 C3:A498H         LINE#         1429
 C3:A498H         LINE#         1430
 C3:A49FH         LINE#         1431
 C3:A49FH         LINE#         1433
 C3:A4B1H         LINE#         1434
 C3:A4B8H         LINE#         1435
 C3:A4B8H         LINE#         1436
 C3:A4C8H         LINE#         1437
 C3:A4CAH         LINE#         1438
 C3:A4D1H         LINE#         1439
 C3:A4D1H         LINE#         1440
 C3:A4E1H         LINE#         1441
 C3:A4E1H         LINE#         1448
 C3:A4E1H         LINE#         1454
 C3:A4EBH         LINE#         1456
 C3:A4F1H         LINE#         1457
 C3:A4FFH         LINE#         1458
 C3:A513H         LINE#         1459
 C3:A51AH         LINE#         1460
 C3:A51AH         LINE#         1461
 C3:A521H         LINE#         1462
 C3:A521H         LINE#         1481
 C3:A532H         LINE#         1482
 C3:A532H         LINE#         1484
 C3:A535H         LINE#         1486
 C3:A537H         LINE#         1487
 C3:A53AH         LINE#         1488
 C3:A53AH         LINE#         1489
 C3:A53DH         LINE#         1491
 C3:A53FH         LINE#         1492
 C3:A54AH         LINE#         1493
 C3:A54AH         LINE#         1494
 C3:A54DH         LINE#         1496
 C3:A54FH         LINE#         1497
 C3:A552H         LINE#         1498
 C3:A552H         LINE#         1499
 C3:A55AH         LINE#         1501
 C3:A55AH         LINE#         1503
 C3:A55FH         LINE#         1504
 C3:A55FH         LINE#         1507
 C3:A565H         LINE#         1508
 C3:A568H         LINE#         1510
 C3:A568H         LINE#         1511
 C3:A56AH         LINE#         1512
 C3:A576H         LINE#         1513
BL51 BANKED LINKER/LOCATER V6.22                                                      01/10/2015  21:25:33  PAGE 166


 C3:A578H         LINE#         1521
 C3:A57AH         LINE#         1522
 C3:A580H         LINE#         1523
 C3:A58AH         LINE#         1526
 C3:A58DH         LINE#         1527
 C3:A597H         LINE#         1530
 C3:A59DH         LINE#         1531
 C3:A5A7H         LINE#         1534
 C3:A5ADH         LINE#         1535
 C3:A5B7H         LINE#         1538
 C3:A5BDH         LINE#         1539
 C3:A5C7H         LINE#         1542
 C3:A5CDH         LINE#         1543
 C3:A5D7H         LINE#         1544
 C3:A5D9H         LINE#         1553
 C3:A5F3H         LINE#         1554
 C3:A5F3H         LINE#         1555
 C3:A5FDH         LINE#         1556
 C3:A623H         LINE#         1557
 C3:A639H         LINE#         1558
 C3:A640H         LINE#         1560
 C3:A647H         LINE#         1561
 C3:A647H         LINE#         1562
 C3:A653H         LINE#         1563
 C3:A653H         LINE#         1564
 C3:A660H         LINE#         1565
 C3:A660H         LINE#         1566
 C3:A667H         LINE#         1567
 C3:A667H         LINE#         1568
 C3:A685H         LINE#         1569
 C3:A687H         LINE#         1571
 C3:A68DH         LINE#         1572
 C3:A697H         LINE#         1574
 C3:A699H         LINE#         1575
 C3:A6A2H         LINE#         1597
 C3:A6A2H         LINE#         1600
 C3:A6ACH         LINE#         1601
 C3:A6C0H         LINE#         1602
 C3:A6D1H         LINE#         1603
 C3:A6E0H         LINE#         1607
 C3:A6E2H         LINE#         1608
 C3:A6EBH         LINE#         1609
 C3:A6EDH         LINE#         1614
 C3:A6EDH         LINE#         1616
 C3:A6F9H         LINE#         1618
 C3:A705H         LINE#         1651
 C3:A70BH         LINE#         1652
 C3:A70BH         LINE#         1654
 C3:A712H         LINE#         1657
 C3:A717H         LINE#         1674
 C3:A719H         LINE#         1675
 C3:A725H         LINE#         1676
 C3:A72CH         LINE#         1678
 C3:A738H         LINE#         1679
 C3:A73AH         LINE#         1701
 C3:A73AH         LINE#         1702
 C3:A73AH         LINE#         1703
BL51 BANKED LINKER/LOCATER V6.22                                                      01/10/2015  21:25:33  PAGE 167


 C3:A744H         LINE#         1704
 C3:A744H         LINE#         1714
 C3:A749H         LINE#         1715
 C3:A752H         LINE#         1717
 C3:A789H         LINE#         1718
 C3:A790H         LINE#         1719
 C3:A790H         LINE#         1720
 C3:A799H         LINE#         1721
 C3:A79BH         LINE#         1723
 C3:A79BH         LINE#         1724
 C3:A7A7H         LINE#         1725
 C3:A7A7H         LINE#         1727
 C3:A7A7H         LINE#         1729
 C3:A7A7H         LINE#         1730
 C3:A7A7H         LINE#         1731
 C3:A7ACH         LINE#         1733
  -------         ENDPROC       _HHAL_PLCTXQWRITE

  -------         PROC BANK=3   HHAL_BCN3SENTINTHANDLER
 C3:C4A1H         LINE#         1736
 C3:C4A1H         LINE#         1737
 C3:C4A1H         LINE#         1738
 C3:C4ADH         LINE#         1739
 C3:C4B2H         LINE#         1740
  -------         ENDPROC       HHAL_BCN3SENTINTHANDLER

  -------         PROC BANK=3   HHAL_PLCPENDINGTX
 C3:C4F2H         LINE#         1742
 C3:C4F2H         LINE#         1743
 C3:C4F2H         LINE#         1813
  -------         ENDPROC       HHAL_PLCPENDINGTX

  -------         PROC BANK=3   HHAL_BPINTHANDLER
  -------         DO            
  X:392CH         SYMBOL        plcMedStat
  X:3930H         SYMBOL        plcStatus
  X:4418H         SYMBOL        prevBPInt_TimerCnt
  X:441CH         SYMBOL        curBPInt_TimerCnt
  X:4420H         SYMBOL        bpInit
  -------         ENDDO         
 C3:BE41H         LINE#         1901
 C3:BE41H         LINE#         1902
 C3:BE41H         LINE#         1911
 C3:BE53H         LINE#         1912
 C3:BE53H         LINE#         1926
 C3:BE5FH         LINE#         1927
 C3:BE5FH         LINE#         1928
 C3:BE65H         LINE#         1929
 C3:BE65H         LINE#         1930
 C3:BE6BH         LINE#         1931
 C3:BE6BH         LINE#         1932
 C3:BE77H         LINE#         1933
 C3:BE77H         LINE#         1934
 C3:BE83H         LINE#         1935
 C3:BE99H         LINE#         1936
 C3:BEA5H         LINE#         1944
 C3:BEB1H         LINE#         1945
BL51 BANKED LINKER/LOCATER V6.22                                                      01/10/2015  21:25:33  PAGE 168


 C3:BEB1H         LINE#         1947
 C3:BEB6H         LINE#         1951
 C3:BEB6H         LINE#         1952
 C3:BEC9H         LINE#         1954
 C3:BEC9H         LINE#         1955
 C3:BEC9H         LINE#         1958
 C3:BED2H         LINE#         1959
 C3:BEDBH         LINE#         1960
 C3:BEE7H         LINE#         1961
 C3:BEE7H         LINE#         1962
 C3:BEF0H         LINE#         1963
 C3:BEF0H         LINE#         1975
 C3:BEF2H         LINE#         1976
 C3:BEF3H         LINE#         1977
 C3:BEF5H         LINE#         1978
 C3:BF07H         LINE#         1979
 C3:BF07H         LINE#         1980
 C3:BF0DH         LINE#         1981
 C3:BF0FH         LINE#         1983
 C3:BF0FH         LINE#         1984
 C3:BF14H         LINE#         1985
 C3:BF14H         LINE#         1986
 C3:BF14H         LINE#         1987
 C3:BF20H         LINE#         1994
 C3:BF20H         LINE#         1995
  -------         ENDPROC       HHAL_BPINTHANDLER
  -------         ENDMOD        HAL_HPGPTX

  -------         MODULE        DATAPATH
  C:0000H         SYMBOL        _ICE_DUMMY_
 C3:C04AH         PUBLIC        _ETH_FillHybriiHeader
 C3:C46CH         PUBLIC        _datapath_IsQueueEmpty
 C3:C3F7H         PUBLIC        _datapath_IsQueueFull
 C3:AB57H         PUBLIC        _Host_RxHandler
 C3:C0D1H         PUBLIC        _datapath_writeHostIntf
 C3:C3C5H         PUBLIC        _EHT_FillEtherHeader
 C3:C424H         PUBLIC        datapath_handlePlcTxDone
  X:2000H         PUBLIC        ConnState
 C3:BB5AH         PUBLIC        _hostRxPostProcess
 C3:C449H         PUBLIC        _EHT_GetSniffHdrSize
  X:2154H         SYMBOL        plcTxTime
 C3:C1CBH         PUBLIC        _EHT_SetFrameTypeLen
  X:2158H         PUBLIC        gNekEks
  X:2159H         PUBLIC        host_intf_max_cp
 C3:A7ADH         PUBLIC        _datapath_queueToHost
  C:8D35H         SYMBOL        _?ix1000
 C3:C320H         PUBLIC        datapath_transmitDataHost
 C3:B8D8H         PUBLIC        datapath_transmitDataPlc
 C3:C2E6H         PUBLIC        _datapath_queue_depth
  X:215AH         PUBLIC        gDqueue
 C3:BF21H         PUBLIC        _datapath_queue
 C3:B74CH         PUBLIC        _EHT_FromPlcBcnTx
 C3:C4D6H         PUBLIC        datapath_init
 C3:C154H         PUBLIC        _datapath_getHeadDesc
  X:309EH         PUBLIC        plcRxDataSeqNum
  X:30A2H         PUBLIC        plcTxDataSeqNum
  X:30A6H         PUBLIC        numHostCPs
BL51 BANKED LINKER/LOCATER V6.22                                                      01/10/2015  21:25:33  PAGE 169


 C3:B180H         SYMBOL        Com00A4
 C3:B180H         SYMBOL        L?0165
 C3:B180H         SYMBOL        L?0166
 C3:B194H         SYMBOL        L?0167
 C3:B195H         SYMBOL        L?0168
 C3:B198H         SYMBOL        L?0169
 C3:B199H         SYMBOL        L?0170
 C3:B19CH         SYMBOL        L?0171
 C3:B1A0H         SYMBOL        L?0172
 C3:B1A9H         SYMBOL        L?0173
 C3:B1ACH         SYMBOL        L?0174
 C3:B1AFH         SYMBOL        L?0175
 C3:B1BDH         SYMBOL        L?0176
 C3:B1D2H         SYMBOL        L?0177
 C3:B1D5H         SYMBOL        L?0178
 C3:B1DDH         SYMBOL        L?0179
 C3:B1E0H         SYMBOL        L?0180
 C3:B1E3H         SYMBOL        L?0181
 C3:B1E6H         SYMBOL        L?0182
 C3:B1EDH         SYMBOL        L?0183
 C3:B1EDH         SYMBOL        L?0184
 C3:B1F0H         SYMBOL        L?0185
 C3:B1F3H         SYMBOL        L?0186
 C3:B1F9H         SYMBOL        L?0187
 C3:B1F9H         SYMBOL        L?0188
 C3:B1FCH         SYMBOL        L?0189
 C3:B202H         SYMBOL        L?0190
 C3:B208H         SYMBOL        L?0191
 C3:B20FH         SYMBOL        L?0192
 C3:B236H         SYMBOL        L?0193
 C3:B25AH         SYMBOL        L?0194
 C3:B25CH         SYMBOL        L?0195
 C3:B26EH         SYMBOL        L?0196
 C3:B272H         SYMBOL        L?0197
 C3:B275H         SYMBOL        L?0198
 C3:B27BH         SYMBOL        L?0199
 C3:B284H         SYMBOL        L?0200
 C3:B287H         SYMBOL        L?0201
 C3:B28EH         SYMBOL        L?0202
 C3:B291H         SYMBOL        L?0203
 C3:B297H         SYMBOL        L?0205
 C3:B2AEH         SYMBOL        L?0206
 C3:B2B5H         SYMBOL        L?0207
 C3:B2BDH         SYMBOL        L?0208
 C3:B2C2H         SYMBOL        L?0209
 C3:B2C9H         SYMBOL        L?0210
 C3:B2CAH         SYMBOL        L?0211
 C3:B2D3H         SYMBOL        L?0212
 C3:B2E3H         SYMBOL        L?0213
 C3:B2E7H         SYMBOL        L?0214
 C3:B2EFH         SYMBOL        L?0215
 C3:B2F8H         SYMBOL        L?0216
 C3:B2FBH         SYMBOL        L?0217
 C3:B302H         SYMBOL        L?0218
 C3:B307H         SYMBOL        L?0219
 C3:B30EH         SYMBOL        L?0221
 C3:B30EH         SYMBOL        L?0222
BL51 BANKED LINKER/LOCATER V6.22                                                      01/10/2015  21:25:33  PAGE 170


 C3:B317H         SYMBOL        L?0223
 C3:B325H         SYMBOL        L?0224
 C3:B32DH         SYMBOL        L?0225
 C3:B336H         SYMBOL        L?0227
 C3:B341H         SYMBOL        L?0228
 C3:B34CH         SYMBOL        L?0229
 C3:B356H         SYMBOL        L?0230
 C3:B360H         SYMBOL        L?0231
 C3:B361H         SYMBOL        L?0232
 C3:B367H         SYMBOL        L?0233
 C3:B372H         SYMBOL        L?0234
 C3:B37DH         SYMBOL        L?0235
 C3:B385H         SYMBOL        L?0236
 C3:B385H         SYMBOL        L?0237
 C3:B38CH         SYMBOL        L?0238
 C3:B38CH         SYMBOL        L?0239
 C3:B393H         SYMBOL        L?0240
 C3:B393H         SYMBOL        L?0241
  -------         PROC          COM00A4
  -------         ENDPROC       COM00A4

  -------         PROC BANK=3   _DATAPATH_WRITEHOSTINTF
  X:3B8AH         SYMBOL        hostTxFrmSwDesc
  -------         DO            
  X:3B8DH         SYMBOL        crc16
  X:3B8FH         SYMBOL        status
  X:3B90H         SYMBOL        firstCp
  -------         ENDDO         
 C3:C0D1H         LINE#         147
 C3:C0D7H         LINE#         148
 C3:C0D7H         LINE#         150
 C3:C0DEH         LINE#         154
 C3:C0E2H         LINE#         158
 C3:C0EAH         LINE#         159
 C3:C0EAH         LINE#         161
 C3:C0F8H         LINE#         163
 C3:C0FAH         LINE#         164
 C3:C0FAH         LINE#         170
 C3:C107H         LINE#         172
 C3:C10AH         LINE#         174
 C3:C121H         LINE#         175
 C3:C121H         LINE#         176
 C3:C121H         LINE#         177
 C3:C123H         LINE#         179
 C3:C128H         LINE#         180
 C3:C128H         LINE#         186
 C3:C12EH         LINE#         187
 C3:C12EH         LINE#         196
 C3:C131H         LINE#         198
 C3:C148H         LINE#         199
 C3:C148H         LINE#         201
 C3:C153H         LINE#         203
 C3:C153H         LINE#         224
  -------         ENDPROC       _DATAPATH_WRITEHOSTINTF

  -------         PROC BANK=3   DATAPATH_HANDLEPLCTXDONE
  -------         DO            
BL51 BANKED LINKER/LOCATER V6.22                                                      01/10/2015  21:25:33  PAGE 171


  D:0007H         SYMBOL        tailIdx
  D:0001H         SYMBOL        lpPlcTxFrmSwDesc
  -------         ENDDO         
 C3:C424H         LINE#         228
 C3:C424H         LINE#         229
 C3:C424H         LINE#         236
 C3:C424H         LINE#         237
 C3:C424H         LINE#         243
 C3:C42AH         LINE#         245
 C3:C438H         LINE#         247
 C3:C43EH         LINE#         248
 C3:C43EH         LINE#         249
 C3:C448H         LINE#         257
 C3:C448H         LINE#         260
 C3:C448H         LINE#         265
  -------         ENDPROC       DATAPATH_HANDLEPLCTXDONE

  -------         PROC BANK=3   DATAPATH_INIT
 C3:C4D6H         LINE#         266
 C3:C4D6H         LINE#         267
 C3:C4D6H         LINE#         268
  -------         ENDPROC       DATAPATH_INIT

  -------         PROC BANK=3   _DATAPATH_ISQUEUEFULL
  D:0007H         SYMBOL        id
  -------         DO            
  D:0006H         SYMBOL        head
  D:0007H         SYMBOL        tail
  -------         ENDDO         
 C3:C3F7H         LINE#         271
 C3:C3F7H         LINE#         272
 C3:C3F7H         LINE#         273
 C3:C3F7H         LINE#         274
 C3:C3FCH         LINE#         278
 C3:C410H         LINE#         280
 C3:C410H         LINE#         284
 C3:C41EH         LINE#         286
 C3:C41EH         LINE#         298
 C3:C421H         LINE#         301
 C3:C421H         LINE#         303
 C3:C421H         LINE#         307
 C3:C423H         LINE#         309
  -------         ENDPROC       _DATAPATH_ISQUEUEFULL

  -------         PROC BANK=3   _DATAPATH_QUEUE_DEPTH
  D:0007H         SYMBOL        id
  -------         DO            
  D:0006H         SYMBOL        head
  X:36E1H         SYMBOL        tail
  -------         ENDDO         
 C3:C2E6H         LINE#         313
 C3:C2E6H         LINE#         314
 C3:C2E6H         LINE#         315
 C3:C2E6H         LINE#         316
 C3:C2EEH         LINE#         318
 C3:C2FEH         LINE#         320
 C3:C30FH         LINE#         322
BL51 BANKED LINKER/LOCATER V6.22                                                      01/10/2015  21:25:33  PAGE 172


  -------         ENDPROC       _DATAPATH_QUEUE_DEPTH

  -------         PROC BANK=3   _DATAPATH_QUEUE
  X:3AB7H         SYMBOL        id
  X:3AB8H         SYMBOL        pPlcTxFrmSwDesc
  -------         DO            
  D:0006H         SYMBOL        wrapBit
  X:3ABBH         SYMBOL        indexHd
  X:3ABCH         SYMBOL        swDesc
  -------         ENDDO         
 C3:BF21H         LINE#         327
 C3:BF2AH         LINE#         329
 C3:BF2AH         LINE#         337
 C3:BF3DH         LINE#         339
 C3:BF44H         LINE#         341
 C3:BF56H         LINE#         344
 C3:BF65H         LINE#         346
 C3:BF70H         LINE#         349
 C3:BF74H         LINE#         350
 C3:BF74H         LINE#         352
 C3:BF81H         LINE#         354
 C3:BF81H         LINE#         356
 C3:BF95H         LINE#         358
 C3:BFA2H         LINE#         359
 C3:BFA2H         LINE#         360
 C3:BFB0H         LINE#         361
 C3:BFBEH         LINE#         362
 C3:BFBEH         LINE#         367
  -------         ENDPROC       _DATAPATH_QUEUE

  -------         PROC BANK=3   _DATAPATH_GETHEADDESC
  X:3B8AH         SYMBOL        id
  X:3B8BH         SYMBOL        pop
  -------         DO            
  D:0006H         SYMBOL        wrapBit
  X:3B8CH         SYMBOL        tailIdx
  D:0001H         SYMBOL        lpPlcTxFrmSwDesc
  -------         ENDDO         
 C3:C154H         LINE#         370
 C3:C15CH         LINE#         371
 C3:C15CH         LINE#         378
 C3:C16FH         LINE#         379
 C3:C172H         LINE#         382
 C3:C178H         LINE#         383
 C3:C178H         LINE#         385
 C3:C181H         LINE#         386
 C3:C19BH         LINE#         388
 C3:C19FH         LINE#         389
 C3:C19FH         LINE#         391
 C3:C1AFH         LINE#         393
 C3:C1AFH         LINE#         394
 C3:C1BCH         LINE#         395
 C3:C1BCH         LINE#         396
 C3:C1C3H         LINE#         397
 C3:C1CAH         LINE#         399
 C3:C1CAH         LINE#         403
 C3:C1CAH         LINE#         407
BL51 BANKED LINKER/LOCATER V6.22                                                      01/10/2015  21:25:33  PAGE 173


 C3:C1CAH         LINE#         408
  -------         ENDPROC       _DATAPATH_GETHEADDESC

  -------         PROC BANK=3   _DATAPATH_ISQUEUEEMPTY
  D:0007H         SYMBOL        id
  -------         DO            
  D:0006H         SYMBOL        head
  D:0007H         SYMBOL        tail
  -------         ENDDO         
 C3:C46CH         LINE#         410
 C3:C46CH         LINE#         411
 C3:C46CH         LINE#         413
 C3:C46CH         LINE#         414
 C3:C471H         LINE#         419
 C3:C484H         LINE#         421
 C3:C484H         LINE#         423
 C3:C487H         LINE#         425
 C3:C487H         LINE#         429
 C3:C489H         LINE#         433
  -------         ENDPROC       _DATAPATH_ISQUEUEEMPTY

  -------         PROC BANK=3   _EHT_SETFRAMETYPELEN
  X:3AB7H         SYMBOL        rxBcnByteArr
  D:0005H         SYMBOL        frmType
  X:3ABBH         SYMBOL        frmLen
  -------         DO            
  X:3ABDH         SYMBOL        mh_hdr
  -------         ENDDO         
 C3:C1CBH         LINE#         437
 C3:C1D1H         LINE#         438
 C3:C1D1H         LINE#         440
 C3:C1D7H         LINE#         441
 C3:C1DFH         LINE#         442
 C3:C1DFH         LINE#         444
 C3:C1DFH         LINE#         451
 C3:C1E9H         LINE#         452
 C3:C1F1H         LINE#         453
 C3:C1FBH         LINE#         454
 C3:C1FBH         LINE#         456
 C3:C1FDH         LINE#         457
 C3:C1FDH         LINE#         458
 C3:C20CH         LINE#         459
 C3:C216H         LINE#         460
 C3:C22BH         LINE#         461
 C3:C23CH         LINE#         462
 C3:C23CH         LINE#         463
 C3:C23CH         LINE#         465
 C3:C23CH         LINE#         468
  -------         ENDPROC       _EHT_SETFRAMETYPELEN

  -------         PROC BANK=3   _EHT_FILLETHERHEADER
  D:0001H         SYMBOL        rxBcnByteArr
  -------         DO            
  X:3AB7H         SYMBOL        pEth2Hdr
  -------         ENDDO         
 C3:C3C5H         LINE#         470
 C3:C3C5H         LINE#         471
BL51 BANKED LINKER/LOCATER V6.22                                                      01/10/2015  21:25:33  PAGE 174


 C3:C3C5H         LINE#         474
 C3:C3CBH         LINE#         475
 C3:C3D6H         LINE#         476
 C3:C3DFH         LINE#         477
  -------         ENDPROC       _EHT_FILLETHERHEADER

  -------         PROC BANK=3   _ETH_FILLHYBRIIHEADER
  X:3AB7H         SYMBOL        rxArr
  X:3ABAH         SYMBOL        pPlcRxFrmSwDesc
  X:3ABDH         SYMBOL        frameSize
  X:3ABFH         SYMBOL        offset
  -------         DO            
  D:0007H         SYMBOL        addLen
  X:3AC0H         SYMBOL        hostHdr
  -------         ENDDO         
 C3:C04AH         LINE#         480
 C3:C050H         LINE#         484
 C3:C050H         LINE#         485
 C3:C051H         LINE#         488
 C3:C058H         LINE#         489
 C3:C05AH         LINE#         490
 C3:C066H         LINE#         491
 C3:C071H         LINE#         492
 C3:C071H         LINE#         493
 C3:C088H         LINE#         494
 C3:C09BH         LINE#         495
 C3:C09BH         LINE#         496
 C3:C09BH         LINE#         498
 C3:C0A8H         LINE#         499
 C3:C0AAH         LINE#         500
 C3:C0AAH         LINE#         502
 C3:C0AAH         LINE#         503
 C3:C0AAH         LINE#         506
 C3:C0ACH         LINE#         508
 C3:C0ACH         LINE#         509
 C3:C0B3H         LINE#         510
 C3:C0B3H         LINE#         512
 C3:C0B5H         LINE#         513
 C3:C0B5H         LINE#         514
 C3:C0BAH         LINE#         515
 C3:C0BAH         LINE#         517
 C3:C0BAH         LINE#         518
 C3:C0BCH         LINE#         520
 C3:C0BCH         LINE#         521
 C3:C0C6H         LINE#         522
 C3:C0D0H         LINE#         524
 C3:C0D0H         LINE#         525
 C3:C0D0H         LINE#         526
  -------         ENDPROC       _ETH_FILLHYBRIIHEADER

  -------         PROC BANK=3   _EHT_FROMPLCBCNTX
  X:39FBH         SYMBOL        rxBcnByteArr
  X:39FEH         SYMBOL        frameSize
  -------         DO            
  X:3A00H         SYMBOL        dataIdx
  X:3A02H         SYMBOL        curFrmLen
  X:3A04H         SYMBOL        cpIdx
BL51 BANKED LINKER/LOCATER V6.22                                                      01/10/2015  21:25:33  PAGE 175


  D:0007H         SYMBOL        len
  X:3A05H         SYMBOL        status
  X:3A06H         SYMBOL        ethTxFrmSwDesc
  -------         DO            
  X:3A43H         SYMBOL        cp
  X:3A44H         SYMBOL        cellAddr
  X:3A46H         SYMBOL        actualDescLen
  -------         ENDDO         
  -------         ENDDO         
 C3:B74CH         LINE#         529
 C3:B75AH         LINE#         530
 C3:B75AH         LINE#         538
 C3:B760H         LINE#         539
 C3:B760H         LINE#         541
 C3:B760H         LINE#         543
 C3:B766H         LINE#         544
 C3:B766H         LINE#         546
 C3:B795H         LINE#         549
 C3:B79CH         LINE#         550
 C3:B7A0H         LINE#         552
 C3:B7B5H         LINE#         554
 C3:B7BDH         LINE#         555
 C3:B7C0H         LINE#         557
 C3:B7CDH         LINE#         558
 C3:B7CDH         LINE#         563
 C3:B7DBH         LINE#         564
 C3:B7E0H         LINE#         565
 C3:B7E0H         LINE#         567
 C3:B7E0H         LINE#         568
 C3:B7F0H         LINE#         569
 C3:B7FBH         LINE#         570
 C3:B7FBH         LINE#         571
 C3:B7FEH         LINE#         572
 C3:B800H         LINE#         574
 C3:B800H         LINE#         575
 C3:B802H         LINE#         576
 C3:B802H         LINE#         577
 C3:B825H         LINE#         578
 C3:B836H         LINE#         579
 C3:B84AH         LINE#         580
 C3:B85AH         LINE#         581
 C3:B868H         LINE#         582
 C3:B86EH         LINE#         583
 C3:B874H         LINE#         584
 C3:B881H         LINE#         585
 C3:B884H         LINE#         586
 C3:B892H         LINE#         587
 C3:B895H         LINE#         588
 C3:B895H         LINE#         589
 C3:B8A8H         LINE#         590
 C3:B8A8H         LINE#         591
 C3:B8B1H         LINE#         592
 C3:B8B9H         LINE#         594
 C3:B8B9H         LINE#         596
 C3:B8B9H         LINE#         597
 C3:B8C5H         LINE#         598
 C3:B8D7H         LINE#         599
BL51 BANKED LINKER/LOCATER V6.22                                                      01/10/2015  21:25:33  PAGE 176


 C3:B8D7H         LINE#         600
  -------         ENDPROC       _EHT_FROMPLCBCNTX

  -------         PROC BANK=3   _EHT_GETSNIFFHDRSIZE
  D:0007H         SYMBOL        frmType
  -------         DO            
  D:0006H         SYMBOL        addLen
  -------         ENDDO         
 C3:C449H         LINE#         602
 C3:C449H         LINE#         603
 C3:C449H         LINE#         604
 C3:C44BH         LINE#         606
 C3:C457H         LINE#         607
 C3:C457H         LINE#         608
 C3:C457H         LINE#         609
 C3:C45BH         LINE#         610
 C3:C45DH         LINE#         611
 C3:C45DH         LINE#         612
 C3:C461H         LINE#         613
 C3:C463H         LINE#         614
 C3:C463H         LINE#         615
 C3:C467H         LINE#         616
 C3:C467H         LINE#         617
 C3:C467H         LINE#         618
 C3:C467H         LINE#         620
 C3:C46AH         LINE#         624
 C3:C46BH         LINE#         625
  -------         ENDPROC       _EHT_GETSNIFFHDRSIZE
 C3:AB37H         SYMBOL        L?0204
 C3:AB48H         SYMBOL        L?0220

  -------         PROC BANK=3   _DATAPATH_QUEUETOHOST
  X:3A63H         SYMBOL        pPlcRxFrmSwDesc
  X:3A66H         SYMBOL        frameSize
  -------         DO            
  X:3A68H         SYMBOL        i
  X:3A69H         SYMBOL        j
  X:3A6AH         SYMBOL        rsvd
  X:3A6BH         SYMBOL        status
  X:3A6CH         SYMBOL        eth_hdr_cp
  X:3A6DH         SYMBOL        cellAddr
  X:3A6FH         SYMBOL        hostTxFrmSwDesc
  X:3AACH         SYMBOL        actualDescLen
  X:3AADH         SYMBOL        headerStart
  X:3AAEH         SYMBOL        addFrameSize
  X:3AAFH         SYMBOL        curFrmLen
  X:3AB1H         SYMBOL        offsetAdj
  X:3AB2H         SYMBOL        ptr
  X:3AB3H         SYMBOL        HybriLen
  X:3AB4H         SYMBOL        crc16
  X:3AB6H         SYMBOL        alin128
  -------         ENDDO         
 C3:A7ADH         LINE#         675
 C3:A7BBH         LINE#         677
 C3:A7BBH         LINE#         678
 C3:A7C0H         LINE#         680
 C3:A7C4H         LINE#         692
BL51 BANKED LINKER/LOCATER V6.22                                                      01/10/2015  21:25:33  PAGE 177


 C3:A7C8H         LINE#         698
 C3:A7CEH         LINE#         699
 C3:A7D0H         LINE#         704
 C3:A7D5H         LINE#         716
 C3:A7DCH         LINE#         718
 C3:A7ECH         LINE#         719
 C3:A7ECH         LINE#         720
 C3:A7EFH         LINE#         721
 C3:A7EFH         LINE#         722
 C3:A7FBH         LINE#         723
 C3:A7FBH         LINE#         725
 C3:A803H         LINE#         728
 C3:A80EH         LINE#         730
 C3:A80EH         LINE#         732
 C3:A819H         LINE#         733
 C3:A819H         LINE#         734
 C3:A81CH         LINE#         735
 C3:A81EH         LINE#         736
 C3:A81EH         LINE#         741
 C3:A821H         LINE#         742
 C3:A821H         LINE#         754
 C3:A824H         LINE#         756
 C3:A835H         LINE#         758
 C3:A83DH         LINE#         760
 C3:A846H         LINE#         762
 C3:A84CH         LINE#         764
 C3:A854H         LINE#         766
 C3:A858H         LINE#         769
 C3:A85EH         LINE#         772
 C3:A865H         LINE#         773
 C3:A876H         LINE#         778
 C3:A8A5H         LINE#         784
 C3:A8B0H         LINE#         794
 C3:A8B4H         LINE#         796
 C3:A8DEH         LINE#         800
 C3:A8EEH         LINE#         801
 C3:A8EEH         LINE#         803
 C3:A8F1H         LINE#         805
 C3:A8F3H         LINE#         807
 C3:A8F3H         LINE#         808
 C3:A8F6H         LINE#         810
 C3:A8F6H         LINE#         837
 C3:A901H         LINE#         838
 C3:A904H         LINE#         839
 C3:A909H         LINE#         840
 C3:A914H         LINE#         841
 C3:A914H         LINE#         845
 C3:A917H         LINE#         847
 C3:A917H         LINE#         849
 C3:A91CH         LINE#         850
 C3:A91CH         LINE#         854
 C3:A91FH         LINE#         856
 C3:A921H         LINE#         857
 C3:A921H         LINE#         858
 C3:A92EH         LINE#         859
 C3:A93CH         LINE#         860
 C3:A942H         LINE#         861
BL51 BANKED LINKER/LOCATER V6.22                                                      01/10/2015  21:25:33  PAGE 178


 C3:A942H         LINE#         863
 C3:A948H         LINE#         865
 C3:A94BH         LINE#         868
 C3:A951H         LINE#         870
 C3:A955H         LINE#         872
 C3:A95DH         LINE#         881
 C3:A960H         LINE#         887
 C3:A963H         LINE#         888
 C3:A967H         LINE#         889
 C3:A96DH         LINE#         893
 C3:A96FH         LINE#         894
 C3:A96FH         LINE#         895
 C3:A974H         LINE#         896
 C3:A983H         LINE#         898
 C3:A983H         LINE#         900
 C3:A983H         LINE#         902
 C3:A993H         LINE#         903
 C3:A999H         LINE#         904
 C3:A9B1H         LINE#         905
 C3:A9B1H         LINE#         908
 C3:A9B8H         LINE#         909
 C3:A9B8H         LINE#         910
 C3:A9CDH         LINE#         912
 C3:A9CDH         LINE#         923
 C3:A9D4H         LINE#         924
 C3:A9D4H         LINE#         925
 C3:AA07H         LINE#         927
 C3:AA09H         LINE#         929
 C3:AA14H         LINE#         930
 C3:AA14H         LINE#         931
 C3:AA17H         LINE#         932
 C3:AA19H         LINE#         934
 C3:AA19H         LINE#         935
 C3:AA1BH         LINE#         936
 C3:AA1BH         LINE#         946
 C3:AA1BH         LINE#         947
 C3:AA1BH         LINE#         980
 C3:AA1BH         LINE#         994
 C3:AA23H         LINE#         995
 C3:AA23H         LINE#         1001
 C3:AA4BH         LINE#         1002
 C3:AA60H         LINE#         1003
 C3:AA73H         LINE#         1005
 C3:AA76H         LINE#         1007
 C3:AA76H         LINE#         1008
 C3:AA7EH         LINE#         1009
 C3:AA7EH         LINE#         1011
 C3:AA88H         LINE#         1012
 C3:AA92H         LINE#         1013
 C3:AA9FH         LINE#         1015
 C3:AAA1H         LINE#         1017
 C3:AAA1H         LINE#         1019
 C3:AAABH         LINE#         1020
 C3:AAB5H         LINE#         1021
 C3:AAC6H         LINE#         1023
 C3:AAC6H         LINE#         1025
 C3:AAC6H         LINE#         1027
BL51 BANKED LINKER/LOCATER V6.22                                                      01/10/2015  21:25:33  PAGE 179


 C3:AACCH         LINE#         1028
 C3:AADFH         LINE#         1030
 C3:AAE8H         LINE#         1100
 C3:AAEFH         LINE#         1101
 C3:AAEFH         LINE#         1104
 C3:AAFAH         LINE#         1106
 C3:AAFAH         LINE#         1109
 C3:AB02H         LINE#         1110
 C3:AB02H         LINE#         1113
 C3:AB0EH         LINE#         1114
 C3:AB15H         LINE#         1115
 C3:AB15H         LINE#         1118
 C3:AB1DH         LINE#         1120
 C3:AB1DH         LINE#         1121
 C3:AB20H         LINE#         1123
 C3:AB20H         LINE#         1130
 C3:AB25H         LINE#         1131
 C3:AB30H         LINE#         1134
 C3:AB35H         LINE#         1165
 C3:AB36H         LINE#         1167
  -------         ENDPROC       _DATAPATH_QUEUETOHOST

  -------         PROC BANK=3   DATAPATH_TRANSMITDATAHOST
  -------         DO            
  X:3B46H         SYMBOL        slink
  X:3B49H         SYMBOL        tHostTxFrmSwDesc
  X:3B4CH         SYMBOL        hostTxFrmSwDesc
  X:3B89H         SYMBOL        status
  -------         ENDDO         
 C3:C320H         LINE#         1171
 C3:C320H         LINE#         1172
 C3:C320H         LINE#         1173
 C3:C326H         LINE#         1174
 C3:C32CH         LINE#         1177
 C3:C332H         LINE#         1181
 C3:C343H         LINE#         1182
 C3:C343H         LINE#         1184
 C3:C34FH         LINE#         1188
 C3:C358H         LINE#         1190
 C3:C358H         LINE#         1193
  -------         ENDPROC       DATAPATH_TRANSMITDATAHOST

  -------         PROC BANK=3   _HOSTRXPOSTPROCESS
  X:3B55H         SYMBOL        plcTxFrmSwDesc
  -------         DO            
  D:0007H         SYMBOL        dropFrame
  X:3B58H         SYMBOL        pktEthHdr
  X:3B5BH         SYMBOL        dstTei
  X:3B5CH         SYMBOL        hhalCb
  -------         ENDDO         
 C3:BB5AH         LINE#         1204
 C3:BB60H         LINE#         1205
 C3:BB60H         LINE#         1207
 C3:BB62H         LINE#         1209
 C3:BB66H         LINE#         1312
 C3:BB68H         LINE#         1315
 C3:BB6AH         LINE#         1316
BL51 BANKED LINKER/LOCATER V6.22                                                      01/10/2015  21:25:33  PAGE 180


 C3:BB6AH         LINE#         1318
 C3:BB70H         LINE#         1319
 C3:BB8DH         LINE#         1320
 C3:BB90H         LINE#         1321
 C3:BB90H         LINE#         1324
 C3:BB9AH         LINE#         1325
 C3:BB9AH         LINE#         1326
 C3:BBA3H         LINE#         1328
 C3:BBAEH         LINE#         1329
 C3:BBB0H         LINE#         1331
 C3:BBB0H         LINE#         1332
 C3:BBBEH         LINE#         1333
 C3:BBBEH         LINE#         1337
 C3:BBC4H         LINE#         1345
 C3:BBD6H         LINE#         1346
 C3:BBEDH         LINE#         1347
 C3:BC04H         LINE#         1352
 C3:BC0FH         LINE#         1353
 C3:BC14H         LINE#         1354
 C3:BC1AH         LINE#         1377
 C3:BC25H         LINE#         1380
 C3:BC37H         LINE#         1381
 C3:BC37H         LINE#         1382
 C3:BC39H         LINE#         1383
 C3:BC3BH         LINE#         1385
 C3:BC3BH         LINE#         1386
 C3:BC40H         LINE#         1387
 C3:BC40H         LINE#         1397
 C3:BC48H         LINE#         1399
 C3:BC50H         LINE#         1400
 C3:BC5BH         LINE#         1403
 C3:BC5DH         LINE#         1404
  -------         ENDPROC       _HOSTRXPOSTPROCESS
 C3:BA26H         SYMBOL        L?0226

  -------         PROC BANK=3   DATAPATH_TRANSMITDATAPLC
  -------         DO            
  X:3B46H         SYMBOL        status
  X:3B47H         SYMBOL        hhalCb
  X:3B4AH         SYMBOL        RegValue
  X:3B4BH         SYMBOL        TxLoop
  X:3B4CH         SYMBOL        cap_write
 C3:B8E7H         SYMBOL        SWQCheckAgain
  -------         DO            
  X:3B50H         SYMBOL        plcStatus
  X:3B50H         SYMBOL        lpPlcTxFrmSwDesc
  -------         ENDDO         
  -------         DO            
  X:3B50H         SYMBOL        lpPlcTxFrmSwDesc
  -------         ENDDO         
  -------         DO            
  X:3B50H         SYMBOL        lpPlcTxFrmSwDesc
  -------         DO            
  X:3B53H         SYMBOL        i
  -------         ENDDO         
  -------         ENDDO         
  -------         ENDDO         
BL51 BANKED LINKER/LOCATER V6.22                                                      01/10/2015  21:25:33  PAGE 181


 C3:B8D8H         LINE#         1410
 C3:B8D8H         LINE#         1412
 C3:B8D8H         LINE#         1438
 C3:B8DEH         LINE#         1444
 C3:B8E3H         LINE#         1445
 C3:B8E7H         LINE#         1446
 C3:B8E7H         LINE#         1452
 C3:B8EFH         LINE#         1453
 C3:B8F5H         LINE#         1454
 C3:B8F5H         LINE#         1458
 C3:B8FEH         LINE#         1459
 C3:B90AH         LINE#         1461
 C3:B916H         LINE#         1462
 C3:B91DH         LINE#         1463
 C3:B929H         LINE#         1464
 C3:B929H         LINE#         1467
 C3:B931H         LINE#         1469
 C3:B931H         LINE#         1472
 C3:B934H         LINE#         1475
 C3:B93AH         LINE#         1476
 C3:B93BH         LINE#         1511
 C3:B93BH         LINE#         1513
 C3:B93EH         LINE#         1514
 C3:B93EH         LINE#         1516
 C3:B946H         LINE#         1519
 C3:B94DH         LINE#         1520
 C3:B950H         LINE#         1521
 C3:B950H         LINE#         1523
 C3:B950H         LINE#         1525
 C3:B95BH         LINE#         1528
 C3:B95BH         LINE#         1532
 C3:B963H         LINE#         1534
 C3:B96BH         LINE#         1538
 C3:B970H         LINE#         1539
 C3:B970H         LINE#         1540
 C3:B973H         LINE#         1716
 C3:B97BH         LINE#         1717
 C3:B982H         LINE#         1718
 C3:B982H         LINE#         1721
 C3:B982H         LINE#         1728
 C3:B990H         LINE#         1732
 C3:B9A3H         LINE#         1736
 C3:B9A9H         LINE#         1737
 C3:B9B1H         LINE#         1738
 C3:B9B1H         LINE#         1748
 C3:B9B8H         LINE#         1749
 C3:B9C4H         LINE#         1751
 C3:B9E1H         LINE#         1752
 C3:B9E1H         LINE#         1753
 C3:B9FEH         LINE#         1754
 C3:BA0AH         LINE#         1756
 C3:BA0AH         LINE#         1758
 C3:BA0AH         LINE#         1760
 C3:BA15H         LINE#         1767
 C3:BA20H         LINE#         1773
 C3:BA20H         LINE#         1774
 C3:BA20H         LINE#         1776
BL51 BANKED LINKER/LOCATER V6.22                                                      01/10/2015  21:25:33  PAGE 182


 C3:BA20H         LINE#         1790
 C3:BA25H         LINE#         1792
 C3:BA25H         LINE#         1795
 C3:BA25H         LINE#         1797
  -------         ENDPROC       DATAPATH_TRANSMITDATAPLC

  -------         PROC BANK=3   _HOST_RXHANDLER
  X:39B6H         SYMBOL        pRxFrmDesc
  -------         DO            
  X:39B9H         SYMBOL        pRxPktQ1stDesc
  X:39BCH         SYMBOL        pRxPktQCPDesc
  X:39BFH         SYMBOL        cellAddr
  X:39C2H         SYMBOL        frmLen
  X:39C4H         SYMBOL        i
  X:39C5H         SYMBOL        tmpFrmLen
  X:39C7H         SYMBOL        tmpdescLen
  X:39C8H         SYMBOL        status
  X:39C9H         SYMBOL        retriesCnt
  X:39CBH         SYMBOL        lclPrintCount
  X:39CDH         SYMBOL        lclCount
  X:39CFH         SYMBOL        GreenvityPkt
  X:39D0H         SYMBOL        leave
  X:39D1H         SYMBOL        myStationId
  X:39D2H         SYMBOL        rcv_pktType
  X:39D3H         SYMBOL        hhalCb
  X:39D6H         SYMBOL        dropFrame
  X:39D7H         SYMBOL        isEthData
  X:39D8H         SYMBOL        dstTei
  X:39D9H         SYMBOL        brdcast
  X:39DFH         SYMBOL        plcTxFrmSwDesc
  X:3A1CH         SYMBOL        ethTxFrmSwDesc
  X:3A59H         SYMBOL        alingOffset
  X:3A5AH         SYMBOL        payloadOffset
  X:3A5BH         SYMBOL        FIFOCtrl
  X:3A5CH         SYMBOL        cp
  -------         ENDDO         
 C3:AB57H         LINE#         2057
 C3:AB5DH         LINE#         2065
 C3:AB5DH         LINE#         2074
 C3:AB61H         LINE#         2075
 C3:AB61H         LINE#         2076
 C3:AB61H         LINE#         2077
 C3:AB61H         LINE#         2078
 C3:AB64H         LINE#         2079
 C3:AB64H         LINE#         2080
 C3:AB64H         LINE#         2081
 C3:AB64H         LINE#         2082
 C3:AB6AH         LINE#         2083
 C3:AB6DH         LINE#         2096
 C3:AB71H         LINE#         2098
 C3:AB73H         LINE#         2101
 C3:AB75H         LINE#         2103
 C3:AB87H         LINE#         2107
 C3:AB8BH         LINE#         2108
 C3:AB8BH         LINE#         2109
 C3:AB8BH         LINE#         2111
 C3:AB8FH         LINE#         2112
BL51 BANKED LINKER/LOCATER V6.22                                                      01/10/2015  21:25:33  PAGE 183


 C3:AB95H         LINE#         2113
 C3:AB95H         LINE#         2114
 C3:AB9AH         LINE#         2115
 C3:AB9AH         LINE#         2117
 C3:ABA0H         LINE#         2119
 C3:ABA7H         LINE#         2121
 C3:ABACH         LINE#         2122
 C3:ABAFH         LINE#         2124
 C3:ABB2H         LINE#         2131
 C3:ABB8H         LINE#         2132
 C3:ABC8H         LINE#         2133
 C3:ABD8H         LINE#         2134
 C3:ABE6H         LINE#         2135
 C3:ABF4H         LINE#         2136
 C3:AC09H         LINE#         2138
 C3:AC15H         LINE#         2139
 C3:AC27H         LINE#         2141
 C3:AC2EH         LINE#         2142
 C3:AC2EH         LINE#         2143
 C3:AC47H         LINE#         2144
 C3:AC47H         LINE#         2146
 C3:AC47H         LINE#         2147
 C3:AC4AH         LINE#         2149
 C3:AC4AH         LINE#         2159
 C3:AC4AH         LINE#         2161
 C3:AC51H         LINE#         2162
 C3:AC5AH         LINE#         2164
 C3:AC65H         LINE#         2181
 C3:AC65H         LINE#         2182
 C3:AC69H         LINE#         2183
 C3:AC69H         LINE#         2184
 C3:AC81H         LINE#         2185
 C3:AC81H         LINE#         2186
 C3:AC90H         LINE#         2187
 C3:AC90H         LINE#         2188
 C3:AC92H         LINE#         2189
 C3:AC94H         LINE#         2191
 C3:AC94H         LINE#         2192
 C3:AC97H         LINE#         2193
 C3:AC97H         LINE#         2211
 C3:ACA4H         LINE#         2259
 C3:ACA4H         LINE#         2262
 C3:ACACH         LINE#         2264
 C3:ACACH         LINE#         2272
 C3:ACB2H         LINE#         2273
 C3:ACB2H         LINE#         2275
 C3:ACD0H         LINE#         2276
 C3:ACD0H         LINE#         2286
 C3:ACD6H         LINE#         2288
 C3:ACD6H         LINE#         2298
 C3:ACDCH         LINE#         2299
 C3:ACDCH         LINE#         2300
 C3:ACDCH         LINE#         2304
 C3:ACDFH         LINE#         2306
 C3:ACDFH         LINE#         2384
 C3:ACE5H         LINE#         2385
 C3:ACE7H         LINE#         2389
BL51 BANKED LINKER/LOCATER V6.22                                                      01/10/2015  21:25:33  PAGE 184


 C3:ACE7H         LINE#         2405
 C3:ACECH         LINE#         2409
 C3:ACF0H         LINE#         2413
 C3:ACF0H         LINE#         2417
 C3:ACF3H         LINE#         2418
 C3:ACF6H         LINE#         2420
 C3:ACF6H         LINE#         2422
 C3:AD08H         LINE#         2427
 C3:AD08H         LINE#         2429
 C3:AD0CH         LINE#         2430
 C3:AD14H         LINE#         2432
 C3:AD21H         LINE#         2433
 C3:AD27H         LINE#         2436
 C3:AD31H         LINE#         2438
 C3:AD37H         LINE#         2451
 C3:AD3EH         LINE#         2452
 C3:AD41H         LINE#         2454
 C3:AD4AH         LINE#         2481
 C3:AD54H         LINE#         2482
 C3:AD5EH         LINE#         2485
 C3:AD68H         LINE#         2486
 C3:AD68H         LINE#         2487
 C3:AD6EH         LINE#         2488
 C3:AD74H         LINE#         2489
 C3:AD76H         LINE#         2491
 C3:AD76H         LINE#         2492
 C3:AD7AH         LINE#         2493
 C3:AD7AH         LINE#         2495
 C3:AD89H         LINE#         2513
 C3:AD89H         LINE#         2516
 C3:ADA4H         LINE#         2517
 C3:ADA4H         LINE#         2533
 C3:ADC1H         LINE#         2534
 C3:ADC9H         LINE#         2536
 C3:ADD0H         LINE#         2538
 C3:ADD6H         LINE#         2539
 C3:ADD6H         LINE#         2542
 C3:ADF3H         LINE#         2544
 C3:ADF3H         LINE#         2548
 C3:AE01H         LINE#         2549
 C3:AE0EH         LINE#         2550
 C3:AE1CH         LINE#         2551
 C3:AE1FH         LINE#         2552
 C3:AE1FH         LINE#         2553
 C3:AE1FH         LINE#         2555
 C3:AE29H         LINE#         2560
 C3:AE29H         LINE#         2563
 C3:AE37H         LINE#         2564
 C3:AE44H         LINE#         2565
 C3:AE52H         LINE#         2566
 C3:AE58H         LINE#         2567
 C3:AE63H         LINE#         2568
 C3:AE63H         LINE#         2570
 C3:AE6CH         LINE#         2573
 C3:AE78H         LINE#         2578
 C3:AE78H         LINE#         2580
 C3:AE7FH         LINE#         2621
BL51 BANKED LINKER/LOCATER V6.22                                                      01/10/2015  21:25:33  PAGE 185


 C3:AE7FH         LINE#         2626
 C3:AE88H         LINE#         2627
 C3:AE88H         LINE#         2631
 C3:AE88H         LINE#         2635
 C3:AE88H         LINE#         2637
 C3:AE8EH         LINE#         2638
 C3:AE9AH         LINE#         2639
 C3:AE9AH         LINE#         2643
  -------         ENDPROC       _HOST_RXHANDLER
  -------         ENDMOD        DATAPATH

  -------         MODULE        FRAMETASK
  C:0000H         SYMBOL        _ICE_DUMMY_
 C3:BFBFH         PUBLIC        _fwdAgent_handleData
 C3:C4EDH         PUBLIC        _fwdAgent_queueToPlc
 C3:C23DH         PUBLIC        _fwdAgent_queueToHost
 C3:C4C5H         PUBLIC        frame_task_init
  X:4598H         SYMBOL        frmTaskLayer
 C3:C4E5H         PUBLIC        Frame_Task
 C3:C359H         PUBLIC        Frame_Proc
 C3:C48AH         PUBLIC        fwdAgent_IsHostIdle
 C3:C4B3H         SYMBOL        Com0030
 C3:C4B3H         SYMBOL        L?0049
 C3:C4B3H         SYMBOL        L?0050
 C3:C4B9H         SYMBOL        L?0051
 C3:C4B9H         SYMBOL        L?0052
 C3:C4BFH         SYMBOL        L?0053
 C3:C4BFH         SYMBOL        L?0054
  -------         PROC          COM0030
  -------         ENDPROC       COM0030

  -------         PROC BANK=3   FRAME_TASK_INIT
 C3:C4C5H         LINE#         70
 C3:C4C5H         LINE#         71
 C3:C4C5H         LINE#         77
 C3:C4CEH         LINE#         96
 C3:C4D3H         LINE#         103
  -------         ENDPROC       FRAME_TASK_INIT

  -------         PROC BANK=3   FWDAGENT_ISHOSTIDLE
 C3:C48AH         LINE#         112
 C3:C48AH         LINE#         113
 C3:C48AH         LINE#         117
 C3:C491H         LINE#         118
 C3:C491H         LINE#         120
 C3:C494H         LINE#         122
 C3:C494H         LINE#         127
 C3:C49BH         LINE#         128
 C3:C49BH         LINE#         129
 C3:C49EH         LINE#         130
 C3:C49EH         LINE#         140
 C3:C4A0H         LINE#         143
  -------         ENDPROC       FWDAGENT_ISHOSTIDLE

  -------         PROC BANK=3   FRAME_PROC
  -------         DO            
  X:3B45H         SYMBOL        ret
BL51 BANKED LINKER/LOCATER V6.22                                                      01/10/2015  21:25:33  PAGE 186


  -------         ENDDO         
 C3:C359H         LINE#         145
 C3:C359H         LINE#         146
 C3:C359H         LINE#         150
 C3:C35EH         LINE#         221
 C3:C361H         LINE#         278
 C3:C369H         LINE#         279
 C3:C369H         LINE#         280
 C3:C36FH         LINE#         281
 C3:C36FH         LINE#         283
 C3:C36FH         LINE#         284
 C3:C377H         LINE#         286
 C3:C377H         LINE#         288
 C3:C379H         LINE#         289
 C3:C379H         LINE#         292
 C3:C37CH         LINE#         293
 C3:C37CH         LINE#         294
 C3:C37EH         LINE#         296
 C3:C37EH         LINE#         298
 C3:C386H         LINE#         300
 C3:C386H         LINE#         302
 C3:C38BH         LINE#         305
 C3:C38BH         LINE#         308
 C3:C38BH         LINE#         310
 C3:C38BH         LINE#         315
 C3:C390H         LINE#         316
  -------         ENDPROC       FRAME_PROC

  -------         PROC BANK=3   FRAME_TASK
 C3:C4E5H         LINE#         320
 C3:C4E5H         LINE#         322
 C3:C4E5H         LINE#         324
 C3:C4E8H         LINE#         325
 C3:C4EBH         LINE#         326
  -------         ENDPROC       FRAME_TASK

  -------         PROC BANK=3   _FWDAGENT_QUEUETOHOST
  X:3A60H         SYMBOL        rxFrmSwDesc
 C3:C23DH         LINE#         374
 C3:C243H         LINE#         375
 C3:C243H         LINE#         404
 C3:C25EH         LINE#         406
 C3:C25EH         LINE#         407
 C3:C277H         LINE#         408
 C3:C29AH         LINE#         410
 C3:C29AH         LINE#         413
  -------         ENDPROC       _FWDAGENT_QUEUETOHOST

  -------         PROC BANK=3   _FWDAGENT_QUEUETOPLC
  D:0001H         SYMBOL        plcTxFrmSwDesc
 C3:C4EDH         LINE#         415
 C3:C4EDH         LINE#         416
 C3:C4EDH         LINE#         425
  -------         ENDPROC       _FWDAGENT_QUEUETOPLC

  -------         PROC BANK=3   _FWDAGENT_HANDLEDATA
  X:3A5DH         SYMBOL        plcTxFrmSwDesc
BL51 BANKED LINKER/LOCATER V6.22                                                      01/10/2015  21:25:33  PAGE 187


 C3:BFBFH         LINE#         430
 C3:BFC5H         LINE#         431
 C3:BFC5H         LINE#         432
 C3:BFE5H         LINE#         433
 C3:BFE5H         LINE#         435
 C3:BFE5H         LINE#         437
 C3:BFE5H         LINE#         438
 C3:BFE5H         LINE#         439
 C3:BFEBH         LINE#         440
 C3:BFEBH         LINE#         441
 C3:BFEBH         LINE#         442
 C3:BFEBH         LINE#         443
 C3:BFEDH         LINE#         449
 C3:BFEDH         LINE#         452
 C3:BFEDH         LINE#         453
 C3:BFEDH         LINE#         455
 C3:BFEDH         LINE#         456
 C3:BFFEH         LINE#         457
 C3:BFFEH         LINE#         459
 C3:BFFEH         LINE#         461
 C3:BFFEH         LINE#         462
 C3:BFFEH         LINE#         463
 C3:BFFEH         LINE#         464
 C3:C000H         LINE#         475
 C3:C000H         LINE#         476
 C3:C000H         LINE#         477
 C3:C002H         LINE#         478
 C3:C002H         LINE#         479
 C3:C002H         LINE#         480
 C3:C002H         LINE#         481
 C3:C009H         LINE#         482
 C3:C009H         LINE#         488
 C3:C009H         LINE#         489
 C3:C009H         LINE#         490
 C3:C00BH         LINE#         491
 C3:C00BH         LINE#         492
 C3:C00BH         LINE#         513
 C3:C00BH         LINE#         514
 C3:C018H         LINE#         515
 C3:C018H         LINE#         516
 C3:C018H         LINE#         517
 C3:C01BH         LINE#         518
 C3:C01BH         LINE#         519
 C3:C01BH         LINE#         520
 C3:C021H         LINE#         521
 C3:C021H         LINE#         522
 C3:C021H         LINE#         523
 C3:C024H         LINE#         524
 C3:C026H         LINE#         525
 C3:C026H         LINE#         526
 C3:C026H         LINE#         529
 C3:C026H         LINE#         530
 C3:C049H         LINE#         531
 C3:C049H         LINE#         532
 C3:C049H         LINE#         533
  -------         ENDPROC       _FWDAGENT_HANDLEDATA
  -------         ENDMOD        FRAMETASK
BL51 BANKED LINKER/LOCATER V6.22                                                      01/10/2015  21:25:33  PAGE 188



  -------         MODULE        PROD_TEST_CORRECT_ENDIENESS
  C:0000H         SYMBOL        _ICE_DUMMY_
 C3:BC5EH         PUBLIC        _correctEndieness_sPlcSimTxTestParams
 C3:C391H         SYMBOL        Com0002
 C3:C391H         SYMBOL        L?0003
 C3:C391H         SYMBOL        L?0004
 C3:C399H         SYMBOL        L?0005
 C3:C39CH         SYMBOL        L?0006
 C3:C3A2H         SYMBOL        L?0007
 C3:C3A2H         SYMBOL        L?0008
 C3:C3AAH         SYMBOL        L?0009
 C3:C3B3H         SYMBOL        L?0010
 C3:C3BCH         SYMBOL        L?0011
  -------         PROC          COM0002
  -------         ENDPROC       COM0002
  -------         PROC          _CORRECTENDIENESS_SPLCSIMTXTESTPARAMS
  X:39E7H         SYMBOL        pTestParams
  -------         DO            
  X:39EAH         SYMBOL        len
  X:39ECH         SYMBOL        numfrms
  X:39F0H         SYMBOL        delay
  -------         ENDDO         
 C3:BC5EH         LINE#         17
 C3:BC64H         LINE#         22
 C3:BC77H         LINE#         23
 C3:BC83H         LINE#         24
 C3:BC8FH         LINE#         26
 C3:BCA7H         LINE#         27
 C3:BD03H         LINE#         28
  -------         ENDPROC       _CORRECTENDIENESS_SPLCSIMTXTESTPARAMS
  -------         ENDMOD        PROD_TEST_CORRECT_ENDIENESS

  -------         MODULE        HHAL_TST
  C:0000H         SYMBOL        _ICE_DUMMY_
 C4:DD88H         PUBLIC        _sendSingleFrame
 C4:D78BH         PUBLIC        HHT_SetRoboMode
 C4:BD98H         PUBLIC        HHT_BasicTxMenu
 C4:A000H         PUBLIC        HHT_SimulateTxTestMenu
 C4:A8DAH         PUBLIC        HHAL_DisplayPlcStat
 C4:CA8FH         PUBLIC        HHT_SetKey
 C4:E562H         PUBLIC        HHAL_CmdHelp
 C4:DEE1H         PUBLIC        _setLatency
  X:424FH         PUBLIC        gDefKey
 C4:E105H         PUBLIC        HHT_SetDefEks
  X:42EFH         PUBLIC        bcnupdate
  X:42F0H         PUBLIC        led_demo
 C4:D482H         PUBLIC        _update_powermode
 C4:C075H         PUBLIC        _updateStatisticData
 C4:B0B7H         PUBLIC        HHT_TestMemoryTables
 C4:DABEH         PUBLIC        _HHT_ProcessPlcMacFrame
 C4:A4D7H         PUBLIC        _HHAL_CmdHALProcess
 C4:D3A5H         PUBLIC        HHT_AddrCfg
  X:42F1H         PUBLIC        gbcnsent
 C4:DD08H         PUBLIC        _HHT_ProcessBcnHle
  X:42F5H         PUBLIC        oldgbpst
 C4:E4C4H         PUBLIC        setfreq60
BL51 BANKED LINKER/LOCATER V6.22                                                      01/10/2015  21:25:33  PAGE 189


 C4:E060H         PUBLIC        _HHT_GetRoboModFrmLen
 C4:BAB6H         PUBLIC        _HHT_SendBcn
 C4:E007H         PUBLIC        _hhal_tst_sniff_cfg
 C4:E19FH         PUBLIC        HHT_SetDiagMode
 C4:DB57H         PUBLIC        HHT_DevCfg
  X:42F9H         PUBLIC        var1
 C4:ACD3H         SYMBOL        Com0220
 C4:ACD3H         SYMBOL        L?0545
 C4:ACE0H         SYMBOL        L?0546
 C4:ACEDH         SYMBOL        L?0547
 C4:ACFAH         SYMBOL        L?0548
 C4:AD07H         SYMBOL        L?0549
 C4:AD14H         SYMBOL        L?0550
 C4:AD14H         SYMBOL        L?0551
 C4:AD18H         SYMBOL        L?0552
 C4:AD1AH         SYMBOL        L?0553
 C4:AD23H         SYMBOL        L?0554
 C4:AD30H         SYMBOL        L?0555
 C4:AD3DH         SYMBOL        L?0556
 C4:AD4AH         SYMBOL        L?0557
 C4:AD57H         SYMBOL        L?0558
 C4:AD64H         SYMBOL        L?0559
 C4:AD68H         SYMBOL        L?0560
 C4:AD6DH         SYMBOL        L?0561
 C4:AD70H         SYMBOL        L?0562
 C4:AD76H         SYMBOL        L?0563
 C4:AD83H         SYMBOL        L?0564
 C4:AD90H         SYMBOL        L?0567
 C4:AD9DH         SYMBOL        L?0568
 C4:AD9DH         SYMBOL        L?0569
 C4:ADA7H         SYMBOL        L?0570
 C4:ADB4H         SYMBOL        L?0571
 C4:ADB4H         SYMBOL        L?0572
 C4:ADBEH         SYMBOL        L?0573
 C4:ADCBH         SYMBOL        L?0574
 C4:ADD8H         SYMBOL        L?0575
 C4:ADD8H         SYMBOL        L?0576
 C4:ADDCH         SYMBOL        L?0577
 C4:ADDEH         SYMBOL        L?0578
 C4:ADE1H         SYMBOL        L?0579
 C4:ADEEH         SYMBOL        L?0580
 C4:ADFBH         SYMBOL        L?0581
 C4:AE08H         SYMBOL        L?0582
 C4:AE15H         SYMBOL        L?0583
 C4:AE15H         SYMBOL        L?0584
 C4:AE19H         SYMBOL        L?0585
 C4:AE20H         SYMBOL        L?0586
 C4:AE2DH         SYMBOL        L?0587
 C4:AE31H         SYMBOL        L?0588
 C4:AE37H         SYMBOL        L?0589
 C4:AE44H         SYMBOL        L?0590
 C4:AE51H         SYMBOL        L?0593
 C4:AE5EH         SYMBOL        L?0594
 C4:AE64H         SYMBOL        L?0595
 C4:AE6EH         SYMBOL        L?0596
 C4:AE74H         SYMBOL        L?0597
 C4:AE79H         SYMBOL        L?0598
BL51 BANKED LINKER/LOCATER V6.22                                                      01/10/2015  21:25:33  PAGE 190


 C4:AE7AH         SYMBOL        L?0599
 C4:AE7DH         SYMBOL        L?0600
 C4:AE84H         SYMBOL        L?0602
 C4:AE84H         SYMBOL        L?0603
 C4:AE8FH         SYMBOL        L?0604
 C4:AE96H         SYMBOL        L?0605
 C4:AE96H         SYMBOL        L?0606
 C4:AE9AH         SYMBOL        L?0607
 C4:AEA1H         SYMBOL        L?0609
 C4:AEAEH         SYMBOL        L?0610
 C4:AEAEH         SYMBOL        L?0611
 C4:AEB9H         SYMBOL        L?0613
 C4:AEB9H         SYMBOL        L?0614
 C4:AEBAH         SYMBOL        L?0615
 C4:AEC9H         SYMBOL        L?0616
 C4:AED1H         SYMBOL        L?0617
 C4:AEE9H         SYMBOL        L?0618
 C4:AEF0H         SYMBOL        L?0622
 C4:AEF4H         SYMBOL        L?0623
 C4:AEF5H         SYMBOL        L?0624
 C4:AEFDH         SYMBOL        L?0625
 C4:AF05H         SYMBOL        L?0626
 C4:AF0CH         SYMBOL        L?0627
 C4:AF25H         SYMBOL        L?0628
 C4:AF2DH         SYMBOL        L?0629
 C4:AF3AH         SYMBOL        L?0630
 C4:AF3AH         SYMBOL        L?0631
 C4:AF3EH         SYMBOL        L?0632
 C4:AF45H         SYMBOL        L?0633
 C4:AF4EH         SYMBOL        L?0634
 C4:AF55H         SYMBOL        L?0639
 C4:AF5DH         SYMBOL        L?0641
 C4:AF5DH         SYMBOL        L?0642
 C4:AF6EH         SYMBOL        L?0643
 C4:AF8AH         SYMBOL        L?0644
 C4:AF8AH         SYMBOL        L?0645
 C4:AF99H         SYMBOL        L?0649
 C4:AF99H         SYMBOL        L?0650
 C4:AF9DH         SYMBOL        L?0651
 C4:AFA4H         SYMBOL        L?0652
 C4:AFAEH         SYMBOL        L?0653
 C4:AFAEH         SYMBOL        L?0654
 C4:AFB9H         SYMBOL        L?0657
 C4:AFB9H         SYMBOL        L?0658
 C4:AFBBH         SYMBOL        L?0659
 C4:AFC2H         SYMBOL        L?0660
 C4:AFC2H         SYMBOL        L?0661
 C4:AFC5H         SYMBOL        L?0662
 C4:AFCBH         SYMBOL        L?0663
 C4:AFD8H         SYMBOL        L?0664
 C4:AFDFH         SYMBOL        L?0665
 C4:AFE6H         SYMBOL        L?0666
 C4:AFEDH         SYMBOL        L?0667
 C4:AFF4H         SYMBOL        L?0668
 C4:AFF4H         SYMBOL        L?0669
 C4:AFFCH         SYMBOL        L?0673
 C4:AFFCH         SYMBOL        L?0674
BL51 BANKED LINKER/LOCATER V6.22                                                      01/10/2015  21:25:33  PAGE 191


 C4:B004H         SYMBOL        L?0675
 C4:B017H         SYMBOL        L?0677
 C4:B01AH         SYMBOL        L?0678
 C4:B020H         SYMBOL        L?0679
 C4:B020H         SYMBOL        L?0680
 C4:B028H         SYMBOL        L?0681
 C4:B030H         SYMBOL        L?0682
 C4:B030H         SYMBOL        L?0683
 C4:B039H         SYMBOL        L?0687
 C4:B03BH         SYMBOL        L?0688
 C4:B041H         SYMBOL        L?0689
 C4:B046H         SYMBOL        L?0690
 C4:B04CH         SYMBOL        L?0691
 C4:B05BH         SYMBOL        L?0694
 C4:B05BH         SYMBOL        L?0695
 C4:B061H         SYMBOL        L?0696
 C4:B061H         SYMBOL        L?0697
 C4:B068H         SYMBOL        L?0700
 C4:B06FH         SYMBOL        L?0701
 C4:B06FH         SYMBOL        L?0702
 C4:B076H         SYMBOL        L?0706
 C4:B081H         SYMBOL        L?0707
 C4:B08BH         SYMBOL        L?0708
 C4:B095H         SYMBOL        L?0709
 C4:B09FH         SYMBOL        L?0710
 C4:B0A9H         SYMBOL        L?0711
 C4:B0A9H         SYMBOL        L?0712
 C4:B0B0H         SYMBOL        L?0713
  -------         PROC          COM0220
  -------         ENDPROC       COM0220

  -------         PROC BANK=4   _HHAL_TST_SNIFF_CFG
  X:36E1H         SYMBOL        sniff_en
  -------         DO            
  X:36E2H         SYMBOL        plcStatus
  -------         ENDDO         
 C4:E007H         LINE#         78
 C4:E00CH         LINE#         79
 C4:E00CH         LINE#         82
 C4:E010H         LINE#         83
 C4:E010H         LINE#         84
 C4:E014H         LINE#         85
 C4:E016H         LINE#         87
 C4:E01DH         LINE#         88
 C4:E01DH         LINE#         89
 C4:E026H         LINE#         90
 C4:E032H         LINE#         91
 C4:E046H         LINE#         92
 C4:E054H         LINE#         93
  -------         ENDPROC       _HHAL_TST_SNIFF_CFG

  -------         PROC BANK=4   _HHT_SENDBCN
  X:3934H         SYMBOL        bcnType
  -------         DO            
  X:3935H         SYMBOL        bcnMPDU
  X:3938H         SYMBOL        i
  X:3939H         SYMBOL        pPlcTxBcn
BL51 BANKED LINKER/LOCATER V6.22                                                      01/10/2015  21:25:33  PAGE 192


  X:393CH         SYMBOL        pBcnHdr
  X:393FH         SYMBOL        pBeHdr
  X:3942H         SYMBOL        bpstoValueAddr
  D:0006H         SYMBOL        bpstoValueOffset
  X:3943H         SYMBOL        pEntry
  X:3946H         SYMBOL        v_region
  X:3948H         SYMBOL        st_et
  -------         ENDDO         
 C4:BAB6H         LINE#         171
 C4:BABBH         LINE#         172
 C4:BABBH         LINE#         173
 C4:BAC5H         LINE#         186
 C4:BAD0H         LINE#         187
 C4:BAD0H         LINE#         188
 C4:BADCH         LINE#         189
 C4:BAE5H         LINE#         190
 C4:BAF8H         LINE#         193
 C4:BAFDH         LINE#         194
 C4:BB06H         LINE#         195
 C4:BB0CH         LINE#         196
 C4:BB12H         LINE#         197
 C4:BB18H         LINE#         198
 C4:BB21H         LINE#         199
 C4:BB30H         LINE#         204
 C4:BB46H         LINE#         206
 C4:BB56H         LINE#         208
 C4:BB60H         LINE#         209
 C4:BB70H         LINE#         210
 C4:BB7BH         LINE#         211
 C4:BB85H         LINE#         212
 C4:BB8AH         LINE#         213
 C4:BB95H         LINE#         217
 C4:BB9DH         LINE#         218
 C4:BBA2H         LINE#         219
 C4:BBA7H         LINE#         220
 C4:BBAFH         LINE#         221
 C4:BBBFH         LINE#         222
 C4:BBC8H         LINE#         223
 C4:BBCBH         LINE#         224
 C4:BBD5H         LINE#         226
 C4:BBDFH         LINE#         227
 C4:BC4DH         LINE#         229
 C4:BC5CH         LINE#         230
 C4:BC66H         LINE#         231
 C4:BC6DH         LINE#         233
 C4:BC6DH         LINE#         236
 C4:BC75H         LINE#         243
 C4:BC75H         LINE#         244
 C4:BC7AH         LINE#         245
 C4:BC84H         LINE#         248
 C4:BC84H         LINE#         250
 C4:BC9EH         LINE#         251
 C4:BC9EH         LINE#         253
 C4:BCA4H         LINE#         254
 C4:BCA4H         LINE#         255
 C4:BCA9H         LINE#         256
 C4:BCABH         LINE#         258
BL51 BANKED LINKER/LOCATER V6.22                                                      01/10/2015  21:25:33  PAGE 193


 C4:BCABH         LINE#         259
 C4:BCB3H         LINE#         260
 C4:BCB3H         LINE#         262
 C4:BCBBH         LINE#         263
 C4:BCBBH         LINE#         264
 C4:BCCDH         LINE#         265
 C4:BCCFH         LINE#         266
 C4:BCD2H         LINE#         267
 C4:BCD2H         LINE#         268
 C4:BCE8H         LINE#         269
 C4:BCE8H         LINE#         270
 C4:BD11H         LINE#         272
 C4:BD1AH         LINE#         278
 C4:BD1AH         LINE#         279
 C4:BD20H         LINE#         281
 C4:BD20H         LINE#         283
 C4:BD28H         LINE#         284
 C4:BD2DH         LINE#         285
 C4:BD35H         LINE#         286
 C4:BD37H         LINE#         287
 C4:BD3FH         LINE#         288
 C4:BD46H         LINE#         289
 C4:BD4EH         LINE#         290
 C4:BD53H         LINE#         291
 C4:BD53H         LINE#         293
 C4:BD5BH         LINE#         294
 C4:BD60H         LINE#         295
 C4:BD68H         LINE#         296
 C4:BD6AH         LINE#         297
 C4:BD71H         LINE#         299
 C4:BD7FH         LINE#         301
 C4:BD90H         LINE#         302
 C4:BD97H         LINE#         303
 C4:BD97H         LINE#         343
  -------         ENDPROC       _HHT_SENDBCN

  -------         PROC BANK=4   _HHT_GETROBOMODFRMLEN
  D:0001H         SYMBOL        stdModeSel
  D:0004H         SYMBOL        frmLen
  D:0003H         SYMBOL        frmType
  -------         DO            
  D:0006H         SYMBOL        roboMode
  X:45F5H         SYMBOL        miniRoboFrmLenMax
  X:45F7H         SYMBOL        stdRoboFrmLenMax
  X:45F9H         SYMBOL        hsRobo2PbFrmLenMax
  X:45FBH         SYMBOL        hsRobo3PbFrmLenMax
  -------         ENDDO         
 C4:E060H         LINE#         398
 C4:E062H         LINE#         399
 C4:E062H         LINE#         405
 C4:E069H         LINE#         406
 C4:E069H         LINE#         407
 C4:E06AH         LINE#         408
 C4:E06DH         LINE#         409
 C4:E072H         LINE#         410
 C4:E07AH         LINE#         411
 C4:E07CH         LINE#         413
BL51 BANKED LINKER/LOCATER V6.22                                                      01/10/2015  21:25:33  PAGE 194


 C4:E07CH         LINE#         414
 C4:E07CH         LINE#         415
 C4:E07CH         LINE#         416
 C4:E07CH         LINE#         417
 C4:E07FH         LINE#         418
 C4:E07FH         LINE#         419
 C4:E08DH         LINE#         420
 C4:E08DH         LINE#         421
 C4:E08FH         LINE#         422
 C4:E091H         LINE#         423
 C4:E0A5H         LINE#         424
 C4:E0A5H         LINE#         425
 C4:E0A8H         LINE#         426
 C4:E0A8H         LINE#         427
 C4:E0AAH         LINE#         428
 C4:E0ACH         LINE#         429
 C4:E0ACH         LINE#         430
 C4:E0AEH         LINE#         431
 C4:E0AEH         LINE#         432
 C4:E0B0H         LINE#         434
 C4:E0B0H         LINE#         435
 C4:E0B2H         LINE#         436
 C4:E0B2H         LINE#         437
 C4:E0B4H         LINE#         438
  -------         ENDPROC       _HHT_GETROBOMODFRMLEN
 C4:D546H         SYMBOL        L?0698

  -------         PROC BANK=4   _UPDATE_POWERMODE
  D:0007H         SYMBOL        TxRxPowermode
  -------         DO            
  X:36E1H         SYMBOL        input
  X:36EBH         SYMBOL        powermode
  -------         ENDDO         
 C4:D482H         LINE#         441
 C4:D482H         LINE#         442
 C4:D482H         LINE#         447
 C4:D485H         LINE#         448
 C4:D485H         LINE#         450
 C4:D485H         LINE#         451
 C4:D48EH         LINE#         452
 C4:D49DH         LINE#         453
 C4:D49DH         LINE#         454
 C4:D4B3H         LINE#         455
 C4:D4B3H         LINE#         457
 C4:D4BDH         LINE#         458
 C4:D4C0H         LINE#         459
 C4:D4C0H         LINE#         460
 C4:D4C9H         LINE#         461
 C4:D4CBH         LINE#         463
 C4:D4CDH         LINE#         464
 C4:D4D4H         LINE#         465
 C4:D4D4H         LINE#         466
 C4:D4D8H         LINE#         467
 C4:D4DDH         LINE#         468
 C4:D4DFH         LINE#         469
 C4:D4E7H         LINE#         470
 C4:D4E7H         LINE#         471
BL51 BANKED LINKER/LOCATER V6.22                                                      01/10/2015  21:25:33  PAGE 195


 C4:D4EAH         LINE#         472
 C4:D4F0H         LINE#         473
 C4:D4F0H         LINE#         474
 C4:D4F2H         LINE#         476
 C4:D4F2H         LINE#         478
 C4:D4F2H         LINE#         479
 C4:D4FBH         LINE#         480
 C4:D50AH         LINE#         481
 C4:D50AH         LINE#         482
 C4:D51FH         LINE#         483
 C4:D51FH         LINE#         485
 C4:D529H         LINE#         487
 C4:D52CH         LINE#         488
 C4:D52CH         LINE#         489
 C4:D531H         LINE#         492
 C4:D533H         LINE#         493
 C4:D53AH         LINE#         494
 C4:D53AH         LINE#         495
 C4:D545H         LINE#         497
 C4:D545H         LINE#         501
 C4:D545H         LINE#         504
  -------         ENDPROC       _UPDATE_POWERMODE
 C4:A479H         SYMBOL        L?0565
 C4:A490H         SYMBOL        L?0566
 C4:A4A7H         SYMBOL        L?0612
 C4:A4AFH         SYMBOL        L?0620
 C4:A4B7H         SYMBOL        L?0635
 C4:A4BFH         SYMBOL        L?0646
 C4:A4C7H         SYMBOL        L?0670
 C4:A4CFH         SYMBOL        L?0703

  -------         PROC BANK=4   HHT_SIMULATETXTESTMENU
  -------         DO            
  X:36E1H         SYMBOL        testParams
  X:3706H         SYMBOL        eks
  X:3707H         SYMBOL        secTestMode
  X:3708H         SYMBOL        frmLen
  X:370AH         SYMBOL        frmType
  X:370BH         SYMBOL        stdModeSel
  X:370CH         SYMBOL        roboTestMode
  X:370DH         SYMBOL        mcstMode
  X:370EH         SYMBOL        plid
  X:370FH         SYMBOL        numFrames
  X:3713H         SYMBOL        lenTestMode
  X:3714H         SYMBOL        alterDescLenNOffset
  X:3715H         SYMBOL        miniRoboFrmLenMax
  X:3717H         SYMBOL        stdRoboFrmLenMax
  X:3719H         SYMBOL        HS2PBRoboFrmLenMax
  X:371BH         SYMBOL        HS3PBRoboFrmLenMax
  X:371DH         SYMBOL        delay
  X:3721H         SYMBOL        input
  -------         ENDDO         
 C4:A000H         LINE#         1190
 C4:A000H         LINE#         1191
 C4:A000H         LINE#         1198
 C4:A005H         LINE#         1212
 C4:A012H         LINE#         1213
BL51 BANKED LINKER/LOCATER V6.22                                                      01/10/2015  21:25:33  PAGE 196


 C4:A018H         LINE#         1216
 C4:A018H         LINE#         1220
 C4:A021H         LINE#         1222
 C4:A026H         LINE#         1223
 C4:A026H         LINE#         1224
 C4:A038H         LINE#         1225
 C4:A038H         LINE#         1230
 C4:A048H         LINE#         1233
 C4:A04CH         LINE#         1234
 C4:A04CH         LINE#         1236
 C4:A04CH         LINE#         1237
 C4:A055H         LINE#         1238
 C4:A05AH         LINE#         1239
 C4:A05AH         LINE#         1240
 C4:A069H         LINE#         1241
 C4:A069H         LINE#         1243
 C4:A072H         LINE#         1244
 C4:A074H         LINE#         1246
 C4:A074H         LINE#         1247
 C4:A07AH         LINE#         1248
 C4:A07AH         LINE#         1251
 C4:A08AH         LINE#         1252
 C4:A08AH         LINE#         1254
 C4:A08AH         LINE#         1255
 C4:A093H         LINE#         1256
 C4:A09EH         LINE#         1257
 C4:A09EH         LINE#         1258
 C4:A0B3H         LINE#         1259
 C4:A0B3H         LINE#         1261
 C4:A0BCH         LINE#         1262
 C4:A0BCH         LINE#         1266
 C4:A0BCH         LINE#         1267
 C4:A0C5H         LINE#         1268
 C4:A0D0H         LINE#         1269
 C4:A0D0H         LINE#         1270
 C4:A0E5H         LINE#         1271
 C4:A0E5H         LINE#         1273
 C4:A0EFH         LINE#         1276
 C4:A0F7H         LINE#         1277
 C4:A0F7H         LINE#         1279
 C4:A0F7H         LINE#         1280
 C4:A100H         LINE#         1281
 C4:A10BH         LINE#         1282
 C4:A10BH         LINE#         1283
 C4:A120H         LINE#         1284
 C4:A120H         LINE#         1286
 C4:A129H         LINE#         1288
 C4:A129H         LINE#         1289
 C4:A132H         LINE#         1290
 C4:A13DH         LINE#         1291
 C4:A13DH         LINE#         1292
 C4:A152H         LINE#         1293
 C4:A152H         LINE#         1295
 C4:A15BH         LINE#         1297
 C4:A15BH         LINE#         1298
 C4:A164H         LINE#         1300
 C4:A16FH         LINE#         1301
BL51 BANKED LINKER/LOCATER V6.22                                                      01/10/2015  21:25:33  PAGE 197


 C4:A16FH         LINE#         1302
 C4:A184H         LINE#         1303
 C4:A184H         LINE#         1305
 C4:A18DH         LINE#         1306
 C4:A18DH         LINE#         1308
 C4:A197H         LINE#         1309
 C4:A197H         LINE#         1311
 C4:A197H         LINE#         1312
 C4:A19AH         LINE#         1356
 C4:A19CH         LINE#         1358
 C4:A19CH         LINE#         1360
 C4:A19CH         LINE#         1361
 C4:A19CH         LINE#         1362
 C4:A19CH         LINE#         1363
 C4:A19FH         LINE#         1364
 C4:A19FH         LINE#         1366
 C4:A1A3H         LINE#         1367
 C4:A1A3H         LINE#         1368
 C4:A1B2H         LINE#         1369
 C4:A1BAH         LINE#         1371
 C4:A1BDH         LINE#         1372
 C4:A1C0H         LINE#         1374
 C4:A1C0H         LINE#         1375
 C4:A1D4H         LINE#         1376
 C4:A1D4H         LINE#         1377
 C4:A1DDH         LINE#         1378
 C4:A1E8H         LINE#         1379
 C4:A1E8H         LINE#         1380
 C4:A1FDH         LINE#         1381
 C4:A1FDH         LINE#         1383
 C4:A1FDH         LINE#         1385
 C4:A211H         LINE#         1386
 C4:A216H         LINE#         1387
 C4:A221H         LINE#         1388
 C4:A226H         LINE#         1390
 C4:A229H         LINE#         1391
 C4:A229H         LINE#         1394
 C4:A229H         LINE#         1395
 C4:A232H         LINE#         1396
 C4:A23DH         LINE#         1397
 C4:A23DH         LINE#         1398
 C4:A24FH         LINE#         1399
 C4:A24FH         LINE#         1401
 C4:A258H         LINE#         1405
 C4:A258H         LINE#         1406
 C4:A261H         LINE#         1407
 C4:A26CH         LINE#         1408
 C4:A26CH         LINE#         1409
 C4:A27EH         LINE#         1410
 C4:A27EH         LINE#         1412
 C4:A287H         LINE#         1414
 C4:A287H         LINE#         1415
 C4:A290H         LINE#         1416
 C4:A29BH         LINE#         1417
 C4:A29BH         LINE#         1418
 C4:A2ADH         LINE#         1419
 C4:A2ADH         LINE#         1421
BL51 BANKED LINKER/LOCATER V6.22                                                      01/10/2015  21:25:33  PAGE 198


 C4:A2B7H         LINE#         1423
 C4:A2B7H         LINE#         1424
 C4:A2C0H         LINE#         1425
 C4:A2CBH         LINE#         1426
 C4:A2CBH         LINE#         1427
 C4:A2DDH         LINE#         1428
 C4:A2DDH         LINE#         1430
 C4:A2E7H         LINE#         1432
 C4:A2EAH         LINE#         1433
 C4:A2EAH         LINE#         1434
 C4:A2F0H         LINE#         1435
 C4:A2F2H         LINE#         1436
 C4:A2F7H         LINE#         1437
 C4:A2F7H         LINE#         1439
 C4:A2F7H         LINE#         1440
 C4:A300H         LINE#         1441
 C4:A30BH         LINE#         1442
 C4:A30BH         LINE#         1443
 C4:A320H         LINE#         1444
 C4:A320H         LINE#         1446
 C4:A329H         LINE#         1447
 C4:A32BH         LINE#         1449
 C4:A32BH         LINE#         1450
 C4:A330H         LINE#         1451
 C4:A330H         LINE#         1453
 C4:A336H         LINE#         1454
 C4:A336H         LINE#         1455
 C4:A33FH         LINE#         1456
 C4:A34AH         LINE#         1457
 C4:A34AH         LINE#         1458
 C4:A362H         LINE#         1459
 C4:A364H         LINE#         1461
 C4:A364H         LINE#         1463
 C4:A364H         LINE#         1464
 C4:A36EH         LINE#         1465
 C4:A36EH         LINE#         1466
 C4:A377H         LINE#         1467
 C4:A382H         LINE#         1468
 C4:A382H         LINE#         1469
 C4:A39BH         LINE#         1470
 C4:A39BH         LINE#         1474
 C4:A3A7H         LINE#         1475
 C4:A3AFH         LINE#         1476
 C4:A3AFH         LINE#         1477
 C4:A3B4H         LINE#         1478
 C4:A3B6H         LINE#         1480
 C4:A3B6H         LINE#         1481
 C4:A3BBH         LINE#         1482
 C4:A3BBH         LINE#         1483
 C4:A3CAH         LINE#         1484
 C4:A3D2H         LINE#         1487
 C4:A3DAH         LINE#         1489
 C4:A3E2H         LINE#         1490
 C4:A3E2H         LINE#         1491
 C4:A3E8H         LINE#         1492
 C4:A3EDH         LINE#         1493
 C4:A3EFH         LINE#         1495
BL51 BANKED LINKER/LOCATER V6.22                                                      01/10/2015  21:25:33  PAGE 199


 C4:A3EFH         LINE#         1496
 C4:A3F4H         LINE#         1497
 C4:A3F7H         LINE#         1498
 C4:A3F7H         LINE#         1499
 C4:A3FFH         LINE#         1500
 C4:A3FFH         LINE#         1501
 C4:A405H         LINE#         1502
 C4:A407H         LINE#         1504
 C4:A407H         LINE#         1505
 C4:A40CH         LINE#         1506
 C4:A411H         LINE#         1507
 C4:A411H         LINE#         1510
 C4:A419H         LINE#         1512
 C4:A421H         LINE#         1513
 C4:A421H         LINE#         1514
 C4:A427H         LINE#         1515
 C4:A42CH         LINE#         1516
 C4:A42EH         LINE#         1518
 C4:A42EH         LINE#         1519
 C4:A433H         LINE#         1521
 C4:A438H         LINE#         1525
 C4:A438H         LINE#         1526
 C4:A440H         LINE#         1527
 C4:A448H         LINE#         1528
 C4:A450H         LINE#         1529
 C4:A452H         LINE#         1530
 C4:A452H         LINE#         1531
 C4:A458H         LINE#         1532
 C4:A45CH         LINE#         1533
 C4:A45EH         LINE#         1535
 C4:A45EH         LINE#         1536
 C4:A461H         LINE#         1537
 C4:A464H         LINE#         1538
 C4:A464H         LINE#         1539
 C4:A470H         LINE#         1541
 C4:A479H         LINE#         1542
  -------         ENDPROC       HHT_SIMULATETXTESTMENU

  -------         PROC BANK=4   _SENDSINGLEFRAME
  X:4497H         SYMBOL        mcstMode
  -------         DO            
  X:4498H         SYMBOL        testParams
  -------         ENDDO         
 C4:DD88H         LINE#         1544
 C4:DD8DH         LINE#         1545
 C4:DD8DH         LINE#         1548
 C4:DD9CH         LINE#         1549
 C4:DDA6H         LINE#         1551
 C4:DDABH         LINE#         1553
 C4:DDB3H         LINE#         1554
 C4:DDB9H         LINE#         1556
 C4:DDBFH         LINE#         1557
 C4:DDC2H         LINE#         1558
 C4:DDC6H         LINE#         1559
 C4:DDC8H         LINE#         1560
 C4:DDCAH         LINE#         1561
 C4:DDCEH         LINE#         1562
BL51 BANKED LINKER/LOCATER V6.22                                                      01/10/2015  21:25:33  PAGE 200


 C4:DDD6H         LINE#         1563
 C4:DDD9H         LINE#         1564
 C4:DDDCH         LINE#         1565
 C4:DDE1H         LINE#         1566
 C4:DDE7H         LINE#         1567
 C4:DDECH         LINE#         1568
 C4:DDF6H         LINE#         1569
 C4:DDFBH         LINE#         1578
  -------         ENDPROC       _SENDSINGLEFRAME
 C4:C01DH         SYMBOL        L?0591
 C4:C02BH         SYMBOL        L?0608
 C4:C039H         SYMBOL        L?0621
 C4:C047H         SYMBOL        L?0636
 C4:C04FH         SYMBOL        L?0647
 C4:C057H         SYMBOL        L?0655
 C4:C065H         SYMBOL        L?0671
 C4:C06DH         SYMBOL        L?0704

  -------         PROC BANK=4   HHT_BASICTXMENU
  -------         DO            
  X:36E1H         SYMBOL        testParams
  X:3706H         SYMBOL        dbc
  X:3707H         SYMBOL        pattern
  X:3708H         SYMBOL        rts
  X:3709H         SYMBOL        cts
  X:370AH         SYMBOL        rsof
  X:370BH         SYMBOL        frmLen
  X:370DH         SYMBOL        stdModeSel
  X:370EH         SYMBOL        roboTestMode
  X:370FH         SYMBOL        mcstMode
  X:3710H         SYMBOL        cap
  X:3711H         SYMBOL        numFrames
  X:3715H         SYMBOL        miniRoboFrmLenMax
  X:3717H         SYMBOL        stdRoboFrmLenMax
  X:3719H         SYMBOL        delay
  X:371DH         SYMBOL        input
  -------         ENDDO         
 C4:BD98H         LINE#         1581
 C4:BD98H         LINE#         1582
 C4:BD98H         LINE#         1599
 C4:BDA1H         LINE#         1600
 C4:BDA6H         LINE#         1603
 C4:BDA6H         LINE#         1604
 C4:BDAFH         LINE#         1605
 C4:BDB7H         LINE#         1606
 C4:BDB7H         LINE#         1607
 C4:BDC9H         LINE#         1608
 C4:BDC9H         LINE#         1610
 C4:BDD1H         LINE#         1611
 C4:BDD1H         LINE#         1612
 C4:BDD3H         LINE#         1615
 C4:BDDCH         LINE#         1616
 C4:BDE4H         LINE#         1617
 C4:BDE4H         LINE#         1618
 C4:BDF6H         LINE#         1619
 C4:BDF6H         LINE#         1621
 C4:BDFEH         LINE#         1622
BL51 BANKED LINKER/LOCATER V6.22                                                      01/10/2015  21:25:33  PAGE 201


 C4:BDFEH         LINE#         1623
 C4:BE00H         LINE#         1626
 C4:BE09H         LINE#         1627
 C4:BE11H         LINE#         1628
 C4:BE11H         LINE#         1629
 C4:BE23H         LINE#         1630
 C4:BE23H         LINE#         1632
 C4:BE2BH         LINE#         1633
 C4:BE2DH         LINE#         1634
 C4:BE2DH         LINE#         1635
 C4:BE2DH         LINE#         1636
 C4:BE2DH         LINE#         1903
 C4:BE2DH         LINE#         1905
 C4:BE2DH         LINE#         1909
 C4:BE36H         LINE#         1911
 C4:BE3EH         LINE#         1912
 C4:BE3EH         LINE#         1913
 C4:BE56H         LINE#         1914
 C4:BE56H         LINE#         1919
 C4:BE6FH         LINE#         1924
 C4:BE6FH         LINE#         1925
 C4:BE78H         LINE#         1926
 C4:BE80H         LINE#         1927
 C4:BE80H         LINE#         1928
 C4:BE92H         LINE#         1929
 C4:BE92H         LINE#         1931
 C4:BE9BH         LINE#         1934
 C4:BEB5H         LINE#         1935
 C4:BEB5H         LINE#         1936
 C4:BEBEH         LINE#         1937
 C4:BEC6H         LINE#         1938
 C4:BEC6H         LINE#         1939
 C4:BED8H         LINE#         1940
 C4:BED8H         LINE#         1942
 C4:BED8H         LINE#         1944
 C4:BED8H         LINE#         1945
 C4:BEE1H         LINE#         1946
 C4:BEE9H         LINE#         1947
 C4:BEE9H         LINE#         1948
 C4:BF01H         LINE#         1949
 C4:BF01H         LINE#         1951
 C4:BF0AH         LINE#         1953
 C4:BF10H         LINE#         1954
 C4:BF10H         LINE#         1955
 C4:BF19H         LINE#         1956
 C4:BF21H         LINE#         1957
 C4:BF21H         LINE#         1958
 C4:BF36H         LINE#         1959
 C4:BF38H         LINE#         1961
 C4:BF38H         LINE#         1963
 C4:BF38H         LINE#         1964
 C4:BF42H         LINE#         1965
 C4:BF42H         LINE#         1983
 C4:BF4BH         LINE#         1984
 C4:BF5DH         LINE#         1985
 C4:BF5DH         LINE#         1986
 C4:BF76H         LINE#         1987
BL51 BANKED LINKER/LOCATER V6.22                                                      01/10/2015  21:25:33  PAGE 202


 C4:BF76H         LINE#         1991
 C4:BF82H         LINE#         1992
 C4:BF8AH         LINE#         1993
 C4:BF8AH         LINE#         1994
 C4:BF8FH         LINE#         1995
 C4:BF91H         LINE#         1997
 C4:BF91H         LINE#         1998
 C4:BF96H         LINE#         1999
 C4:BF96H         LINE#         2000
 C4:BFA5H         LINE#         2001
 C4:BFABH         LINE#         2002
 C4:BFB3H         LINE#         2003
 C4:BFB9H         LINE#         2004
 C4:BFBCH         LINE#         2005
 C4:BFC0H         LINE#         2006
 C4:BFC8H         LINE#         2007
 C4:BFC8H         LINE#         2008
 C4:BFCDH         LINE#         2009
 C4:BFD0H         LINE#         2010
 C4:BFD2H         LINE#         2012
 C4:BFD2H         LINE#         2013
 C4:BFD7H         LINE#         2014
 C4:BFDAH         LINE#         2015
 C4:BFDAH         LINE#         2016
 C4:BFE2H         LINE#         2018
 C4:BFEAH         LINE#         2022
 C4:BFEFH         LINE#         2023
 C4:BFF3H         LINE#         2024
 C4:BFF8H         LINE#         2025
 C4:BFFEH         LINE#         2026
 C4:C003H         LINE#         2027
 C4:C00FH         LINE#         2028
 C4:C015H         LINE#         2037
 C4:C015H         LINE#         2038
 C4:C01DH         LINE#         2040
  -------         ENDPROC       HHT_BASICTXMENU
 C4:B418H         SYMBOL        L?0592
 C4:B42DH         SYMBOL        L?0601
 C4:B442H         SYMBOL        L?0637
 C4:B454H         SYMBOL        L?0648
 C4:B45EH         SYMBOL        L?0672
 C4:B46CH         SYMBOL        L?0684
 C4:B476H         SYMBOL        L?0705
 C4:B482H         SYMBOL        L?0714

  -------         PROC BANK=4   HHT_TESTMEMORYTABLES
  -------         DO            
  X:36E1H         SYMBOL        aesCpuCmd
  X:36E5H         SYMBOL        status
  X:36E6H         SYMBOL        input
  X:36F0H         SYMBOL        patternWr
  D:0007H         SYMBOL        patternRd
  X:36F1H         SYMBOL        patternCmp
  X:36F2H         SYMBOL        patternWr16
  X:36F4H         SYMBOL        patternCmp16
  X:36F6H         SYMBOL        patternRd16
  X:36F8H         SYMBOL        patternWr32
BL51 BANKED LINKER/LOCATER V6.22                                                      01/10/2015  21:25:33  PAGE 203


  X:36FCH         SYMBOL        patternCmp32
  X:3700H         SYMBOL        patternRd32
  X:3704H         SYMBOL        i
  X:3706H         SYMBOL        testMode
  -------         ENDDO         
 C4:B0B7H         LINE#         2043
 C4:B0B7H         LINE#         2044
 C4:B0B7H         LINE#         2062
 C4:B0B7H         LINE#         2063
 C4:B0C0H         LINE#         2064
 C4:B0CFH         LINE#         2065
 C4:B0CFH         LINE#         2066
 C4:B0E5H         LINE#         2067
 C4:B0E5H         LINE#         2069
 C4:B0EFH         LINE#         2071
 C4:B0F4H         LINE#         2073
 C4:B0FAH         LINE#         2074
 C4:B0FAH         LINE#         2075
 C4:B103H         LINE#         2076
 C4:B10DH         LINE#         2077
 C4:B10DH         LINE#         2078
 C4:B113H         LINE#         2079
 C4:B11BH         LINE#         2080
 C4:B123H         LINE#         2081
 C4:B123H         LINE#         2082
 C4:B126H         LINE#         2083
 C4:B12CH         LINE#         2084
 C4:B12CH         LINE#         2085
 C4:B132H         LINE#         2087
 C4:B137H         LINE#         2088
 C4:B13AH         LINE#         2089
 C4:B143H         LINE#         2091
 C4:B143H         LINE#         2092
 C4:B146H         LINE#         2093
 C4:B14CH         LINE#         2094
 C4:B156H         LINE#         2095
 C4:B156H         LINE#         2096
 C4:B159H         LINE#         2097
 C4:B15FH         LINE#         2098
 C4:B165H         LINE#         2099
 C4:B16FH         LINE#         2100
 C4:B174H         LINE#         2101
 C4:B177H         LINE#         2103
 C4:B180H         LINE#         2104
 C4:B18AH         LINE#         2105
 C4:B18AH         LINE#         2106
 C4:B18DH         LINE#         2107
 C4:B190H         LINE#         2108
 C4:B198H         LINE#         2109
 C4:B198H         LINE#         2110
 C4:B19BH         LINE#         2111
 C4:B1A1H         LINE#         2112
 C4:B1A1H         LINE#         2113
 C4:B1A7H         LINE#         2114
 C4:B1ACH         LINE#         2115
 C4:B1B5H         LINE#         2117
 C4:B1B5H         LINE#         2118
BL51 BANKED LINKER/LOCATER V6.22                                                      01/10/2015  21:25:33  PAGE 204


 C4:B1B5H         LINE#         2119
 C4:B1B5H         LINE#         2120
 C4:B1BBH         LINE#         2122
 C4:B1BBH         LINE#         2124
 C4:B1BEH         LINE#         2125
 C4:B1C8H         LINE#         2126
 C4:B1C8H         LINE#         2127
 C4:B1CBH         LINE#         2128
 C4:B1D6H         LINE#         2129
 C4:B1E9H         LINE#         2130
 C4:B1EEH         LINE#         2131
 C4:B1F1H         LINE#         2132
 C4:B1F4H         LINE#         2133
 C4:B1F4H         LINE#         2134
 C4:B202H         LINE#         2135
 C4:B212H         LINE#         2136
 C4:B221H         LINE#         2137
 C4:B221H         LINE#         2138
 C4:B239H         LINE#         2139
 C4:B23CH         LINE#         2140
 C4:B23CH         LINE#         2141
 C4:B254H         LINE#         2142
 C4:B260H         LINE#         2143
 C4:B267H         LINE#         2144
 C4:B26FH         LINE#         2145
 C4:B275H         LINE#         2146
 C4:B27EH         LINE#         2149
 C4:B27EH         LINE#         2150
 C4:B281H         LINE#         2151
 C4:B287H         LINE#         2163
 C4:B28CH         LINE#         2164
 C4:B296H         LINE#         2165
 C4:B296H         LINE#         2166
 C4:B299H         LINE#         2167
 C4:B2ABH         LINE#         2168
 C4:B2BBH         LINE#         2169
 C4:B2C0H         LINE#         2170
 C4:B2C5H         LINE#         2171
 C4:B2CFH         LINE#         2172
 C4:B2CFH         LINE#         2173
 C4:B2DAH         LINE#         2174
 C4:B2E0H         LINE#         2175
 C4:B2E8H         LINE#         2176
 C4:B2E8H         LINE#         2177
 C4:B2FFH         LINE#         2178
 C4:B302H         LINE#         2179
 C4:B302H         LINE#         2180
 C4:B312H         LINE#         2181
 C4:B317H         LINE#         2182
 C4:B31EH         LINE#         2183
 C4:B326H         LINE#         2184
 C4:B32CH         LINE#         2185
 C4:B335H         LINE#         2190
 C4:B33FH         LINE#         2191
 C4:B349H         LINE#         2192
 C4:B349H         LINE#         2193
 C4:B34CH         LINE#         2194
BL51 BANKED LINKER/LOCATER V6.22                                                      01/10/2015  21:25:33  PAGE 205


 C4:B35DH         LINE#         2195
 C4:B36EH         LINE#         2196
 C4:B373H         LINE#         2197
 C4:B37DH         LINE#         2198
 C4:B387H         LINE#         2199
 C4:B387H         LINE#         2200
 C4:B392H         LINE#         2201
 C4:B395H         LINE#         2202
 C4:B3A3H         LINE#         2203
 C4:B3A3H         LINE#         2204
 C4:B3C7H         LINE#         2205
 C4:B3CDH         LINE#         2206
 C4:B3CDH         LINE#         2207
 C4:B3DEH         LINE#         2208
 C4:B3E4H         LINE#         2209
 C4:B3EBH         LINE#         2210
 C4:B3F3H         LINE#         2211
 C4:B3F9H         LINE#         2212
 C4:B402H         LINE#         2217
 C4:B402H         LINE#         2218
 C4:B402H         LINE#         2219
 C4:B402H         LINE#         2220
 C4:B408H         LINE#         2221
 C4:B40EH         LINE#         2222
 C4:B40EH         LINE#         2223
 C4:B417H         LINE#         2224
 C4:B417H         LINE#         2225
  -------         ENDPROC       HHT_TESTMEMORYTABLES

  -------         PROC BANK=4   HHT_SETDIAGMODE
  -------         DO            
  D:0007H         SYMBOL        diagModeFlag
  D:0007H         SYMBOL        sackDisableFlag
  X:36E1H         SYMBOL        diagMode
  X:36E2H         SYMBOL        sackDisable
  -------         ENDDO         
 C4:E19FH         LINE#         2228
 C4:E19FH         LINE#         2229
 C4:E19FH         LINE#         2235
 C4:E1A8H         LINE#         2236
 C4:E1B2H         LINE#         2237
 C4:E1BEH         LINE#         2238
 C4:E1C1H         LINE#         2240
 C4:E1C7H         LINE#         2241
 C4:E1C7H         LINE#         2242
 C4:E1D0H         LINE#         2243
 C4:E1DAH         LINE#         2244
 C4:E1E6H         LINE#         2245
 C4:E1E9H         LINE#         2246
 C4:E1E9H         LINE#         2247
  -------         ENDPROC       HHT_SETDIAGMODE
 C4:CBD4H         SYMBOL        L?0685
 C4:CBDCH         SYMBOL        L?0699
 C4:CBE9H         SYMBOL        L?0715

  -------         PROC BANK=4   HHT_SETKEY
  -------         DO            
BL51 BANKED LINKER/LOCATER V6.22                                                      01/10/2015  21:25:33  PAGE 206


  X:36E1H         SYMBOL        secMode
  X:36E2H         SYMBOL        defKeyNum
  X:36E3H         SYMBOL        eks
  X:36E4H         SYMBOL        ppeks
  X:36E5H         SYMBOL        input
  -------         ENDDO         
 C4:CA8FH         LINE#         2250
 C4:CA8FH         LINE#         2251
 C4:CA8FH         LINE#         2259
 C4:CA8FH         LINE#         2260
 C4:CA98H         LINE#         2261
 C4:CAA3H         LINE#         2262
 C4:CAA3H         LINE#         2263
 C4:CAB5H         LINE#         2264
 C4:CAB5H         LINE#         2266
 C4:CABFH         LINE#         2267
 C4:CAC2H         LINE#         2268
 C4:CAC2H         LINE#         2270
 C4:CAC2H         LINE#         2271
 C4:CACBH         LINE#         2272
 C4:CAD6H         LINE#         2273
 C4:CAD6H         LINE#         2274
 C4:CAE8H         LINE#         2275
 C4:CAE8H         LINE#         2277
 C4:CAF1H         LINE#         2279
 C4:CAF1H         LINE#         2280
 C4:CAF4H         LINE#         2281
 C4:CAFFH         LINE#         2282
 C4:CAFFH         LINE#         2283
 C4:CB15H         LINE#         2284
 C4:CB15H         LINE#         2286
 C4:CB1FH         LINE#         2287
 C4:CB28H         LINE#         2288
 C4:CB28H         LINE#         2289
 C4:CB30H         LINE#         2290
 C4:CB30H         LINE#         2292
 C4:CB30H         LINE#         2293
 C4:CB39H         LINE#         2294
 C4:CB44H         LINE#         2295
 C4:CB44H         LINE#         2296
 C4:CB59H         LINE#         2297
 C4:CB59H         LINE#         2299
 C4:CB63H         LINE#         2301
 C4:CB63H         LINE#         2302
 C4:CB66H         LINE#         2303
 C4:CB71H         LINE#         2304
 C4:CB71H         LINE#         2305
 C4:CB87H         LINE#         2306
 C4:CB87H         LINE#         2308
 C4:CB91H         LINE#         2309
 C4:CB9AH         LINE#         2310
 C4:CB9CH         LINE#         2312
 C4:CB9CH         LINE#         2314
 C4:CBABH         LINE#         2315
 C4:CBABH         LINE#         2316
 C4:CBB2H         LINE#         2317
 C4:CBBAH         LINE#         2319
BL51 BANKED LINKER/LOCATER V6.22                                                      01/10/2015  21:25:33  PAGE 207


 C4:CBC5H         LINE#         2320
 C4:CBCBH         LINE#         2321
 C4:CBD3H         LINE#         2322
 C4:CBD3H         LINE#         2323
  -------         ENDPROC       HHT_SETKEY

  -------         PROC BANK=4   HHT_SETDEFEKS
  -------         DO            
  X:36E1H         SYMBOL        input
  -------         ENDDO         
 C4:E105H         LINE#         2325
 C4:E105H         LINE#         2326
 C4:E105H         LINE#         2328
 C4:E10EH         LINE#         2330
 C4:E10EH         LINE#         2331
 C4:E11DH         LINE#         2332
 C4:E11DH         LINE#         2333
 C4:E136H         LINE#         2334
 C4:E136H         LINE#         2336
 C4:E144H         LINE#         2337
  -------         ENDPROC       HHT_SETDEFEKS

  -------         PROC BANK=4   HHT_SETROBOMODE
  -------         DO            
  X:36E1H         SYMBOL        enbRoboMdPgm
  X:36E2H         SYMBOL        roboMd
  X:36E3H         SYMBOL        plcNumPBs
  X:36E4H         SYMBOL        input
  -------         ENDDO         
 C4:D78BH         LINE#         2339
 C4:D78BH         LINE#         2340
 C4:D78BH         LINE#         2346
 C4:D794H         LINE#         2347
 C4:D79FH         LINE#         2348
 C4:D79FH         LINE#         2349
 C4:D7B5H         LINE#         2350
 C4:D7B5H         LINE#         2353
 C4:D7BBH         LINE#         2354
 C4:D7BBH         LINE#         2356
 C4:D7BBH         LINE#         2357
 C4:D7C4H         LINE#         2358
 C4:D7CFH         LINE#         2359
 C4:D7CFH         LINE#         2360
 C4:D7E5H         LINE#         2361
 C4:D7E5H         LINE#         2363
 C4:D7EFH         LINE#         2365
 C4:D7F4H         LINE#         2366
 C4:D7F4H         LINE#         2368
 C4:D7F4H         LINE#         2369
 C4:D7FDH         LINE#         2370
 C4:D808H         LINE#         2371
 C4:D808H         LINE#         2372
 C4:D81DH         LINE#         2373
 C4:D81DH         LINE#         2375
 C4:D828H         LINE#         2376
 C4:D828H         LINE#         2377
 C4:D828H         LINE#         2378
BL51 BANKED LINKER/LOCATER V6.22                                                      01/10/2015  21:25:33  PAGE 208


  -------         ENDPROC       HHT_SETROBOMODE

  -------         PROC BANK=4   HHT_ADDRCFG
  -------         DO            
  X:36E1H         SYMBOL        tei
  X:36E2H         SYMBOL        remoteTei
  X:36E3H         SYMBOL        snid
  X:36E4H         SYMBOL        input
  -------         ENDDO         
 C4:D3A5H         LINE#         2382
 C4:D3A5H         LINE#         2383
 C4:D3A5H         LINE#         2389
 C4:D3C9H         LINE#         2392
 C4:D3C9H         LINE#         2393
 C4:D3D2H         LINE#         2394
 C4:D3DDH         LINE#         2395
 C4:D3DDH         LINE#         2396
 C4:D3F5H         LINE#         2397
 C4:D3F5H         LINE#         2399
 C4:D3FEH         LINE#         2402
 C4:D3FEH         LINE#         2403
 C4:D407H         LINE#         2404
 C4:D412H         LINE#         2405
 C4:D412H         LINE#         2406
 C4:D42BH         LINE#         2407
 C4:D42BH         LINE#         2409
 C4:D434H         LINE#         2412
 C4:D434H         LINE#         2413
 C4:D43DH         LINE#         2414
 C4:D448H         LINE#         2415
 C4:D448H         LINE#         2416
 C4:D461H         LINE#         2417
 C4:D461H         LINE#         2419
 C4:D46AH         LINE#         2421
 C4:D472H         LINE#         2422
 C4:D47AH         LINE#         2423
  -------         ENDPROC       HHT_ADDRCFG
 C4:DBD6H         SYMBOL        L?0692
 C4:DBE4H         SYMBOL        L?0716

  -------         PROC BANK=4   HHT_DEVCFG
  -------         DO            
  X:36E1H         SYMBOL        devMode
  X:36E2H         SYMBOL        lineMode
  X:36E3H         SYMBOL        plcDevMode
  X:36E4H         SYMBOL        input
  -------         ENDDO         
 C4:DB57H         LINE#         2427
 C4:DB57H         LINE#         2428
 C4:DB57H         LINE#         2434
 C4:DB5FH         LINE#         2437
 C4:DB5FH         LINE#         2438
 C4:DB6CH         LINE#         2439
 C4:DB74H         LINE#         2440
 C4:DB74H         LINE#         2441
 C4:DB8AH         LINE#         2442
 C4:DB8AH         LINE#         2444
BL51 BANKED LINKER/LOCATER V6.22                                                      01/10/2015  21:25:33  PAGE 209


 C4:DB93H         LINE#         2446
 C4:DB93H         LINE#         2447
 C4:DBA3H         LINE#         2448
 C4:DBABH         LINE#         2449
 C4:DBABH         LINE#         2450
 C4:DBC1H         LINE#         2451
 C4:DBC1H         LINE#         2453
 C4:DBCBH         LINE#         2454
 C4:DBD3H         LINE#         2455
 C4:DBD6H         LINE#         2456
  -------         ENDPROC       HHT_DEVCFG

  -------         PROC BANK=4   HHAL_CMDHELP
 C4:E562H         LINE#         2459
 C4:E562H         LINE#         2460
 C4:E562H         LINE#         2461
 C4:E56BH         LINE#         2501
  -------         ENDPROC       HHAL_CMDHELP

  -------         PROC BANK=4   _SETLATENCY
  D:0001H         SYMBOL        cmdBuf
  -------         DO            
  X:36E1H         SYMBOL        TCCIterarion
  -------         ENDDO         
 C4:DEE1H         LINE#         2505
 C4:DEE1H         LINE#         2506
 C4:DEE1H         LINE#         2508
 C4:DEFFH         LINE#         2509
 C4:DEFFH         LINE#         2511
 C4:DF14H         LINE#         2512
 C4:DF25H         LINE#         2513
 C4:DF44H         LINE#         2514
 C4:DF44H         LINE#         2515
  -------         ENDPROC       _SETLATENCY

  -------         PROC BANK=4   SETFREQ60
 C4:E4C4H         LINE#         2611
 C4:E4C4H         LINE#         2612
 C4:E4C4H         LINE#         2614
 C4:E4CAH         LINE#         2616
 C4:E4CEH         LINE#         2618
  -------         ENDPROC       SETFREQ60

  -------         PROC BANK=4   _HHAL_CMDHALPROCESS
  X:36CEH         SYMBOL        CmdBuf
  -------         DO            
  X:36D1H         SYMBOL        cmd
  X:36DBH         SYMBOL        i
  -------         DO            
  X:36DFH         SYMBOL        remoteTei
  X:36E0H         SYMBOL        selfTei
  -------         ENDDO         
  -------         ENDDO         
 C4:A4D7H         LINE#         2622
 C4:A4DDH         LINE#         2623
 C4:A4DDH         LINE#         2627
 C4:A4E3H         LINE#         2629
BL51 BANKED LINKER/LOCATER V6.22                                                      01/10/2015  21:25:33  PAGE 210


 C4:A50AH         LINE#         2630
 C4:A50AH         LINE#         2631
 C4:A50DH         LINE#         2633
 C4:A50DH         LINE#         2634
 C4:A51FH         LINE#         2635
 C4:A51FH         LINE#         2636
 C4:A522H         LINE#         2637
 C4:A522H         LINE#         2642
 C4:A52BH         LINE#         2643
 C4:A52BH         LINE#         2644
 C4:A52BH         LINE#         2645
 C4:A52DH         LINE#         2646
 C4:A539H         LINE#         2647
 C4:A539H         LINE#         2649
 C4:A539H         LINE#         2651
 C4:A54BH         LINE#         2652
 C4:A54BH         LINE#         2653
 C4:A54EH         LINE#         2654
 C4:A551H         LINE#         2655
 C4:A551H         LINE#         2656
 C4:A55AH         LINE#         2657
 C4:A55AH         LINE#         2658
 C4:A55DH         LINE#         2659
 C4:A55DH         LINE#         2660
 C4:A566H         LINE#         2661
 C4:A566H         LINE#         2663
 C4:A56FH         LINE#         2664
 C4:A574H         LINE#         2665
 C4:A57DH         LINE#         2667
 C4:A582H         LINE#         2670
 C4:A582H         LINE#         2685
 C4:A58BH         LINE#         2686
 C4:A58BH         LINE#         2687
 C4:A58FH         LINE#         2688
 C4:A58FH         LINE#         2689
 C4:A598H         LINE#         2690
 C4:A598H         LINE#         2691
 C4:A59BH         LINE#         2692
 C4:A59BH         LINE#         2693
 C4:A5ADH         LINE#         2694
 C4:A5ADH         LINE#         2695
 C4:A5ADH         LINE#         2696
 C4:A5B0H         LINE#         2727
 C4:A5B9H         LINE#         2728
 C4:A5B9H         LINE#         2729
 C4:A5BCH         LINE#         2731
 C4:A5BCH         LINE#         2732
 C4:A5C5H         LINE#         2733
 C4:A5C5H         LINE#         2734
 C4:A5C8H         LINE#         2735
 C4:A5C8H         LINE#         2736
 C4:A5DAH         LINE#         2737
 C4:A5DAH         LINE#         2738
 C4:A5E1H         LINE#         2740
 C4:A5E4H         LINE#         2741
 C4:A5E4H         LINE#         2744
 C4:A5E6H         LINE#         2745
BL51 BANKED LINKER/LOCATER V6.22                                                      01/10/2015  21:25:33  PAGE 211


 C4:A5F8H         LINE#         2746
 C4:A5F8H         LINE#         2747
 C4:A5F8H         LINE#         2748
 C4:A5FBH         LINE#         2749
 C4:A60DH         LINE#         2750
 C4:A60DH         LINE#         2751
 C4:A60DH         LINE#         2752
 C4:A60FH         LINE#         2753
 C4:A621H         LINE#         2754
 C4:A621H         LINE#         2755
 C4:A627H         LINE#         2756
 C4:A628H         LINE#         2758
 C4:A63AH         LINE#         2759
 C4:A63AH         LINE#         2760
 C4:A640H         LINE#         2761
 C4:A643H         LINE#         2763
 C4:A647H         LINE#         2764
 C4:A64FH         LINE#         2765
 C4:A654H         LINE#         2766
 C4:A655H         LINE#         2767
 C4:A65EH         LINE#         2768
 C4:A65EH         LINE#         2769
 C4:A66EH         LINE#         2770
 C4:A66EH         LINE#         2771
 C4:A677H         LINE#         2772
 C4:A677H         LINE#         2773
 C4:A67AH         LINE#         2774
 C4:A67AH         LINE#         2775
 C4:A683H         LINE#         2776
 C4:A683H         LINE#         2777
 C4:A686H         LINE#         2778
 C4:A686H         LINE#         2779
 C4:A698H         LINE#         2780
 C4:A698H         LINE#         2781
 C4:A69BH         LINE#         2782
 C4:A69BH         LINE#         2783
 C4:A6A4H         LINE#         2784
 C4:A6A4H         LINE#         2785
 C4:A6A7H         LINE#         2786
 C4:A6A7H         LINE#         2811
 C4:A6B0H         LINE#         2812
 C4:A6B0H         LINE#         2814
 C4:A6B5H         LINE#         2815
 C4:A6B8H         LINE#         2816
 C4:A6B8H         LINE#         2817
 C4:A6C1H         LINE#         2818
 C4:A6C1H         LINE#         2819
 C4:A6CBH         LINE#         2820
 C4:A6CCH         LINE#         2821
 C4:A6D5H         LINE#         2822
 C4:A6D5H         LINE#         2823
 C4:A6F0H         LINE#         2824
 C4:A6F0H         LINE#         2826
 C4:A6FEH         LINE#         2827
 C4:A6FEH         LINE#         2828
 C4:A707H         LINE#         2829
 C4:A707H         LINE#         2830
BL51 BANKED LINKER/LOCATER V6.22                                                      01/10/2015  21:25:33  PAGE 212


 C4:A716H         LINE#         2835
 C4:A725H         LINE#         2836
 C4:A734H         LINE#         2837
 C4:A741H         LINE#         2838
 C4:A74EH         LINE#         2839
 C4:A75BH         LINE#         2840
 C4:A768H         LINE#         2841
 C4:A776H         LINE#         2848
 C4:A778H         LINE#         2849
 C4:A781H         LINE#         2850
 C4:A781H         LINE#         2851
 C4:A783H         LINE#         2852
 C4:A785H         LINE#         2853
 C4:A78EH         LINE#         2854
 C4:A78EH         LINE#         2855
 C4:A792H         LINE#         2856
 C4:A792H         LINE#         2858
 C4:A79BH         LINE#         2859
 C4:A79BH         LINE#         2860
 C4:A7A0H         LINE#         2861
 C4:A7A4H         LINE#         2862
 C4:A7A8H         LINE#         2863
 C4:A7A9H         LINE#         2864
 C4:A7B2H         LINE#         2865
 C4:A7B2H         LINE#         2866
 C4:A7B6H         LINE#         2867
 C4:A7BAH         LINE#         2868
 C4:A7C3H         LINE#         2869
 C4:A7C3H         LINE#         2870
 C4:A7CCH         LINE#         2871
 C4:A7CCH         LINE#         2872
 C4:A7D1H         LINE#         2873
 C4:A7D2H         LINE#         2874
 C4:A7DBH         LINE#         2875
 C4:A7DBH         LINE#         2876
 C4:A7DFH         LINE#         2877
 C4:A7E0H         LINE#         2879
 C4:A7E9H         LINE#         2880
 C4:A7E9H         LINE#         2881
 C4:A7EAH         LINE#         2882
 C4:A7ECH         LINE#         2883
 C4:A7F5H         LINE#         2884
 C4:A7F5H         LINE#         2885
 C4:A7FAH         LINE#         2886
 C4:A7FAH         LINE#         2888
 C4:A803H         LINE#         2889
 C4:A803H         LINE#         2890
 C4:A809H         LINE#         2891
 C4:A80DH         LINE#         2892
 C4:A813H         LINE#         2893
 C4:A819H         LINE#         2894
 C4:A81AH         LINE#         2895
 C4:A823H         LINE#         2896
 C4:A823H         LINE#         2898
 C4:A829H         LINE#         2899
 C4:A82CH         LINE#         2900
 C4:A832H         LINE#         2901
BL51 BANKED LINKER/LOCATER V6.22                                                      01/10/2015  21:25:33  PAGE 213


 C4:A838H         LINE#         2902
 C4:A83EH         LINE#         2904
 C4:A83FH         LINE#         2907
 C4:A848H         LINE#         2908
 C4:A848H         LINE#         2909
 C4:A84EH         LINE#         2910
 C4:A84FH         LINE#         2911
 C4:A858H         LINE#         2912
 C4:A858H         LINE#         2913
 C4:A85CH         LINE#         2914
 C4:A85DH         LINE#         2917
 C4:A866H         LINE#         2918
 C4:A866H         LINE#         2919
 C4:A870H         LINE#         2920
 C4:A871H         LINE#         2921
 C4:A87AH         LINE#         2922
 C4:A87AH         LINE#         2923
 C4:A884H         LINE#         2924
 C4:A885H         LINE#         3029
 C4:A88EH         LINE#         3030
 C4:A88EH         LINE#         3031
 C4:A8A4H         LINE#         3032
 C4:A8A4H         LINE#         3034
 C4:A8ADH         LINE#         3035
 C4:A8ADH         LINE#         3036
 C4:A8B2H         LINE#         3037
 C4:A8B3H         LINE#         3039
 C4:A8BCH         LINE#         3040
 C4:A8BCH         LINE#         3041
 C4:A8BEH         LINE#         3042
 C4:A8C0H         LINE#         3043
 C4:A8D2H         LINE#         3044
 C4:A8D2H         LINE#         3045
 C4:A8D6H         LINE#         3046
 C4:A8D6H         LINE#         3048
 C4:A8D6H         LINE#         3049
 C4:A8D9H         LINE#         3050
 C4:A8D9H         LINE#         3051
  -------         ENDPROC       _HHAL_CMDHALPROCESS

  -------         PROC BANK=4   _UPDATESTATISTICDATA
  X:3A0DH         SYMBOL        pPlcRxFrmSwDesc
  -------         DO            
  X:3A10H         SYMBOL        tmpFrmLen
  X:3A12H         SYMBOL        rxSeqNum
  X:3A13H         SYMBOL        curMissFrmCnt
  X:3A14H         SYMBOL        frmStart
  X:3A15H         SYMBOL        frmData
  X:3A16H         SYMBOL        bCorruptFrame
  X:3A17H         SYMBOL        bDemoMode
  X:3A18H         SYMBOL        bDuplicateFrame
  X:3A19H         SYMBOL        i
  X:3A1AH         SYMBOL        offset
  X:3A1BH         SYMBOL        tmpPayloadLen
  -------         DO            
  X:3A1DH         SYMBOL        j
  X:3A1EH         SYMBOL        descLen
BL51 BANKED LINKER/LOCATER V6.22                                                      01/10/2015  21:25:33  PAGE 214


  X:3A1FH         SYMBOL        cellAddr
  -------         DO            
  X:3A22H         SYMBOL        mode
  X:3A23H         SYMBOL        prevRxSN
  -------         ENDDO         
  -------         DO            
  X:3A22H         SYMBOL        flag
  -------         ENDDO         
  -------         ENDDO         
  -------         ENDDO         
 C4:C075H         LINE#         3053
 C4:C07BH         LINE#         3054
 C4:C07BH         LINE#         3071
 C4:C082H         LINE#         3072
 C4:C085H         LINE#         3073
 C4:C085H         LINE#         3074
 C4:C085H         LINE#         3075
 C4:C088H         LINE#         3076
 C4:C08EH         LINE#         3078
 C4:C0A2H         LINE#         3081
 C4:C0B8H         LINE#         3082
 C4:C0B8H         LINE#         3088
 C4:C0BBH         LINE#         3089
 C4:C0E6H         LINE#         3100
 C4:C10AH         LINE#         3105
 C4:C113H         LINE#         3106
 C4:C113H         LINE#         3107
 C4:C11BH         LINE#         3108
 C4:C131H         LINE#         3111
 C4:C137H         LINE#         3112
 C4:C137H         LINE#         3113
 C4:C13AH         LINE#         3114
 C4:C13CH         LINE#         3116
 C4:C13CH         LINE#         3117
 C4:C13FH         LINE#         3118
 C4:C13FH         LINE#         3131
 C4:C151H         LINE#         3132
 C4:C151H         LINE#         3133
 C4:C172H         LINE#         3135
 C4:C172H         LINE#         3136
 C4:C1A2H         LINE#         3139
 C4:C1BAH         LINE#         3141
 C4:C1C6H         LINE#         3142
 C4:C1C6H         LINE#         3143
 C4:C1ECH         LINE#         3145
 C4:C261H         LINE#         3146
 C4:C261H         LINE#         3147
 C4:C261H         LINE#         3150
 C4:C26DH         LINE#         3151
 C4:C26DH         LINE#         3152
 C4:C279H         LINE#         3156
 C4:C27FH         LINE#         3157
 C4:C27FH         LINE#         3159
 C4:C284H         LINE#         3160
 C4:C286H         LINE#         3163
 C4:C286H         LINE#         3164
 C4:C28BH         LINE#         3165
BL51 BANKED LINKER/LOCATER V6.22                                                      01/10/2015  21:25:33  PAGE 215


 C4:C293H         LINE#         3168
 C4:C299H         LINE#         3169
 C4:C29DH         LINE#         3170
 C4:C29DH         LINE#         3171
 C4:C29DH         LINE#         3172
 C4:C29DH         LINE#         3173
 C4:C2A5H         LINE#         3174
 C4:C2ABH         LINE#         3175
 C4:C2ABH         LINE#         3188
 C4:C2B1H         LINE#         3189
 C4:C2B1H         LINE#         3190
 C4:C2B5H         LINE#         3192
 C4:C2CBH         LINE#         3193
 C4:C2CBH         LINE#         3205
 C4:C2E2H         LINE#         3206
 C4:C2E2H         LINE#         3207
 C4:C2E6H         LINE#         3208
 C4:C2ECH         LINE#         3209
 C4:C2ECH         LINE#         3211
 C4:C2EEH         LINE#         3212
 C4:C2EEH         LINE#         3213
 C4:C2EEH         LINE#         3214
 C4:C2FDH         LINE#         3226
 C4:C305H         LINE#         3227
 C4:C305H         LINE#         3239
 C4:C315H         LINE#         3240
 C4:C327H         LINE#         3241
 C4:C330H         LINE#         3258
  -------         ENDPROC       _UPDATESTATISTICDATA

  -------         PROC BANK=4   _HHT_PROCESSPLCMACFRAME
  X:3A01H         SYMBOL        pPlcRxFrmSwDesc
  -------         DO            
  X:3A04H         SYMBOL        tmpFrmLen
  X:3A06H         SYMBOL        frmData
  X:3A07H         SYMBOL        bCorruptFrame
  X:3A08H         SYMBOL        bDemoMode
  X:3A09H         SYMBOL        bDuplicateFrame
  X:3A0AH         SYMBOL        i
  X:3A0BH         SYMBOL        tmpPayloadLen
  -------         ENDDO         
 C4:DABEH         LINE#         3263
 C4:DAC4H         LINE#         3264
 C4:DAC4H         LINE#         3278
 C4:DAC8H         LINE#         3279
 C4:DAC8H         LINE#         3280
 C4:DACBH         LINE#         3281
 C4:DACDH         LINE#         3282
 C4:DACFH         LINE#         3283
 C4:DAD5H         LINE#         3406
 C4:DAE0H         LINE#         3408
 C4:DAE0H         LINE#         3409
 C4:DAE9H         LINE#         3410
 C4:DAE9H         LINE#         3413
 C4:DAFDH         LINE#         3414
 C4:DAFDH         LINE#         3415
 C4:DB0AH         LINE#         3416
BL51 BANKED LINKER/LOCATER V6.22                                                      01/10/2015  21:25:33  PAGE 216


 C4:DB12H         LINE#         3419
 C4:DB18H         LINE#         3420
 C4:DB18H         LINE#         3421
 C4:DB24H         LINE#         3423
 C4:DB24H         LINE#         3425
 C4:DB24H         LINE#         3426
 C4:DB35H         LINE#         3427
 C4:DB35H         LINE#         3428
 C4:DB3EH         LINE#         3430
 C4:DB56H         LINE#         3434
 C4:DB56H         LINE#         3435
 C4:DB56H         LINE#         3437
  -------         ENDPROC       _HHT_PROCESSPLCMACFRAME

  -------         PROC BANK=4   _HHT_PROCESSBCNHLE
  X:3A1AH         SYMBOL        bcn
  -------         DO            
  X:3A1DH         SYMBOL        pRxBcnHdr
  X:3A20H         SYMBOL        pFrmCtrlBlk
  X:3A23H         SYMBOL        rxBcn
  X:3A26H         SYMBOL        pBcnHdr
  X:3A29H         SYMBOL        pBeHdr
  -------         ENDDO         
 C4:DD08H         LINE#         3514
 C4:DD0EH         LINE#         3515
 C4:DD0EH         LINE#         3519
 C4:DD1AH         LINE#         3520
 C4:DD1DH         LINE#         3522
 C4:DD23H         LINE#         3523
 C4:DD29H         LINE#         3524
 C4:DD39H         LINE#         3525
 C4:DD3FH         LINE#         3526
 C4:DD4AH         LINE#         3527
 C4:DD5EH         LINE#         3528
 C4:DD5EH         LINE#         3529
 C4:DD6AH         LINE#         3530
 C4:DD6AH         LINE#         3531
 C4:DD77H         LINE#         3532
 C4:DD77H         LINE#         3533
 C4:DD87H         LINE#         3534
 C4:DD87H         LINE#         3535
 C4:DD87H         LINE#         3536
 C4:DD87H         LINE#         3537
  -------         ENDPROC       _HHT_PROCESSBCNHLE
 C4:AC8FH         SYMBOL        L?0619
 C4:AC9AH         SYMBOL        L?0638
 C4:ACA3H         SYMBOL        L?0640
 C4:ACAEH         SYMBOL        L?0656
 C4:ACB7H         SYMBOL        L?0676
 C4:ACC2H         SYMBOL        L?0686
 C4:ACCAH         SYMBOL        L?0693

  -------         PROC BANK=4   HHAL_DISPLAYPLCSTAT
  -------         DO            
  X:3AEBH         SYMBOL        outStandingDescCnt
  X:3AEDH         SYMBOL        totalDesc
  D:0006H         SYMBOL        freeDescCnt
BL51 BANKED LINKER/LOCATER V6.22                                                      01/10/2015  21:25:33  PAGE 217


  -------         ENDDO         
 C4:A8DAH         LINE#         3540
 C4:A8DAH         LINE#         3541
 C4:A8DAH         LINE#         3544
 C4:A8E3H         LINE#         3545
 C4:A926H         LINE#         3547
 C4:A939H         LINE#         3549
 C4:A94CH         LINE#         3550
 C4:A94CH         LINE#         3551
 C4:A950H         LINE#         3553
 C4:A960H         LINE#         3557
 C4:A96FH         LINE#         3559
 C4:A97EH         LINE#         3563
 C4:A98DH         LINE#         3564
 C4:A999H         LINE#         3566
 C4:A999H         LINE#         3570
 C4:A9A9H         LINE#         3573
 C4:A9B8H         LINE#         3574
 C4:A9C7H         LINE#         3576
 C4:A9D6H         LINE#         3577
 C4:A9E5H         LINE#         3578
 C4:A9E5H         LINE#         3580
 C4:A9E8H         LINE#         3584
 C4:A9F0H         LINE#         3585
 C4:A9F0H         LINE#         3586
 C4:A9F4H         LINE#         3587
 C4:AA04H         LINE#         3588
 C4:AA13H         LINE#         3589
 C4:AA22H         LINE#         3590
 C4:AA31H         LINE#         3591
 C4:AA40H         LINE#         3592
 C4:AA40H         LINE#         3594
 C4:AA43H         LINE#         3598
 C4:AA4CH         LINE#         3599
 C4:AA60H         LINE#         3601
 C4:AA74H         LINE#         3602
 C4:AA88H         LINE#         3604
 C4:AA9CH         LINE#         3606
 C4:AAADH         LINE#         3609
 C4:AAADH         LINE#         3613
 C4:AABDH         LINE#         3614
 C4:AAD1H         LINE#         3616
 C4:AAE0H         LINE#         3618
 C4:AAEFH         LINE#         3619
 C4:AAFEH         LINE#         3620
 C4:AB0AH         LINE#         3623
 C4:AB0AH         LINE#         3627
 C4:AB1AH         LINE#         3628
 C4:AB24H         LINE#         3629
 C4:AB33H         LINE#         3630
 C4:AB42H         LINE#         3631
 C4:AB4EH         LINE#         3633
 C4:AB4EH         LINE#         3637
 C4:AB5EH         LINE#         3638
 C4:AB6DH         LINE#         3639
 C4:AB7CH         LINE#         3640
 C4:AB86H         LINE#         3641
BL51 BANKED LINKER/LOCATER V6.22                                                      01/10/2015  21:25:33  PAGE 218


 C4:AB90H         LINE#         3643
 C4:AB93H         LINE#         3647
 C4:ABA4H         LINE#         3648
 C4:ABB3H         LINE#         3649
 C4:ABC2H         LINE#         3650
 C4:ABCEH         LINE#         3652
 C4:ABCEH         LINE#         3656
 C4:ABDEH         LINE#         3657
 C4:ABEDH         LINE#         3658
 C4:ABFCH         LINE#         3659
 C4:AC0BH         LINE#         3660
 C4:AC17H         LINE#         3662
 C4:AC17H         LINE#         3667
 C4:AC21H         LINE#         3668
 C4:AC2BH         LINE#         3669
 C4:AC35H         LINE#         3670
 C4:AC3FH         LINE#         3671
 C4:AC50H         LINE#         3674
 C4:AC53H         LINE#         3678
 C4:AC62H         LINE#         3679
 C4:AC71H         LINE#         3680
 C4:AC80H         LINE#         3681
 C4:AC8FH         LINE#         3682
  -------         ENDPROC       HHAL_DISPLAYPLCSTAT
  -------         ENDMOD        HHAL_TST

  -------         MODULE        HAL_ETH
  C:0000H         SYMBOL        _ICE_DUMMY_
 C4:E554H         PUBLIC        EHAL_IsTxReady
 C4:E462H         PUBLIC        EHAL_GetEthTxQFreeDescCnt
 C4:DF45H         PUBLIC        _ConnExistMaster
 C4:CBF3H         PUBLIC        EHAL_Init
  B:00B0H.7       PUBLIC        RD
  X:44E3H         PUBLIC        ethTxDone
 C4:D837H         PUBLIC        EHAL_DisplayEthStat
 C4:DFA9H         PUBLIC        _ConnExistSlave
 C4:E2B2H         PUBLIC        EHAL_ResetStat
  X:44E4H         PUBLIC        gEthHalCB
 C4:E4F2H         PUBLIC        EHAL_EthSendPause
 C4:CFB9H         PUBLIC        _EHAL_EthPhyRegOp
 C4:E56CH         PUBLIC        EHAL_ReleaseEthTxCPIntHandler
  C:720BH         SYMBOL        _?ix1000
 C4:E527H         PUBLIC        EHAL_Clear_ethHWStat
 C4:C91CH         PUBLIC        _EHAL_EthTxQWrite
 C4:E1EAH         PUBLIC        EHAL_DoRelEthTxCP
 C4:E2EFH         PUBLIC        _EHAL_ReadEthStatReg
 C4:CD3DH         PUBLIC        EHAL_Print_ethHWStat
 C4:DC83H         SYMBOL        Com0048
 C4:DC83H         SYMBOL        L?0073
 C4:DC94H         SYMBOL        L?0074
 C4:DCA0H         SYMBOL        L?0077
 C4:DCA5H         SYMBOL        L?0078
 C4:DCABH         SYMBOL        L?0080
 C4:DCAFH         SYMBOL        L?0081
 C4:DCB0H         SYMBOL        L?0082
 C4:DCB7H         SYMBOL        L?0085
 C4:DCC4H         SYMBOL        L?0086
BL51 BANKED LINKER/LOCATER V6.22                                                      01/10/2015  21:25:33  PAGE 219


 C4:DCD0H         SYMBOL        L?0088
 C4:DCDBH         SYMBOL        L?0089
 C4:DCE5H         SYMBOL        L?0090
 C4:DCEFH         SYMBOL        L?0091
 C4:DCF9H         SYMBOL        L?0092
 C4:DCF9H         SYMBOL        L?0093
 C4:DCFFH         SYMBOL        L?0094
  -------         PROC          COM0048
  -------         ENDPROC       COM0048

  -------         PROC BANK=4   EHAL_CLEAR_ETHHWSTAT
 C4:E527H         LINE#         89
 C4:E527H         LINE#         90
 C4:E527H         LINE#         91
 C4:E52DH         LINE#         92
  -------         ENDPROC       EHAL_CLEAR_ETHHWSTAT
 C4:CE35H         SYMBOL        L?0075
 C4:CE3FH         SYMBOL        L?0076
 C4:CE5DH         SYMBOL        L?0083
 C4:CE67H         SYMBOL        L?0084
 C4:CE75H         SYMBOL        L?0087

  -------         PROC BANK=4   EHAL_PRINT_ETHHWSTAT
  -------         DO            
  X:36E2H         SYMBOL        i
  -------         ENDDO         
 C4:CD3DH         LINE#         96
 C4:CD3DH         LINE#         97
 C4:CD3DH         LINE#         100
 C4:CD46H         LINE#         101
 C4:CD55H         LINE#         102
 C4:CD55H         LINE#         103
 C4:CDB1H         LINE#         104
 C4:CDBAH         LINE#         105
 C4:CDC3H         LINE#         106
 C4:CDD3H         LINE#         107
 C4:CDD3H         LINE#         108
 C4:CE2BH         LINE#         109
 C4:CE34H         LINE#         110
  -------         ENDPROC       EHAL_PRINT_ETHHWSTAT

  -------         PROC BANK=4   EHAL_ETHSENDPAUSE
  -------         DO            
  D:0007H         SYMBOL        pause_Flag
  -------         ENDDO         
 C4:E4F2H         LINE#         113
 C4:E4F2H         LINE#         114
 C4:E4F2H         LINE#         115
 C4:E4F4H         LINE#         117
 C4:E4FAH         LINE#         118
 C4:E4FEH         LINE#         119
 C4:E503H         LINE#         120
  -------         ENDPROC       EHAL_ETHSENDPAUSE

  -------         PROC BANK=4   EHAL_DORELETHTXCP
  -------         DO            
  X:392CH         SYMBOL        ethTxFreeCPCnt
BL51 BANKED LINKER/LOCATER V6.22                                                      01/10/2015  21:25:33  PAGE 220


  X:3930H         SYMBOL        ethTxRelCPQ
  X:3934H         SYMBOL        i
  -------         ENDDO         
 C4:E1EAH         LINE#         123
 C4:E1EAH         LINE#         124
 C4:E1EAH         LINE#         130
 C4:E1EAH         LINE#         131
 C4:E1EAH         LINE#         132
 C4:E1F6H         LINE#         133
 C4:E1FEH         LINE#         134
 C4:E1FEH         LINE#         138
 C4:E212H         LINE#         139
 C4:E212H         LINE#         140
 C4:E21EH         LINE#         141
 C4:E228H         LINE#         142
 C4:E230H         LINE#         143
 C4:E230H         LINE#         144
  -------         ENDPROC       EHAL_DORELETHTXCP

  -------         PROC BANK=4   _EHAL_ETHPHYREGOP
  X:3922H         SYMBOL        phyAddr
  X:3923H         SYMBOL        addr
  D:0001H         SYMBOL        pData
  X:3927H         SYMBOL        regOp
  -------         DO            
  X:3928H         SYMBOL        status
  X:3929H         SYMBOL        ethMacMdioCmd
  X:392DH         SYMBOL        ethMacMdioStat
  X:3931H         SYMBOL        i
  -------         ENDDO         
 C4:CFB9H         LINE#         162
 C4:CFC1H         LINE#         163
 C4:CFC1H         LINE#         164
 C4:CFC7H         LINE#         171
 C4:CFC9H         LINE#         174
 C4:CFCCH         LINE#         175
 C4:CFD1H         LINE#         176
 C4:CFD1H         LINE#         177
 C4:CFD1H         LINE#         178
 C4:CFD7H         LINE#         179
 C4:CFD7H         LINE#         181
 C4:CFDEH         LINE#         182
 C4:CFDEH         LINE#         183
 C4:CFE1H         LINE#         184
 C4:CFE1H         LINE#         187
 C4:CFEBH         LINE#         190
 C4:CFFAH         LINE#         191
 C4:D00EH         LINE#         192
 C4:D013H         LINE#         194
 C4:D01CH         LINE#         195
 C4:D01CH         LINE#         196
 C4:D020H         LINE#         197
 C4:D022H         LINE#         198
 C4:D022H         LINE#         199
 C4:D026H         LINE#         200
 C4:D02DH         LINE#         201
 C4:D037H         LINE#         202
BL51 BANKED LINKER/LOCATER V6.22                                                      01/10/2015  21:25:33  PAGE 221


 C4:D037H         LINE#         203
 C4:D03EH         LINE#         205
 C4:D046H         LINE#         206
 C4:D04EH         LINE#         207
 C4:D056H         LINE#         208
 C4:D05EH         LINE#         210
 C4:D061H         LINE#         211
 C4:D066H         LINE#         212
 C4:D066H         LINE#         215
 C4:D066H         LINE#         216
 C4:D06CH         LINE#         217
 C4:D06CH         LINE#         218
 C4:D06CH         LINE#         219
 C4:D06CH         LINE#         221
 C4:D07DH         LINE#         222
 C4:D07DH         LINE#         225
 C4:D080H         LINE#         226
 C4:D080H         LINE#         229
 C4:D086H         LINE#         230
 C4:D086H         LINE#         233
 C4:D090H         LINE#         234
 C4:D098H         LINE#         235
 C4:D0A0H         LINE#         236
 C4:D0A8H         LINE#         237
 C4:D0B0H         LINE#         239
 C4:D0B4H         LINE#         240
 C4:D0B4H         LINE#         242
 C4:D0B7H         LINE#         243
 C4:D0B7H         LINE#         244
 C4:D0BEH         LINE#         245
 C4:D0C8H         LINE#         246
 C4:D0C8H         LINE#         249
 C4:D0CDH         LINE#         250
  -------         ENDPROC       _EHAL_ETHPHYREGOP

  -------         PROC BANK=4   EHAL_INIT
  -------         DO            
  X:390FH         SYMBOL        ethPhyStat
  X:3911H         SYMBOL        ethMacTxCtl1
  X:3912H         SYMBOL        ethMacRxCtl
  X:3913H         SYMBOL        ethRxEnd
  X:3917H         SYMBOL        ethMacPrtEmtThres
  X:3918H         SYMBOL        ethMacPrtFulThres
  X:3919H         SYMBOL        ethMacTxBufSz
  X:391AH         SYMBOL        i
  X:391BH         SYMBOL        status
  X:391CH         SYMBOL        ethMacAddr
  D:0007H         SYMBOL        seedVal
  -------         ENDDO         
 C4:CBF3H         LINE#         253
 C4:CBF3H         LINE#         254
 C4:CBF3H         LINE#         268
 C4:CC06H         LINE#         269
 C4:CC0CH         LINE#         274
 C4:CC11H         LINE#         275
 C4:CC37H         LINE#         278
 C4:CC3DH         LINE#         279
BL51 BANKED LINKER/LOCATER V6.22                                                      01/10/2015  21:25:33  PAGE 222


 C4:CC41H         LINE#         281
 C4:CC47H         LINE#         282
 C4:CC4BH         LINE#         284
 C4:CC51H         LINE#         285
 C4:CC55H         LINE#         286
 C4:CC5AH         LINE#         287
 C4:CC60H         LINE#         288
 C4:CC66H         LINE#         291
 C4:CC75H         LINE#         292
 C4:CC75H         LINE#         293
 C4:CC8DH         LINE#         294
 C4:CC90H         LINE#         295
 C4:CC90H         LINE#         296
 C4:CCB8H         LINE#         297
 C4:CCC0H         LINE#         298
 C4:CCC2H         LINE#         299
 C4:CCC2H         LINE#         300
 C4:CCCAH         LINE#         302
 C4:CCD1H         LINE#         303
 C4:CCD1H         LINE#         304
 C4:CCDEH         LINE#         306
 C4:CCDEH         LINE#         307
 C4:CCE5H         LINE#         308
 C4:CCE5H         LINE#         310
 C4:CCEAH         LINE#         311
 C4:CCEEH         LINE#         312
 C4:CCF2H         LINE#         313
 C4:CCF7H         LINE#         315
 C4:CCFCH         LINE#         316
 C4:CD00H         LINE#         317
 C4:CD04H         LINE#         318
 C4:CD08H         LINE#         319
 C4:CD0CH         LINE#         320
 C4:CD11H         LINE#         321
 C4:CD11H         LINE#         323
 C4:CD11H         LINE#         325
 C4:CD11H         LINE#         327
 C4:CD1BH         LINE#         328
 C4:CD22H         LINE#         329
 C4:CD2BH         LINE#         330
 C4:CD2EH         LINE#         331
  -------         ENDPROC       EHAL_INIT

  -------         PROC BANK=4   _EHAL_READETHSTATREG
  D:0007H         SYMBOL        reg_addr
  -------         DO            
  X:36E3H         SYMBOL        stat
  D:0001H         SYMBOL        pStat
  -------         ENDDO         
 C4:E2EFH         LINE#         335
 C4:E2EFH         LINE#         336
 C4:E2EFH         LINE#         339
 C4:E2F5H         LINE#         341
 C4:E2FAH         LINE#         343
 C4:E301H         LINE#         344
 C4:E30BH         LINE#         345
 C4:E315H         LINE#         346
BL51 BANKED LINKER/LOCATER V6.22                                                      01/10/2015  21:25:33  PAGE 223


 C4:E31FH         LINE#         348
 C4:E325H         LINE#         350
  -------         ENDPROC       _EHAL_READETHSTATREG

  -------         PROC BANK=4   EHAL_GETETHTXQFREEDESCCNT
  -------         DO            
  X:3BA1H         SYMBOL        ethTxQDescCnt
  D:0007H         SYMBOL        freeDescCnt
  -------         ENDDO         
 C4:E462H         LINE#         354
 C4:E462H         LINE#         355
 C4:E462H         LINE#         360
 C4:E46EH         LINE#         361
 C4:E47AH         LINE#         363
 C4:E47AH         LINE#         365
  -------         ENDPROC       EHAL_GETETHTXQFREEDESCCNT

  -------         PROC BANK=4   _EHAL_ETHTXQWRITE
  X:3B91H         SYMBOL        pEthTxFrmSwDesc
  -------         DO            
  X:3B94H         SYMBOL        mycnt
  X:3B96H         SYMBOL        frmDescCnt
  X:3B97H         SYMBOL        status
  -------         DO            
  X:3B98H         SYMBOL        pktQDesc1
  X:3B9CH         SYMBOL        pktQDescCP
  X:3BA0H         SYMBOL        i
  -------         ENDDO         
  -------         ENDDO         
 C4:C91CH         LINE#         369
 C4:C922H         LINE#         370
 C4:C922H         LINE#         371
 C4:C929H         LINE#         375
 C4:C92DH         LINE#         377
 C4:C938H         LINE#         378
 C4:C93DH         LINE#         382
 C4:C94DH         LINE#         383
 C4:C94DH         LINE#         392
 C4:C957H         LINE#         395
 C4:C969H         LINE#         396
 C4:C973H         LINE#         410
 C4:C97AH         LINE#         413
 C4:C981H         LINE#         425
 C4:C987H         LINE#         436
 C4:C99EH         LINE#         437
 C4:C99EH         LINE#         438
 C4:C9A8H         LINE#         439
 C4:C9C0H         LINE#         440
 C4:C9D6H         LINE#         441
 C4:C9DDH         LINE#         446
 C4:C9EDH         LINE#         447
 C4:C9EDH         LINE#         448
 C4:C9F4H         LINE#         449
 C4:C9F4H         LINE#         450
 C4:CA0EH         LINE#         454
 C4:CA14H         LINE#         479
 C4:CA1DH         LINE#         494
BL51 BANKED LINKER/LOCATER V6.22                                                      01/10/2015  21:25:33  PAGE 224


 C4:CA36H         LINE#         495
 C4:CA64H         LINE#         501
 C4:CA66H         LINE#         503
 C4:CA66H         LINE#         505
 C4:CA6CH         LINE#         506
 C4:CA70H         LINE#         507
 C4:CA89H         LINE#         512
 C4:CA89H         LINE#         513
 C4:CA8EH         LINE#         515
  -------         ENDPROC       _EHAL_ETHTXQWRITE

  -------         PROC BANK=4   EHAL_ISTXREADY
 C4:E554H         LINE#         520
 C4:E554H         LINE#         521
 C4:E554H         LINE#         523
 C4:E55CH         LINE#         524
 C4:E55CH         LINE#         526
 C4:E55FH         LINE#         527
 C4:E55FH         LINE#         529
 C4:E561H         LINE#         530
  -------         ENDPROC       EHAL_ISTXREADY

  -------         PROC BANK=4   EHAL_RESETSTAT
 C4:E2B2H         LINE#         532
 C4:E2B2H         LINE#         533
 C4:E2B2H         LINE#         536
 C4:E2BCH         LINE#         537
 C4:E2C6H         LINE#         540
 C4:E2D0H         LINE#         541
 C4:E2DAH         LINE#         544
 C4:E2E4H         LINE#         545
 C4:E2EEH         LINE#         547
  -------         ENDPROC       EHAL_RESETSTAT
 C4:D8C1H         SYMBOL        L?0071
 C4:D8D0H         SYMBOL        L?0079

  -------         PROC BANK=4   EHAL_DISPLAYETHSTAT
  -------         DO            
  X:3AEBH         SYMBOL        outStandingDescCnt
  -------         ENDDO         
 C4:D837H         LINE#         549
 C4:D837H         LINE#         550
 C4:D837H         LINE#         554
 C4:D849H         LINE#         556
 C4:D855H         LINE#         557
 C4:D855H         LINE#         558
 C4:D85EH         LINE#         559
 C4:D868H         LINE#         560
 C4:D872H         LINE#         561
 C4:D872H         LINE#         563
 C4:D87EH         LINE#         564
 C4:D87EH         LINE#         565
 C4:D887H         LINE#         566
 C4:D891H         LINE#         567
 C4:D89BH         LINE#         568
 C4:D89BH         LINE#         569
 C4:D8B0H         LINE#         570
BL51 BANKED LINKER/LOCATER V6.22                                                      01/10/2015  21:25:33  PAGE 225


 C4:D8C1H         LINE#         573
  -------         ENDPROC       EHAL_DISPLAYETHSTAT

  -------         PROC BANK=4   _CONNEXISTSLAVE
  X:45FDH         SYMBOL        MACaddr
  X:4600H         SYMBOL        StationId
  -------         DO            
  X:4603H         SYMBOL        firstFreeConn
  X:4604H         SYMBOL        i
  -------         ENDDO         
 C4:DFA9H         LINE#         583
 C4:DFAFH         LINE#         584
 C4:DFAFH         LINE#         585
 C4:DFB5H         LINE#         588
 C4:DFC2H         LINE#         589
 C4:DFC2H         LINE#         590
 C4:DFDCH         LINE#         592
 C4:DFDCH         LINE#         593
 C4:DFE2H         LINE#         594
 C4:DFE5H         LINE#         595
 C4:DFE5H         LINE#         596
 C4:DFE5H         LINE#         597
 C4:DFECH         LINE#         598
 C4:DFF2H         LINE#         599
 C4:DFF2H         LINE#         600
 C4:DFFAH         LINE#         601
 C4:E004H         LINE#         602
 C4:E006H         LINE#         603
  -------         ENDPROC       _CONNEXISTSLAVE

  -------         PROC BANK=4   _CONNEXISTMASTER
  X:45A4H         SYMBOL        masterMACaddr
  X:45A7H         SYMBOL        slaveMACaddr
  X:45AAH         SYMBOL        StationId
  -------         DO            
  X:45ADH         SYMBOL        firstFreeConn
  X:45AEH         SYMBOL        i
  -------         ENDDO         
 C4:DF45H         LINE#         612
 C4:DF4BH         LINE#         613
 C4:DF4BH         LINE#         614
 C4:DF51H         LINE#         617
 C4:DF5EH         LINE#         618
 C4:DF5EH         LINE#         619
 C4:DF82H         LINE#         621
 C4:DF82H         LINE#         622
 C4:DF88H         LINE#         623
 C4:DF8BH         LINE#         624
 C4:DF8BH         LINE#         625
 C4:DF8BH         LINE#         626
 C4:DF92H         LINE#         627
 C4:DF98H         LINE#         628
 C4:DF98H         LINE#         629
 C4:DFA0H         LINE#         630
 C4:DFA6H         LINE#         631
 C4:DFA8H         LINE#         632
  -------         ENDPROC       _CONNEXISTMASTER
BL51 BANKED LINKER/LOCATER V6.22                                                      01/10/2015  21:25:33  PAGE 226


  -------         PROC          EHAL_RELEASEETHTXCPINTHANDLER
 C4:E56CH         LINE#         636
 C4:E56CH         LINE#         637
 C4:E56CH         LINE#         639
 C4:E56FH         LINE#         640
 C4:E575H         LINE#         645
  -------         ENDPROC       EHAL_RELEASEETHTXCPINTHANDLER
  -------         ENDMOD        HAL_ETH

  -------         MODULE        HHAL_LED
  C:0000H         SYMBOL        _ICE_DUMMY_
  X:4680H         PUBLIC        led_demo_pkt_retry
 C4:E576H         PUBLIC        _HHT_DemoModeRx
 C4:E516H         PUBLIC        _HHT_DemoModeTx
  X:4681H         PUBLIC        led_demo_tx_drop
 C4:E57FH         PUBLIC        _HHT_TxLedDemo
 C4:E536H         PUBLIC        _HHT_LedDemoTxMenu

  -------         PROC BANK=4   _HHT_DEMOMODETX
  X:4653H         SYMBOL        demoFrm
  X:4656H         SYMBOL        frmLen
 C4:E516H         LINE#         37
 C4:E524H         LINE#         38
 C4:E524H         LINE#         109
 C4:E526H         LINE#         110
  -------         ENDPROC       _HHT_DEMOMODETX

  -------         PROC BANK=4   _HHT_TXLEDDEMO
  X:4677H         SYMBOL        payload_p
 C4:E57FH         LINE#         112
  -------         ENDPROC       _HHT_TXLEDDEMO

  -------         PROC BANK=4   _HHT_LEDDEMOTXMENU
  X:467AH         SYMBOL        CmdBuf
 C4:E536H         LINE#         134
 C4:E53CH         LINE#         135
 C4:E53CH         LINE#         177
  -------         ENDPROC       _HHT_LEDDEMOTXMENU

  -------         PROC BANK=4   _HHT_DEMOMODERX
  X:467DH         SYMBOL        demoFrm
  -------         DO            
  D:0007H         SYMBOL        bDemoMode
  -------         ENDDO         
 C4:E576H         LINE#         181
 C4:E57CH         LINE#         182
 C4:E57CH         LINE#         183
 C4:E57EH         LINE#         197
 C4:E57EH         LINE#         198
  -------         ENDPROC       _HHT_DEMOMODERX
  -------         ENDMOD        HHAL_LED

  -------         MODULE        HAL_SPI
  C:0000H         SYMBOL        _ICE_DUMMY_
 C4:E272H         PUBLIC        hal_spi_tx_done_handler
 C4:E326H         PUBLIC        hal_spi_tx_cleanup
 C4:DBEEH         PUBLIC        _hal_spi_tx_direct
BL51 BANKED LINKER/LOCATER V6.22                                                      01/10/2015  21:25:33  PAGE 227


  X:44BDH         PUBLIC        spi_tx_flag
 C4:E3D6H         PUBLIC        hal_spi_cmd_len_rx_rdy
 C4:E231H         PUBLIC        hal_spi_stats_show
  X:44BEH         PUBLIC        spi_rx_state
 C4:D1D0H         PUBLIC        _hal_spi_frame_rx
 C4:E0B5H         PUBLIC        _hal_spi_setup_rx_buffer
  X:44BFH         PUBLIC        spi_tx_time
 C4:D616H         PUBLIC        _hal_spi_set_dma_mode
 C4:E3FAH         PUBLIC        hal_spi_payload_rx_rdy
 C4:E588H         PUBLIC        hal_spi_cleanup
  X:44C3H         PUBLIC        spi_payload_rx_pending
 C4:C331H         PUBLIC        _hal_spi_tx_dma
 C4:E585H         PUBLIC        hal_spi_set_rx_cmd_len_rdy
 C4:E504H         PUBLIC        hal_spi_cmd_len_rx_not_rdy
 C4:E41EH         PUBLIC        hal_spi_slave_tx_req
 C4:DA21H         PUBLIC        _hal_spi_set_rx_payload_rdy
  X:44C4H         SYMBOL        mRdyPollCnt
 C4:E545H         PUBLIC        hal_spi_clear_stats
 C4:E494H         PUBLIC        _hal_spi_get_rx_stats
 C4:E3B0H         PUBLIC        _hal_spi_get_rx_errors_stats
 C4:E4ACH         PUBLIC        _hal_spi_get_tx_stats
 C4:D8DFH         PUBLIC        hal_spi_isTxReady
 C4:E4DBH         PUBLIC        _hal_spi_get_tx_errors_stats
 C4:DE04H         PUBLIC        hal_spi_prepare_rx_cmd_engine
  X:44C5H         PUBLIC        hal_spi_stats
 C4:C76FH         PUBLIC        _hal_spi_tx_dma_cp
 C4:D983H         PUBLIC        _hal_spi_set_direct_mode
 C4:D2BEH         PUBLIC        hal_spi_init
 C4:CE81H         PUBLIC        hal_spi_rx_done_handler
 C4:E152H         PUBLIC        hal_spi_rx_cleanup
 C4:C5ABH         SYMBOL        Com006F
 C4:C5ABH         SYMBOL        L?0112
 C4:C5AEH         SYMBOL        L?0113
 C4:C5B9H         SYMBOL        L?0114
 C4:C5C0H         SYMBOL        L?0115
 C4:C5C5H         SYMBOL        L?0116
 C4:C5DAH         SYMBOL        L?0117
 C4:C5EAH         SYMBOL        L?0118
 C4:C5EEH         SYMBOL        L?0119
 C4:C5F0H         SYMBOL        L?0120
 C4:C5F7H         SYMBOL        L?0121
 C4:C5F7H         SYMBOL        L?0122
 C4:C603H         SYMBOL        L?0123
 C4:C60CH         SYMBOL        L?0124
 C4:C60CH         SYMBOL        L?0125
 C4:C623H         SYMBOL        L?0126
 C4:C62BH         SYMBOL        L?0127
 C4:C632H         SYMBOL        L?0128
 C4:C644H         SYMBOL        L?0129
 C4:C659H         SYMBOL        L?0130
 C4:C65FH         SYMBOL        L?0131
 C4:C661H         SYMBOL        L?0132
 C4:C667H         SYMBOL        L?0133
 C4:C66DH         SYMBOL        L?0134
 C4:C66DH         SYMBOL        L?0135
 C4:C66EH         SYMBOL        L?0136
 C4:C674H         SYMBOL        L?0137
BL51 BANKED LINKER/LOCATER V6.22                                                      01/10/2015  21:25:33  PAGE 228


 C4:C692H         SYMBOL        L?0138
 C4:C692H         SYMBOL        L?0139
 C4:C695H         SYMBOL        L?0140
 C4:C69BH         SYMBOL        L?0141
 C4:C69DH         SYMBOL        L?0142
 C4:C6A5H         SYMBOL        L?0143
 C4:C6A5H         SYMBOL        L?0144
 C4:C6A7H         SYMBOL        L?0145
 C4:C6AEH         SYMBOL        L?0146
 C4:C6B6H         SYMBOL        L?0147
 C4:C6BAH         SYMBOL        L?0148
 C4:C6C2H         SYMBOL        L?0149
 C4:C6C9H         SYMBOL        L?0150
 C4:C6D1H         SYMBOL        L?0151
 C4:C6D9H         SYMBOL        L?0152
 C4:C6DCH         SYMBOL        L?0153
 C4:C6E2H         SYMBOL        L?0154
 C4:C6EFH         SYMBOL        L?0155
 C4:C6FCH         SYMBOL        L?0156
 C4:C708H         SYMBOL        L?0158
 C4:C713H         SYMBOL        L?0159
 C4:C71BH         SYMBOL        L?0160
 C4:C727H         SYMBOL        L?0161
 C4:C729H         SYMBOL        L?0162
 C4:C72FH         SYMBOL        L?0163
 C4:C730H         SYMBOL        L?0164
 C4:C737H         SYMBOL        L?0165
 C4:C73FH         SYMBOL        L?0166
 C4:C74AH         SYMBOL        L?0167
 C4:C754H         SYMBOL        L?0168
 C4:C75DH         SYMBOL        L?0169
 C4:C75DH         SYMBOL        L?0170
 C4:C763H         SYMBOL        L?0171
 C4:C763H         SYMBOL        L?0172
 C4:C769H         SYMBOL        L?0173
 C4:C769H         SYMBOL        L?0174
  -------         PROC          COM006F
  -------         ENDPROC       COM006F

  -------         PROC BANK=4   HAL_SPI_STATS_SHOW
 C4:E231H         LINE#         69
 C4:E231H         LINE#         70
 C4:E231H         LINE#         71
 C4:E24AH         LINE#         75
  -------         ENDPROC       HAL_SPI_STATS_SHOW

  -------         PROC BANK=4   _HAL_SPI_SETUP_RX_BUFFER
  X:393AH         SYMBOL        data_size
  -------         DO            
  X:393CH         SYMBOL        desc_value
  -------         ENDDO         
 C4:E0B5H         LINE#         82
 C4:E0BDH         LINE#         83
 C4:E0BDH         LINE#         86
 C4:E0C5H         LINE#         87
 C4:E0DAH         LINE#         97
 C4:E0EFH         LINE#         101
BL51 BANKED LINKER/LOCATER V6.22                                                      01/10/2015  21:25:33  PAGE 229


 C4:E0F5H         LINE#         106
 C4:E0FFH         LINE#         107
  -------         ENDPROC       _HAL_SPI_SETUP_RX_BUFFER

  -------         PROC BANK=4   HAL_SPI_CMD_LEN_RX_RDY
 C4:E3D6H         LINE#         110
 C4:E3D6H         LINE#         111
 C4:E3D6H         LINE#         112
 C4:E3E8H         LINE#         113
  -------         ENDPROC       HAL_SPI_CMD_LEN_RX_RDY

  -------         PROC BANK=4   HAL_SPI_CMD_LEN_RX_NOT_RDY
 C4:E504H         LINE#         117
 C4:E504H         LINE#         118
 C4:E504H         LINE#         124
  -------         ENDPROC       HAL_SPI_CMD_LEN_RX_NOT_RDY

  -------         PROC BANK=4   HAL_SPI_PAYLOAD_RX_RDY
 C4:E3FAH         LINE#         127
 C4:E3FAH         LINE#         128
 C4:E3FAH         LINE#         129
 C4:E40CH         LINE#         130
  -------         ENDPROC       HAL_SPI_PAYLOAD_RX_RDY

  -------         PROC BANK=4   HAL_SPI_SLAVE_TX_REQ
 C4:E41EH         LINE#         133
 C4:E41EH         LINE#         134
 C4:E41EH         LINE#         135
 C4:E430H         LINE#         136
  -------         ENDPROC       HAL_SPI_SLAVE_TX_REQ
  -------         PROC          HAL_SPI_PREPARE_RX_CMD_ENGINE
  -------         DO            
  X:39EBH         SYMBOL        value32
  -------         ENDDO         
 C4:DE04H         LINE#         140
 C4:DE04H         LINE#         141
 C4:DE04H         LINE#         145
 C4:DE12H         LINE#         146
 C4:DE1EH         LINE#         147
 C4:DE2AH         LINE#         149
 C4:DE3EH         LINE#         151
 C4:DE4CH         LINE#         152
 C4:DE5EH         LINE#         153
 C4:DE70H         LINE#         155
 C4:DE76H         LINE#         157
  -------         ENDPROC       HAL_SPI_PREPARE_RX_CMD_ENGINE

  -------         PROC BANK=4   HAL_SPI_SET_RX_CMD_LEN_RDY
 C4:E585H         LINE#         158
 C4:E585H         LINE#         159
 C4:E585H         LINE#         177
  -------         ENDPROC       HAL_SPI_SET_RX_CMD_LEN_RDY

  -------         PROC BANK=4   _HAL_SPI_SET_RX_PAYLOAD_RDY
  X:3934H         SYMBOL        payload_bytes
  -------         DO            
  X:3936H         SYMBOL        value32
BL51 BANKED LINKER/LOCATER V6.22                                                      01/10/2015  21:25:33  PAGE 230


  -------         ENDDO         
 C4:DA21H         LINE#         180
 C4:DA29H         LINE#         181
 C4:DA29H         LINE#         184
 C4:DA3BH         LINE#         186
 C4:DA49H         LINE#         187
 C4:DA52H         LINE#         189
 C4:DA5BH         LINE#         190
 C4:DA64H         LINE#         192
 C4:DA78H         LINE#         194
 C4:DA86H         LINE#         196
 C4:DA98H         LINE#         197
 C4:DAAAH         LINE#         198
 C4:DAB5H         LINE#         200
 C4:DABBH         LINE#         202
  -------         ENDPROC       _HAL_SPI_SET_RX_PAYLOAD_RDY

  -------         PROC BANK=4   HAL_SPI_TX_CLEANUP
 C4:E326H         LINE#         205
 C4:E326H         LINE#         206
 C4:E326H         LINE#         209
 C4:E338H         LINE#         217
 C4:E34AH         LINE#         218
  -------         ENDPROC       HAL_SPI_TX_CLEANUP

  -------         PROC BANK=4   HAL_SPI_RX_CLEANUP
 C4:E152H         LINE#         222
 C4:E152H         LINE#         223
 C4:E152H         LINE#         224
 C4:E157H         LINE#         225
 C4:E169H         LINE#         227
 C4:E17BH         LINE#         235
 C4:E18DH         LINE#         236
  -------         ENDPROC       HAL_SPI_RX_CLEANUP

  -------         PROC BANK=4   _HAL_SPI_FRAME_RX
  X:39ABH         SYMBOL        rx_frame_info_p
  -------         DO            
  X:39AEH         SYMBOL        frame_len
  D:0006H         SYMBOL        crc16
  X:39B0H         SYMBOL        prodCmd
  D:0006H         SYMBOL        cp_addr_p
  D:0005H         SYMBOL        data_size
  X:39B5H         SYMBOL        i
  -------         ENDDO         
 C4:D1D0H         LINE#         245
 C4:D1D6H         LINE#         249
 C4:D1D6H         LINE#         265
 C4:D1DBH         LINE#         268
 C4:D1E1H         LINE#         269
 C4:D1E1H         LINE#         270
 C4:D1E7H         LINE#         271
 C4:D1E7H         LINE#         273
 C4:D1EDH         LINE#         275
 C4:D1F0H         LINE#         278
 C4:D20AH         LINE#         279
 C4:D216H         LINE#         286
BL51 BANKED LINKER/LOCATER V6.22                                                      01/10/2015  21:25:33  PAGE 231


 C4:D219H         LINE#         350
 C4:D21BH         LINE#         358
 C4:D221H         LINE#         359
 C4:D224H         LINE#         361
 C4:D224H         LINE#         370
 C4:D224H         LINE#         392
 C4:D227H         LINE#         396
 C4:D232H         LINE#         397
 C4:D24BH         LINE#         398
 C4:D252H         LINE#         412
 C4:D25FH         LINE#         413
 C4:D273H         LINE#         421
 C4:D291H         LINE#         422
 C4:D291H         LINE#         423
 C4:D29AH         LINE#         424
 C4:D29AH         LINE#         425
 C4:D29CH         LINE#         427
 C4:D29CH         LINE#         431
 C4:D2A2H         LINE#         432
 C4:D2A2H         LINE#         433
 C4:D2B1H         LINE#         434
 C4:D2B1H         LINE#         435
 C4:D2B7H         LINE#         436
 C4:D2B7H         LINE#         437
 C4:D2B7H         LINE#         439
 C4:D2B7H         LINE#         440
 C4:D2BDH         LINE#         441
 C4:D2BDH         LINE#         443
 C4:D2BDH         LINE#         450
  -------         ENDPROC       _HAL_SPI_FRAME_RX

  -------         PROC BANK=4   HAL_SPI_TX_DONE_HANDLER
 C4:E272H         LINE#         452
 C4:E272H         LINE#         453
 C4:E272H         LINE#         455
 C4:E277H         LINE#         460
 C4:E28BH         LINE#         461
 C4:E29DH         LINE#         462
 C4:E2A3H         LINE#         463
 C4:E2A3H         LINE#         468
 C4:E2A6H         LINE#         470
 C4:E2AEH         LINE#         472
 C4:E2AEH         LINE#         473
 C4:E2B1H         LINE#         474
 C4:E2B1H         LINE#         477
  -------         ENDPROC       HAL_SPI_TX_DONE_HANDLER

  -------         PROC BANK=4   HAL_SPI_CLEANUP
 C4:E588H         LINE#         479
 C4:E588H         LINE#         480
 C4:E588H         LINE#         497
  -------         ENDPROC       HAL_SPI_CLEANUP
 C4:CFACH         SYMBOL        L?0157

  -------         PROC BANK=4   HAL_SPI_RX_DONE_HANDLER
  -------         DO            
  X:392CH         SYMBOL        spi_data_in
BL51 BANKED LINKER/LOCATER V6.22                                                      01/10/2015  21:25:33  PAGE 232


  D:0007H         SYMBOL        i
  X:3930H         SYMBOL        tx_req
  -------         DO            
  B:0021H.2       SYMBOL        rx_error
  -------         ENDDO         
  -------         ENDDO         
 C4:CE81H         LINE#         499
 C4:CE81H         LINE#         500
 C4:CE81H         LINE#         505
 C4:CE8CH         LINE#         506
 C4:CE91H         LINE#         508
 C4:CE93H         LINE#         509
 C4:CEACH         LINE#         511
 C4:CEB1H         LINE#         513
 C4:CEC2H         LINE#         515
 C4:CED3H         LINE#         517
 C4:CEE2H         LINE#         518
 C4:CEF9H         LINE#         520
 C4:CEFCH         LINE#         522
 C4:CEFEH         LINE#         524
 C4:CEFEH         LINE#         526
 C4:CF12H         LINE#         527
 C4:CF12H         LINE#         528
 C4:CF21H         LINE#         530
 C4:CF27H         LINE#         531
 C4:CF2DH         LINE#         533
 C4:CF2DH         LINE#         539
 C4:CF30H         LINE#         540
 C4:CF3BH         LINE#         541
 C4:CF3BH         LINE#         543
 C4:CF3DH         LINE#         545
 C4:CF51H         LINE#         547
 C4:CF63H         LINE#         548
 C4:CF69H         LINE#         549
 C4:CF6BH         LINE#         550
 C4:CF6BH         LINE#         551
 C4:CF7FH         LINE#         553
 C4:CF91H         LINE#         554
 C4:CF97H         LINE#         555
 C4:CF99H         LINE#         556
 C4:CF99H         LINE#         558
 C4:CF9CH         LINE#         559
 C4:CFA1H         LINE#         561
 C4:CFA8H         LINE#         562
 C4:CFA8H         LINE#         563
 C4:CFABH         LINE#         564
 C4:CFABH         LINE#         568
 C4:CFABH         LINE#         569
  -------         ENDPROC       HAL_SPI_RX_DONE_HANDLER

  -------         PROC BANK=4   _HAL_SPI_TX_DMA
  X:3A05H         SYMBOL        tx_data_p
  X:3A07H         SYMBOL        tx_req_bytes
  -------         DO            
  X:3A09H         SYMBOL        desc_value
  X:3A0DH         SYMBOL        desc_count
  X:3A0EH         SYMBOL        cp_first
BL51 BANKED LINKER/LOCATER V6.22                                                      01/10/2015  21:25:33  PAGE 233


  X:3A0FH         SYMBOL        rc
  X:3A10H         SYMBOL        buffer_bytes
  D:0006H         SYMBOL        tx_size
  X:3A11H         SYMBOL        data_size
  X:3A13H         SYMBOL        bytes_cnt
  X:3A15H         SYMBOL        crc16
 C4:C5A5H         SYMBOL        exit
  -------         DO            
  X:3A17H         SYMBOL        cp
  X:3A18H         SYMBOL        copy_data
  X:3A19H         SYMBOL        i
  X:3A1AH         SYMBOL        get_cp_status
  X:3A1BH         SYMBOL        cp_addr_p
  X:3A1DH         SYMBOL        cp_addr_start_p
  -------         DO            
  X:3A1FH         SYMBOL        tx_req_p
  -------         ENDDO         
  -------         ENDDO         
  -------         ENDDO         
 C4:C331H         LINE#         571
 C4:C341H         LINE#         572
 C4:C341H         LINE#         576
 C4:C346H         LINE#         589
 C4:C354H         LINE#         590
 C4:C354H         LINE#         591
 C4:C36CH         LINE#         592
 C4:C36FH         LINE#         593
 C4:C36FH         LINE#         599
 C4:C3A6H         LINE#         600
 C4:C3A6H         LINE#         601
 C4:C3A9H         LINE#         602
 C4:C3A9H         LINE#         603
 C4:C3BDH         LINE#         604
 C4:C3C0H         LINE#         605
 C4:C3C0H         LINE#         609
 C4:C3C7H         LINE#         612
 C4:C3D6H         LINE#         618
 C4:C3D6H         LINE#         620
 C4:C3E0H         LINE#         621
 C4:C3F0H         LINE#         633
 C4:C40EH         LINE#         635
 C4:C41AH         LINE#         639
 C4:C423H         LINE#         641
 C4:C429H         LINE#         642
 C4:C430H         LINE#         643
 C4:C434H         LINE#         644
 C4:C441H         LINE#         652
 C4:C44FH         LINE#         653
 C4:C454H         LINE#         656
 C4:C45EH         LINE#         657
 C4:C46EH         LINE#         658
 C4:C476H         LINE#         659
 C4:C47EH         LINE#         663
 C4:C47FH         LINE#         664
 C4:C48AH         LINE#         666
 C4:C490H         LINE#         669
 C4:C49CH         LINE#         670
BL51 BANKED LINKER/LOCATER V6.22                                                      01/10/2015  21:25:33  PAGE 234


 C4:C4A2H         LINE#         671
 C4:C4A5H         LINE#         672
 C4:C4ADH         LINE#         673
 C4:C4BEH         LINE#         674
 C4:C4CCH         LINE#         675
 C4:C4D2H         LINE#         676
 C4:C4E7H         LINE#         680
 C4:C4F7H         LINE#         681
 C4:C4F7H         LINE#         689
 C4:C4F7H         LINE#         690
 C4:C4FFH         LINE#         691
 C4:C50EH         LINE#         692
 C4:C516H         LINE#         693
 C4:C51CH         LINE#         694
 C4:C51EH         LINE#         695
 C4:C52EH         LINE#         696
 C4:C53FH         LINE#         697
 C4:C544H         LINE#         698
 C4:C544H         LINE#         699
 C4:C544H         LINE#         700
 C4:C550H         LINE#         704
 C4:C56AH         LINE#         707
 C4:C573H         LINE#         708
 C4:C576H         LINE#         709
 C4:C57CH         LINE#         710
 C4:C585H         LINE#         713
 C4:C58BH         LINE#         714
 C4:C58DH         LINE#         715
 C4:C58DH         LINE#         716
 C4:C58DH         LINE#         717
 C4:C593H         LINE#         719
 C4:C596H         LINE#         721
 C4:C59CH         LINE#         722
 C4:C59FH         LINE#         740
 C4:C5A5H         LINE#         741
 C4:C5A5H         LINE#         744
 C4:C5A5H         LINE#         745
 C4:C5AAH         LINE#         746
  -------         ENDPROC       _HAL_SPI_TX_DMA

  -------         PROC BANK=4   HAL_SPI_ISTXREADY
 C4:D8DFH         LINE#         749
 C4:D8DFH         LINE#         750
 C4:D8DFH         LINE#         752
 C4:D8F3H         LINE#         753
 C4:D8F3H         LINE#         755
 C4:D8F6H         LINE#         760
 C4:D8FBH         LINE#         768
 C4:D8FDH         LINE#         771
 C4:D8FDH         LINE#         773
 C4:D903H         LINE#         774
 C4:D903H         LINE#         775
 C4:D905H         LINE#         776
 C4:D908H         LINE#         777
 C4:D908H         LINE#         781
 C4:D937H         LINE#         783
 C4:D937H         LINE#         785
BL51 BANKED LINKER/LOCATER V6.22                                                      01/10/2015  21:25:33  PAGE 235


 C4:D93CH         LINE#         815
 C4:D93EH         LINE#         816
 C4:D93EH         LINE#         818
 C4:D946H         LINE#         819
 C4:D946H         LINE#         821
 C4:D95AH         LINE#         822
 C4:D95AH         LINE#         823
 C4:D96CH         LINE#         824
 C4:D971H         LINE#         832
 C4:D97DH         LINE#         833
 C4:D97DH         LINE#         835
 C4:D980H         LINE#         836
 C4:D980H         LINE#         838
 C4:D982H         LINE#         839
  -------         ENDPROC       HAL_SPI_ISTXREADY

  -------         PROC BANK=4   _HAL_SPI_TX_DMA_CP
  X:4503H         SYMBOL        tx_req_bytes
  X:4505H         SYMBOL        pHostTxFrmSwDesc
  -------         DO            
  X:4508H         SYMBOL        desc_value
  X:450CH         SYMBOL        desc_count
  X:450DH         SYMBOL        cp_cnt
  X:450EH         SYMBOL        cp_first
  X:450FH         SYMBOL        rc
  X:4510H         SYMBOL        buffer_bytes
  X:4511H         SYMBOL        data_size
  X:4513H         SYMBOL        j
  X:4514H         SYMBOL        cp
  D:0007H         SYMBOL        copy_data
  D:0006H         SYMBOL        cp_addr_p
  D:0006H         SYMBOL        cp_addr_start_p
  X:4515H         SYMBOL        tx_req_p
  X:4518H         SYMBOL        r32
  -------         ENDDO         
 C4:C76FH         LINE#         841
 C4:C77BH         LINE#         843
 C4:C77BH         LINE#         846
 C4:C780H         LINE#         848
 C4:C784H         LINE#         851
 C4:C788H         LINE#         871
 C4:C78EH         LINE#         873
 C4:C79DH         LINE#         905
 C4:C79DH         LINE#         907
 C4:C7A7H         LINE#         908
 C4:C7BFH         LINE#         919
 C4:C7C7H         LINE#         920
 C4:C7D9H         LINE#         924
 C4:C7E2H         LINE#         926
 C4:C7E8H         LINE#         927
 C4:C7EFH         LINE#         928
 C4:C7F4H         LINE#         929
 C4:C7F4H         LINE#         937
 C4:C7F7H         LINE#         938
 C4:C7F7H         LINE#         939
 C4:C804H         LINE#         940
 C4:C80EH         LINE#         941
BL51 BANKED LINKER/LOCATER V6.22                                                      01/10/2015  21:25:33  PAGE 236


 C4:C81BH         LINE#         942
 C4:C823H         LINE#         948
 C4:C82BH         LINE#         949
 C4:C82BH         LINE#         950
 C4:C830H         LINE#         951
 C4:C835H         LINE#         953
 C4:C83BH         LINE#         955
 C4:C84EH         LINE#         956
 C4:C85BH         LINE#         957
 C4:C85DH         LINE#         958
 C4:C867H         LINE#         959
 C4:C876H         LINE#         960
 C4:C87BH         LINE#         962
 C4:C881H         LINE#         963
 C4:C88BH         LINE#         964
 C4:C88BH         LINE#         965
 C4:C895H         LINE#         966
 C4:C895H         LINE#         968
 C4:C89DH         LINE#         969
 C4:C8AEH         LINE#         972
 C4:C8B9H         LINE#         974
 C4:C8BCH         LINE#         975
 C4:C8BCH         LINE#         976
 C4:C8C6H         LINE#         977
 C4:C8C6H         LINE#         978
 C4:C8CEH         LINE#         981
 C4:C8D6H         LINE#         983
 C4:C8D9H         LINE#         984
 C4:C8D9H         LINE#         992
 C4:C8E2H         LINE#         993
 C4:C8E8H         LINE#         994
 C4:C8EBH         LINE#         1006
 C4:C8F1H         LINE#         1014
 C4:C8F4H         LINE#         1018
 C4:C90DH         LINE#         1019
 C4:C913H         LINE#         1020
 C4:C916H         LINE#         1038
 C4:C916H         LINE#         1045
 C4:C91BH         LINE#         1046
  -------         ENDPROC       _HAL_SPI_TX_DMA_CP

  -------         PROC BANK=4   _HAL_SPI_TX_DIRECT
  X:4613H         SYMBOL        tx_data_p
  X:4616H         SYMBOL        data_size
  -------         DO            
  X:4618H         SYMBOL        rc
  X:4619H         SYMBOL        i
  -------         ENDDO         
 C4:DBEEH         LINE#         1048
 C4:DBFCH         LINE#         1049
 C4:DBFCH         LINE#         1053
 C4:DBFFH         LINE#         1054
 C4:DC08H         LINE#         1055
 C4:DC0BH         LINE#         1056
 C4:DC0BH         LINE#         1057
 C4:DC1FH         LINE#         1058
 C4:DC25H         LINE#         1059
BL51 BANKED LINKER/LOCATER V6.22                                                      01/10/2015  21:25:33  PAGE 237


 C4:DC28H         LINE#         1060
 C4:DC40H         LINE#         1061
 C4:DC60H         LINE#         1062
 C4:DC68H         LINE#         1063
 C4:DC7AH         LINE#         1064
 C4:DC7DH         LINE#         1070
 C4:DC7DH         LINE#         1071
 C4:DC82H         LINE#         1072
  -------         ENDPROC       _HAL_SPI_TX_DIRECT

  -------         PROC BANK=4   _HAL_SPI_SET_DIRECT_MODE
  X:463EH         SYMBOL        master
  X:463FH         SYMBOL        tx
  -------         DO            
  X:4640H         SYMBOL        value32
  -------         ENDDO         
 C4:D983H         LINE#         1074
 C4:D98BH         LINE#         1075
 C4:D98BH         LINE#         1078
 C4:D996H         LINE#         1079
 C4:D9A2H         LINE#         1081
 C4:D9ACH         LINE#         1082
 C4:D9B2H         LINE#         1083
 C4:D9B4H         LINE#         1084
 C4:D9BDH         LINE#         1085
 C4:D9BDH         LINE#         1087
 C4:D9C4H         LINE#         1088
 C4:D9CBH         LINE#         1089
 C4:D9CDH         LINE#         1090
 C4:D9D9H         LINE#         1091
 C4:D9D9H         LINE#         1093
 C4:D9EFH         LINE#         1095
 C4:D9FDH         LINE#         1096
 C4:DA0FH         LINE#         1097
  -------         ENDPROC       _HAL_SPI_SET_DIRECT_MODE

  -------         PROC BANK=4   _HAL_SPI_SET_DMA_MODE
  X:3A22H         SYMBOL        master
  X:3A23H         SYMBOL        tx
  -------         DO            
  X:3A24H         SYMBOL        value32
  -------         ENDDO         
 C4:D616H         LINE#         1100
 C4:D61EH         LINE#         1101
 C4:D61EH         LINE#         1104
 C4:D630H         LINE#         1106
 C4:D638H         LINE#         1107
 C4:D641H         LINE#         1109
 C4:D64BH         LINE#         1110
 C4:D651H         LINE#         1115
 C4:D657H         LINE#         1116
 C4:D659H         LINE#         1117
 C4:D65FH         LINE#         1118
 C4:D66DH         LINE#         1119
 C4:D66DH         LINE#         1121
 C4:D676H         LINE#         1123
 C4:D67DH         LINE#         1124
BL51 BANKED LINKER/LOCATER V6.22                                                      01/10/2015  21:25:33  PAGE 238


 C4:D684H         LINE#         1125
 C4:D686H         LINE#         1126
 C4:D694H         LINE#         1127
 C4:D694H         LINE#         1129
 C4:D6AAH         LINE#         1131
 C4:D6B8H         LINE#         1133
 C4:D6CAH         LINE#         1134
  -------         ENDPROC       _HAL_SPI_SET_DMA_MODE

  -------         PROC BANK=4   HAL_SPI_CLEAR_STATS
 C4:E545H         LINE#         1137
 C4:E545H         LINE#         1138
 C4:E545H         LINE#         1139
  -------         ENDPROC       HAL_SPI_CLEAR_STATS

  -------         PROC BANK=4   _HAL_SPI_GET_RX_STATS
  D:0001H         SYMBOL        rx_pkts
  X:36F9H         SYMBOL        rx_bytes
 C4:E494H         LINE#         1142
 C4:E494H         LINE#         1143
 C4:E494H         LINE#         1144
 C4:E49DH         LINE#         1145
  -------         ENDPROC       _HAL_SPI_GET_RX_STATS

  -------         PROC BANK=4   _HAL_SPI_GET_TX_STATS
  D:0001H         SYMBOL        tx_pkts
  X:3714H         SYMBOL        tx_bytes
 C4:E4ACH         LINE#         1148
 C4:E4ACH         LINE#         1149
 C4:E4ACH         LINE#         1150
 C4:E4B5H         LINE#         1151
  -------         ENDPROC       _HAL_SPI_GET_TX_STATS

  -------         PROC BANK=4   _HAL_SPI_GET_RX_ERRORS_STATS
  D:0001H         SYMBOL        rx_bad_crc
  X:36F9H         SYMBOL        rx_bad_cmd
  X:36FCH         SYMBOL        rx_bad_len
 C4:E3B0H         LINE#         1154
 C4:E3B0H         LINE#         1157
 C4:E3B0H         LINE#         1158
 C4:E3B6H         LINE#         1159
 C4:E3C6H         LINE#         1160
  -------         ENDPROC       _HAL_SPI_GET_RX_ERRORS_STATS

  -------         PROC BANK=4   _HAL_SPI_GET_TX_ERRORS_STATS
  D:0001H         SYMBOL        tx_err
  X:3714H         SYMBOL        cp_alloc_err
 C4:E4DBH         LINE#         1163
 C4:E4DBH         LINE#         1164
 C4:E4DBH         LINE#         1165
 C4:E4E1H         LINE#         1166
  -------         ENDPROC       _HAL_SPI_GET_TX_ERRORS_STATS

  -------         PROC BANK=4   HAL_SPI_INIT
  -------         DO            
  X:390FH         SYMBOL        gpio_cfg
  -------         ENDDO         
BL51 BANKED LINKER/LOCATER V6.22                                                      01/10/2015  21:25:33  PAGE 239


 C4:D2BEH         LINE#         1169
 C4:D2BEH         LINE#         1170
 C4:D2BEH         LINE#         1182
 C4:D2C8H         LINE#         1184
 C4:D2D9H         LINE#         1188
 C4:D2EAH         LINE#         1192
 C4:D2FCH         LINE#         1195
 C4:D31FH         LINE#         1196
 C4:D331H         LINE#         1199
 C4:D343H         LINE#         1201
 C4:D351H         LINE#         1202
 C4:D363H         LINE#         1203
 C4:D375H         LINE#         1204
 C4:D387H         LINE#         1209
 C4:D39CH         LINE#         1213
 C4:D39FH         LINE#         1214
 C4:D3A2H         LINE#         1215
  -------         ENDPROC       HAL_SPI_INIT
  -------         ENDMOD        HAL_SPI

  -------         MODULE        HAL_PROD_TST
  C:0000H         SYMBOL        _ICE_DUMMY_
 C4:D54FH         PUBLIC        _fillBuffer
  X:437BH         PUBLIC        preTest_plcTxTestStats
 C4:E47BH         PUBLIC        _gvspi_send
 C4:DE77H         PUBLIC        _isProdTstCmd
 C4:E387H         PUBLIC        _prodTestSendRespOrEvent
  X:439BH         PUBLIC        testCmd
 C4:B7B8H         PUBLIC        _copy_plcTxTestStats
  X:439CH         PUBLIC        prepProdCmd
 C4:D6DCH         PUBLIC        prodTest_init
 C4:E35CH         PUBLIC        _fill_Tool_header
 C4:B48CH         PUBLIC        _prodTestExecCmd
  X:43C3H         PUBLIC        prodTestDev
 C4:E442H         PUBLIC        GV701x_Chip_Reset
 C4:D0CEH         SYMBOL        Com0059
 C4:D0CEH         SYMBOL        L?0090
 C4:D0CEH         SYMBOL        L?0091
 C4:D0DBH         SYMBOL        L?0092
 C4:D0DBH         SYMBOL        L?0093
 C4:D0E8H         SYMBOL        L?0094
 C4:D0E8H         SYMBOL        L?0095
 C4:D0F5H         SYMBOL        L?0096
 C4:D0F5H         SYMBOL        L?0097
 C4:D101H         SYMBOL        L?0099
 C4:D101H         SYMBOL        L?0100
 C4:D10AH         SYMBOL        L?0101
 C4:D116H         SYMBOL        L?0102
 C4:D11CH         SYMBOL        L?0103
 C4:D122H         SYMBOL        L?0105
 C4:D122H         SYMBOL        L?0106
 C4:D128H         SYMBOL        L?0107
 C4:D12EH         SYMBOL        L?0108
 C4:D12EH         SYMBOL        L?0109
 C4:D138H         SYMBOL        L?0110
 C4:D13EH         SYMBOL        L?0112
 C4:D150H         SYMBOL        L?0113
BL51 BANKED LINKER/LOCATER V6.22                                                      01/10/2015  21:25:33  PAGE 240


 C4:D157H         SYMBOL        L?0114
 C4:D15DH         SYMBOL        L?0115
 C4:D166H         SYMBOL        L?0116
 C4:D170H         SYMBOL        L?0118
 C4:D181H         SYMBOL        L?0119
 C4:D191H         SYMBOL        L?0122
 C4:D192H         SYMBOL        L?0123
 C4:D198H         SYMBOL        L?0124
 C4:D1A6H         SYMBOL        L?0125
 C4:D1AAH         SYMBOL        L?0126
 C4:D1B0H         SYMBOL        L?0127
 C4:D1B0H         SYMBOL        L?0128
 C4:D1B6H         SYMBOL        L?0130
 C4:D1B6H         SYMBOL        L?0131
 C4:D1BCH         SYMBOL        L?0132
 C4:D1BCH         SYMBOL        L?0133
 C4:D1C3H         SYMBOL        L?0134
 C4:D1C3H         SYMBOL        L?0135
 C4:D1CAH         SYMBOL        L?0136
 C4:D1CAH         SYMBOL        L?0137
  -------         PROC          COM0059
  -------         ENDPROC       COM0059

  -------         PROC BANK=4   GV701X_CHIP_RESET
 C4:E442H         LINE#         28
 C4:E442H         LINE#         29
 C4:E442H         LINE#         30
 C4:E451H         LINE#         31
  -------         ENDPROC       GV701X_CHIP_RESET

  -------         PROC BANK=4   _FILLBUFFER
  X:4446H         SYMBOL        buff
  X:4449H         SYMBOL        bLen
  -------         DO            
  X:444CH         SYMBOL        testParams
  -------         ENDDO         
 C4:D54FH         LINE#         35
 C4:D555H         LINE#         36
 C4:D555H         LINE#         39
 C4:D55FH         LINE#         40
 C4:D55FH         LINE#         42
 C4:D55FH         LINE#         44
 C4:D564H         LINE#         45
 C4:D564H         LINE#         47
 C4:D571H         LINE#         48
 C4:D577H         LINE#         49
 C4:D580H         LINE#         50
 C4:D588H         LINE#         51
 C4:D58EH         LINE#         52
 C4:D593H         LINE#         53
 C4:D59DH         LINE#         54
 C4:D5A3H         LINE#         55
 C4:D5A8H         LINE#         56
 C4:D5AEH         LINE#         57
 C4:D5B4H         LINE#         58
 C4:D5B8H         LINE#         60
 C4:D5BCH         LINE#         61
BL51 BANKED LINKER/LOCATER V6.22                                                      01/10/2015  21:25:33  PAGE 241


 C4:D5BFH         LINE#         62
 C4:D5D6H         LINE#         63
 C4:D5DBH         LINE#         64
 C4:D5DBH         LINE#         65
 C4:D5DDH         LINE#         66
 C4:D5E5H         LINE#         67
 C4:D5E5H         LINE#         68
 C4:D5EAH         LINE#         69
 C4:D5EDH         LINE#         70
 C4:D5F5H         LINE#         71
 C4:D5FBH         LINE#         72
 C4:D5FCH         LINE#         73
 C4:D600H         LINE#         74
 C4:D600H         LINE#         75
 C4:D605H         LINE#         76
 C4:D608H         LINE#         77
 C4:D610H         LINE#         78
 C4:D615H         LINE#         79
 C4:D615H         LINE#         80
  -------         ENDPROC       _FILLBUFFER

  -------         PROC BANK=4   _FILL_TOOL_HEADER
  D:0001H         SYMBOL        buffer
  D:0005H         SYMBOL        frmType
  X:3A09H         SYMBOL        size
  X:3A0BH         SYMBOL        id
  -------         DO            
  D:0001H         SYMBOL        frmHead
  -------         ENDDO         
 C4:E35CH         LINE#         82
 C4:E35CH         LINE#         84
 C4:E35CH         LINE#         87
 C4:E361H         LINE#         88
 C4:E368H         LINE#         89
 C4:E37DH         LINE#         90
  -------         ENDPROC       _FILL_TOOL_HEADER

  -------         PROC BANK=4   PRODTEST_INIT
  -------         DO            
  D:0001H         SYMBOL        frmHead
  X:39E7H         SYMBOL        payload
  X:39EAH         SYMBOL        spiTXBuf
  X:3A04H         SYMBOL        i
  -------         ENDDO         
 C4:D6DCH         LINE#         94
 C4:D6DCH         LINE#         95
 C4:D6DCH         LINE#         99
 C4:D6E1H         LINE#         101
 C4:D6EBH         LINE#         106
 C4:D6F1H         LINE#         110
 C4:D700H         LINE#         111
 C4:D713H         LINE#         112
 C4:D71BH         LINE#         115
 C4:D723H         LINE#         117
 C4:D733H         LINE#         119
 C4:D733H         LINE#         120
 C4:D739H         LINE#         123
BL51 BANKED LINKER/LOCATER V6.22                                                      01/10/2015  21:25:33  PAGE 242


 C4:D740H         LINE#         124
 C4:D74FH         LINE#         125
 C4:D769H         LINE#         126
 C4:D771H         LINE#         127
 C4:D781H         LINE#         128
  -------         ENDPROC       PRODTEST_INIT

  -------         PROC BANK=4   _GVSPI_SEND
  D:0001H         SYMBOL        spiTXBuff
  D:0004H         SYMBOL        buffSize
 C4:E47BH         LINE#         132
 C4:E47BH         LINE#         134
 C4:E485H         LINE#         135
 C4:E48EH         LINE#         136
 C4:E491H         LINE#         137
 C4:E491H         LINE#         138
 C4:E493H         LINE#         139
 C4:E493H         LINE#         140
  -------         ENDPROC       _GVSPI_SEND
  -------         PROC          _PRODTESTSENDRESPOREVENT
  D:0007H         SYMBOL        frmType
  D:0006H         SYMBOL        cmdId
  X:39E7H         SYMBOL        status
  -------         DO            
  X:39E8H         SYMBOL        spiTxBuf
  -------         ENDDO         
 C4:E387H         LINE#         141
 C4:E38EH         LINE#         142
 C4:E38EH         LINE#         145
 C4:E3A1H         LINE#         147
 C4:E3A9H         LINE#         149
  -------         ENDPROC       _PRODTESTSENDRESPOREVENT

  -------         PROC BANK=4   _ISPRODTSTCMD
  D:0001H         SYMBOL        pCpAddr
  X:39B9H         SYMBOL        cpLen
  X:39BAH         SYMBOL        pprodCmdTst
  -------         DO            
  X:39BDH         SYMBOL        tmpCharPtr
  D:0001H         SYMBOL        eh
  X:39C0H         SYMBOL        frmHead
  -------         ENDDO         
 C4:DE77H         LINE#         152
 C4:DE7CH         LINE#         153
 C4:DE7CH         LINE#         156
 C4:DE7CH         LINE#         157
 C4:DE89H         LINE#         158
 C4:DE96H         LINE#         160
 C4:DEA2H         LINE#         163
 C4:DEACH         LINE#         165
 C4:DEAFH         LINE#         166
 C4:DEAFH         LINE#         175
 C4:DEBCH         LINE#         176
 C4:DEBCH         LINE#         177
 C4:DEC9H         LINE#         178
 C4:DEC9H         LINE#         180
 C4:DEDEH         LINE#         200
BL51 BANKED LINKER/LOCATER V6.22                                                      01/10/2015  21:25:33  PAGE 243


 C4:DEE0H         LINE#         201
  -------         ENDPROC       _ISPRODTSTCMD
 C4:B6E1H         SYMBOL        L?0088
 C4:B72DH         SYMBOL        L?0098
 C4:B769H         SYMBOL        L?0104
 C4:B773H         SYMBOL        L?0111
 C4:B788H         SYMBOL        L?0117
 C4:B792H         SYMBOL        L?0120
 C4:B7A2H         SYMBOL        L?0129
 C4:B7AEH         SYMBOL        L?0138

  -------         PROC BANK=4   _PRODTESTEXECCMD
  X:39B6H         SYMBOL        pprodTestCmd
  -------         DO            
  X:39B9H         SYMBOL        spiTxBuf
  X:39DEH         SYMBOL        upH
  X:39E1H         SYMBOL        plxTxTestStats
  X:39E4H         SYMBOL        pTestParams
  -------         ENDDO         
 C4:B48CH         LINE#         203
 C4:B492H         LINE#         204
 C4:B492H         LINE#         206
 C4:B49EH         LINE#         207
 C4:B4A4H         LINE#         210
 C4:B4AEH         LINE#         213
 C4:B4CDH         LINE#         214
 C4:B4CDH         LINE#         215
 C4:B4CDH         LINE#         216
 C4:B4CDH         LINE#         217
 C4:B4CDH         LINE#         221
 C4:B4D2H         LINE#         222
 C4:B4D2H         LINE#         223
 C4:B4D2H         LINE#         225
 C4:B4D5H         LINE#         226
 C4:B4D5H         LINE#         228
 C4:B4D5H         LINE#         229
 C4:B4D8H         LINE#         230
 C4:B4DFH         LINE#         232
 C4:B4E1H         LINE#         233
 C4:B4E4H         LINE#         235
 C4:B4E4H         LINE#         238
 C4:B4EAH         LINE#         239
 C4:B4EDH         LINE#         240
 C4:B4EFH         LINE#         241
 C4:B4F1H         LINE#         242
 C4:B4F1H         LINE#         246
 C4:B4F6H         LINE#         247
 C4:B4F6H         LINE#         248
 C4:B4F9H         LINE#         249
 C4:B4F9H         LINE#         252
 C4:B4FFH         LINE#         253
 C4:B502H         LINE#         254
 C4:B505H         LINE#         255
 C4:B505H         LINE#         258
 C4:B50BH         LINE#         259
 C4:B50EH         LINE#         260
 C4:B511H         LINE#         261
BL51 BANKED LINKER/LOCATER V6.22                                                      01/10/2015  21:25:33  PAGE 244


 C4:B511H         LINE#         263
 C4:B514H         LINE#         265
 C4:B530H         LINE#         268
 C4:B530H         LINE#         269
 C4:B530H         LINE#         270
 C4:B530H         LINE#         272
 C4:B530H         LINE#         274
 C4:B530H         LINE#         277
 C4:B533H         LINE#         279
 C4:B533H         LINE#         281
 C4:B535H         LINE#         283
 C4:B535H         LINE#         284
 C4:B535H         LINE#         287
 C4:B53BH         LINE#         290
 C4:B542H         LINE#         291
 C4:B542H         LINE#         292
 C4:B546H         LINE#         294
 C4:B549H         LINE#         295
 C4:B549H         LINE#         296
 C4:B549H         LINE#         297
 C4:B54CH         LINE#         298
 C4:B554H         LINE#         301
 C4:B557H         LINE#         302
 C4:B55AH         LINE#         303
 C4:B55AH         LINE#         306
 C4:B560H         LINE#         307
 C4:B563H         LINE#         308
 C4:B565H         LINE#         309
 C4:B567H         LINE#         310
 C4:B567H         LINE#         314
 C4:B56CH         LINE#         315
 C4:B56CH         LINE#         316
 C4:B56FH         LINE#         317
 C4:B56FH         LINE#         320
 C4:B575H         LINE#         321
 C4:B578H         LINE#         322
 C4:B57BH         LINE#         323
 C4:B57BH         LINE#         326
 C4:B581H         LINE#         327
 C4:B584H         LINE#         328
 C4:B587H         LINE#         329
 C4:B587H         LINE#         331
 C4:B58AH         LINE#         333
 C4:B5A6H         LINE#         336
 C4:B5A6H         LINE#         337
 C4:B5A6H         LINE#         338
 C4:B5A6H         LINE#         340
 C4:B5A6H         LINE#         345
 C4:B5A6H         LINE#         348
 C4:B5ABH         LINE#         351
 C4:B5ABH         LINE#         352
 C4:B5AEH         LINE#         354
 C4:B5AEH         LINE#         355
 C4:B5AEH         LINE#         357
 C4:B5BBH         LINE#         359
 C4:B5BBH         LINE#         361
 C4:B5CCH         LINE#         362
BL51 BANKED LINKER/LOCATER V6.22                                                      01/10/2015  21:25:33  PAGE 245


 C4:B5CCH         LINE#         364
 C4:B5D5H         LINE#         365
 C4:B5D9H         LINE#         367
 C4:B5DCH         LINE#         368
 C4:B5DCH         LINE#         370
 C4:B5E5H         LINE#         373
 C4:B5EEH         LINE#         375
 C4:B5F4H         LINE#         376
 C4:B5F4H         LINE#         377
 C4:B5FBH         LINE#         378
 C4:B5FBH         LINE#         380
 C4:B60AH         LINE#         383
 C4:B60AH         LINE#         384
 C4:B60AH         LINE#         388
 C4:B60AH         LINE#         391
 C4:B60AH         LINE#         394
 C4:B60DH         LINE#         396
 C4:B610H         LINE#         397
 C4:B616H         LINE#         398
 C4:B616H         LINE#         399
 C4:B619H         LINE#         400
 C4:B61BH         LINE#         402
 C4:B61BH         LINE#         406
 C4:B61EH         LINE#         408
 C4:B629H         LINE#         409
 C4:B629H         LINE#         412
 C4:B629H         LINE#         414
 C4:B629H         LINE#         415
 C4:B62BH         LINE#         418
 C4:B62BH         LINE#         419
 C4:B632H         LINE#         423
 C4:B637H         LINE#         424
 C4:B638H         LINE#         426
 C4:B640H         LINE#         429
 C4:B64FH         LINE#         431
 C4:B64FH         LINE#         432
 C4:B64FH         LINE#         436
 C4:B64FH         LINE#         438
 C4:B64FH         LINE#         440
 C4:B652H         LINE#         442
 C4:B655H         LINE#         443
 C4:B65BH         LINE#         444
 C4:B65BH         LINE#         445
 C4:B65EH         LINE#         446
 C4:B660H         LINE#         448
 C4:B665H         LINE#         452
 C4:B665H         LINE#         453
 C4:B665H         LINE#         454
 C4:B665H         LINE#         455
 C4:B667H         LINE#         457
 C4:B667H         LINE#         458
 C4:B667H         LINE#         461
 C4:B66EH         LINE#         462
 C4:B66EH         LINE#         463
 C4:B673H         LINE#         465
 C4:B678H         LINE#         467
 C4:B67AH         LINE#         469
BL51 BANKED LINKER/LOCATER V6.22                                                      01/10/2015  21:25:33  PAGE 246


 C4:B680H         LINE#         470
 C4:B680H         LINE#         471
 C4:B684H         LINE#         473
 C4:B689H         LINE#         476
 C4:B689H         LINE#         477
 C4:B689H         LINE#         478
 C4:B68BH         LINE#         480
 C4:B68BH         LINE#         481
 C4:B68BH         LINE#         485
 C4:B695H         LINE#         486
 C4:B695H         LINE#         488
 C4:B6AAH         LINE#         490
 C4:B6B3H         LINE#         492
 C4:B6B3H         LINE#         494
 C4:B6BCH         LINE#         495
 C4:B6C9H         LINE#         496
 C4:B6C9H         LINE#         498
 C4:B6C9H         LINE#         500
 C4:B6C9H         LINE#         505
 C4:B6CCH         LINE#         507
 C4:B6D2H         LINE#         508
 C4:B6D2H         LINE#         509
 C4:B6D5H         LINE#         510
 C4:B6D7H         LINE#         511
 C4:B6D7H         LINE#         513
 C4:B6D7H         LINE#         517
 C4:B6E0H         LINE#         522
 C4:B6E0H         LINE#         524
 C4:B6E0H         LINE#         527
 C4:B6E0H         LINE#         528
  -------         ENDPROC       _PRODTESTEXECCMD
 C4:BAACH         SYMBOL        L?0121

  -------         PROC BANK=4   _COPY_PLCTXTESTSTATS
  X:39E7H         SYMBOL        stats
  -------         DO            
  X:39EAH         SYMBOL        AddrFilterErrCnt
  X:39EEH         SYMBOL        FrameCtrlErrCnt
  X:39F2H         SYMBOL        ICVErrCnt
  -------         ENDDO         
 C4:B7B8H         LINE#         531
 C4:B7BEH         LINE#         535
 C4:B812H         LINE#         536
 C4:B869H         LINE#         537
 C4:B8C0H         LINE#         538
 C4:B917H         LINE#         539
 C4:B96EH         LINE#         541
 C4:B97FH         LINE#         543
 C4:B990H         LINE#         545
 C4:B9A7H         LINE#         548
 C4:B9FEH         LINE#         549
 C4:BA55H         LINE#         550
 C4:BAACH         LINE#         552
  -------         ENDPROC       _COPY_PLCTXTESTSTATS
  -------         ENDMOD        HAL_PROD_TST

  -------         MODULE        ?C?COPY
BL51 BANKED LINKER/LOCATER V6.22                                                      01/10/2015  21:25:33  PAGE 247


  C:3A4EH         PUBLIC        ?C?COPY
  -------         ENDMOD        ?C?COPY

  -------         MODULE        ?C?CLDPTR
  C:3A74H         PUBLIC        ?C?CLDPTR
  -------         ENDMOD        ?C?CLDPTR

  -------         MODULE        ?C?CLDOPTR
  C:3A8DH         PUBLIC        ?C?CLDOPTR
  -------         ENDMOD        ?C?CLDOPTR

  -------         MODULE        ?C?CSTPTR
  C:3ABAH         PUBLIC        ?C?CSTPTR
  -------         ENDMOD        ?C?CSTPTR

  -------         MODULE        ?C?CSTOPTR
  C:3ACCH         PUBLIC        ?C?CSTOPTR
  -------         ENDMOD        ?C?CSTOPTR

  -------         MODULE        ?C?IMUL
  C:3AEEH         PUBLIC        ?C?IMUL
  -------         ENDMOD        ?C?IMUL

  -------         MODULE        ?C?SIDIV
  C:3B00H         PUBLIC        ?C?SIDIV
  -------         ENDMOD        ?C?SIDIV

  -------         MODULE        ?C?IILDX
  C:3B36H         PUBLIC        ?C?IILDX
  -------         ENDMOD        ?C?IILDX

  -------         MODULE        ?C?ILDIX
  C:3B4CH         PUBLIC        ?C?ILDIX
  -------         ENDMOD        ?C?ILDIX

  -------         MODULE        ?C?ILDPTR
  C:3B62H         PUBLIC        ?C?ILDPTR
  -------         ENDMOD        ?C?ILDPTR

  -------         MODULE        ?C?ILDOPTR
  C:3B8DH         PUBLIC        ?C?ILDOPTR
  -------         ENDMOD        ?C?ILDOPTR

  -------         MODULE        ?C?ISTPTR
  C:3BC5H         PUBLIC        ?C?ISTPTR
  -------         ENDMOD        ?C?ISTPTR

  -------         MODULE        ?C?ISTOPTR
  C:3BE4H         PUBLIC        ?C?ISTOPTR
  -------         ENDMOD        ?C?ISTOPTR

  -------         MODULE        ?C?LADD
  C:3C11H         PUBLIC        ?C?LADD
  -------         ENDMOD        ?C?LADD

  -------         MODULE        ?C?LSUB
  C:3C1EH         PUBLIC        ?C?LSUB
BL51 BANKED LINKER/LOCATER V6.22                                                      01/10/2015  21:25:33  PAGE 248


  -------         ENDMOD        ?C?LSUB

  -------         MODULE        ?C?LMUL
  C:3C2CH         PUBLIC        ?C?LMUL
  -------         ENDMOD        ?C?LMUL

  -------         MODULE        ?C?ULDIV
  C:3CB7H         PUBLIC        ?C?ULDIV
  -------         ENDMOD        ?C?ULDIV

  -------         MODULE        ?C?LAND
  C:3D49H         PUBLIC        ?C?LAND
  -------         ENDMOD        ?C?LAND

  -------         MODULE        ?C?LOR
  C:3D56H         PUBLIC        ?C?LOR
  -------         ENDMOD        ?C?LOR

  -------         MODULE        ?C?LNOT
  C:3D63H         PUBLIC        ?C?LNOT
  -------         ENDMOD        ?C?LNOT

  -------         MODULE        ?C?LNEG
  C:3D70H         PUBLIC        ?C?LNEG
  -------         ENDMOD        ?C?LNEG

  -------         MODULE        ?C?ULCMP
  C:3D7EH         PUBLIC        ?C?ULCMP
  -------         ENDMOD        ?C?ULCMP

  -------         MODULE        ?C?ULSHR
  C:3D8FH         PUBLIC        ?C?ULSHR
  -------         ENDMOD        ?C?ULSHR

  -------         MODULE        ?C?LSHL
  C:3DA2H         PUBLIC        ?C?LSHL
  -------         ENDMOD        ?C?LSHL

  -------         MODULE        ?C?LLDPTR
  C:3DB5H         PUBLIC        ?C?LLDPTR
  -------         ENDMOD        ?C?LLDPTR

  -------         MODULE        ?C?LLDOPTR
  C:3DD5H         PUBLIC        ?C?LLDOPTR
  -------         ENDMOD        ?C?LLDOPTR

  -------         MODULE        ?C?LSTPTR
  C:3E05H         PUBLIC        ?C?LSTPTR
  -------         ENDMOD        ?C?LSTPTR

  -------         MODULE        ?C?LSTOPTR
  C:3E1FH         PUBLIC        ?C?LSTOPTR
  -------         ENDMOD        ?C?LSTOPTR

  -------         MODULE        ?C?LLDXDATA
  C:3E43H         PUBLIC        ?C?LLDXDATA
  -------         ENDMOD        ?C?LLDXDATA
BL51 BANKED LINKER/LOCATER V6.22                                                      01/10/2015  21:25:33  PAGE 249



  -------         MODULE        ?C?LLDXDATA0
  C:3E4FH         PUBLIC        ?C?LLDXDATA0
  -------         ENDMOD        ?C?LLDXDATA0

  -------         MODULE        ?C?LLDPTR0
  C:3E5BH         PUBLIC        ?C?LLDPTR0
  -------         ENDMOD        ?C?LLDPTR0

  -------         MODULE        ?C?LLDIXDATA
  C:3E84H         PUBLIC        ?C?LLDIXDATA
  C:3E7BH         PUBLIC        ?C?LLDIXDATA1
  C:3E7DH         PUBLIC        ?C?LLDIXDATA8
  -------         ENDMOD        ?C?LLDIXDATA

  -------         MODULE        ?C?LSTXDATA
  C:3EB0H         PUBLIC        ?C?LSTXDATA
  -------         ENDMOD        ?C?LSTXDATA

  -------         MODULE        ?C?LSTKXDATA
  C:3EBCH         PUBLIC        ?C?LSTKXDATA
  -------         ENDMOD        ?C?LSTKXDATA

  -------         MODULE        ?C?LSTKOPTR
  C:3EEDH         PUBLIC        ?C?LSTKOPTR
  -------         ENDMOD        ?C?LSTKOPTR

  -------         MODULE        ?C?OFFXADD
  C:3F11H         PUBLIC        ?C?OFFXADD
  -------         ENDMOD        ?C?OFFXADD

  -------         MODULE        ?C?PLDXDATA
  C:3F1DH         PUBLIC        ?C?PLDXDATA
  -------         ENDMOD        ?C?PLDXDATA

  -------         MODULE        ?C?PSTXDATA
  C:3F26H         PUBLIC        ?C?PSTXDATA
  -------         ENDMOD        ?C?PSTXDATA

  -------         MODULE        ?C?PLDPTR
  C:3F2FH         PUBLIC        ?C?PLDPTR
  -------         ENDMOD        ?C?PLDPTR

  -------         MODULE        ?C?PSTPTR
  C:3F4FH         PUBLIC        ?C?PSTPTR
  -------         ENDMOD        ?C?PSTPTR

  -------         MODULE        ?C?PLDOPTR
  C:3F9EH         PUBLIC        ?C?PLDOPTR
  -------         ENDMOD        ?C?PLDOPTR

  -------         MODULE        ?C?PSTOPTR
  C:3FCEH         PUBLIC        ?C?PSTOPTR
  -------         ENDMOD        ?C?PSTOPTR

  -------         MODULE        ?C?CCASE
  C:4027H         PUBLIC        ?C?CCASE
BL51 BANKED LINKER/LOCATER V6.22                                                      01/10/2015  21:25:33  PAGE 250


  -------         ENDMOD        ?C?CCASE

  -------         MODULE        ?C_XBP
  D:000DH         PUBLIC        ?C_XBP
  -------         ENDMOD        ?C_XBP

  -------         MODULE        PRINTF
  X:3BC4H         PUBLIC        ?_PRINTF517?BYTE
  X:3BC4H         PUBLIC        ?_PRINTF?BYTE
  X:3BC4H         PUBLIC        ?_SPRINTF517?BYTE
  X:3BC4H         PUBLIC        ?_SPRINTF?BYTE
  C:6071H         PUBLIC        _PRINTF
  C:6071H         PUBLIC        _PRINTF517
  C:606BH         PUBLIC        _SPRINTF
  C:606BH         PUBLIC        _SPRINTF517
  -------         ENDMOD        PRINTF

  -------         MODULE        GETCHAR
  B:0023H.6       PUBLIC        ?C?CHARLOADED
  X:4690H         PUBLIC        ?_UNGETCHAR?BYTE
  C:96B0H         PUBLIC        GETCHAR
  -------         ENDMOD        GETCHAR

  -------         MODULE        SCANF
  X:376EH         PUBLIC        ?_SCANF517?BYTE
  X:376EH         PUBLIC        ?_SCANF?BYTE
  X:376EH         PUBLIC        ?_SSCANF517?BYTE
  X:376EH         PUBLIC        ?_SSCANF?BYTE
  C:63F8H         PUBLIC        _SCANF
  C:63F8H         PUBLIC        _SCANF517
  C:63F4H         PUBLIC        _SSCANF
  C:63F4H         PUBLIC        _SSCANF517
  -------         ENDMOD        SCANF

  -------         MODULE        ?C?STRCMP
  C:41CBH         PUBLIC        ?C?STRCMP
  -------         ENDMOD        ?C?STRCMP

  -------         MODULE        ?C?MEMCMP
  C:436EH         PUBLIC        ?C?MEMCMP
  -------         ENDMOD        ?C?MEMCMP

  -------         MODULE        ?C?MEMSET
  C:4392H         PUBLIC        ?C?MEMSET
  -------         ENDMOD        ?C?MEMSET

  -------         MODULE        ?C?LROL
  C:43BEH         PUBLIC        ?C?LROL
  -------         ENDMOD        ?C?LROL

  -------         MODULE        VPRINTF
  X:3BBEH         PUBLIC        ?_VPRINTF?BYTE
  C:9236H         PUBLIC        _VPRINTF
  -------         ENDMOD        VPRINTF

  -------         MODULE        ?C?UIDIV
  C:43D2H         PUBLIC        ?C?UIDIV
BL51 BANKED LINKER/LOCATER V6.22                                                      01/10/2015  21:25:33  PAGE 251


  -------         ENDMOD        ?C?UIDIV

  -------         MODULE        ?C?LLDIDATA
  C:4427H         PUBLIC        ?C?LLDIDATA
  -------         ENDMOD        ?C?LLDIDATA

  -------         MODULE        ?C?LLDPDATA
  C:4433H         PUBLIC        ?C?LLDPDATA
  -------         ENDMOD        ?C?LLDPDATA

  -------         MODULE        ?C?LLDCODE
  C:443FH         PUBLIC        ?C?LLDCODE
  -------         ENDMOD        ?C?LLDCODE

  -------         MODULE        ?C?LLDIDATA0
  C:444FH         PUBLIC        ?C?LLDIDATA0
  -------         ENDMOD        ?C?LLDIDATA0

  -------         MODULE        ?C?LLDPDATA0
  C:445CH         PUBLIC        ?C?LLDPDATA0
  -------         ENDMOD        ?C?LLDPDATA0

  -------         MODULE        ?C?LLDCODE0
  C:4469H         PUBLIC        ?C?LLDCODE0
  -------         ENDMOD        ?C?LLDCODE0

  -------         MODULE        ?C?LSTIDATA
  C:4479H         PUBLIC        ?C?LSTIDATA
  -------         ENDMOD        ?C?LSTIDATA

  -------         MODULE        ?C?LSTPDATA
  C:4485H         PUBLIC        ?C?LSTPDATA
  -------         ENDMOD        ?C?LSTPDATA

  -------         MODULE        ?C?LSTKIDATA
  C:4491H         PUBLIC        ?C?LSTKIDATA
  -------         ENDMOD        ?C?LSTKIDATA

  -------         MODULE        ?C?LSTKPDATA
  C:44AAH         PUBLIC        ?C?LSTKPDATA
  -------         ENDMOD        ?C?LSTKPDATA

  -------         MODULE        ?C?PLDIDATA
  C:44C3H         PUBLIC        ?C?PLDIDATA
  -------         ENDMOD        ?C?PLDIDATA

  -------         MODULE        ?C?PSTIDATA
  C:44CCH         PUBLIC        ?C?PSTIDATA
  -------         ENDMOD        ?C?PSTIDATA

  -------         MODULE        ?C?PLDIXDATA
  C:44D5H         PUBLIC        ?C?PLDIXDATA
  -------         ENDMOD        ?C?PLDIXDATA

  -------         MODULE        ?C?PILDXDATA
  C:44ECH         PUBLIC        ?C?PILDXDATA
  -------         ENDMOD        ?C?PILDXDATA
BL51 BANKED LINKER/LOCATER V6.22                                                      01/10/2015  21:25:33  PAGE 252



  -------         MODULE        ?C?PLDPDATA
  C:4503H         PUBLIC        ?C?PLDPDATA
  -------         ENDMOD        ?C?PLDPDATA

  -------         MODULE        ?C?PSTPDATA
  C:450CH         PUBLIC        ?C?PSTPDATA
  -------         ENDMOD        ?C?PSTPDATA

  -------         MODULE        ?C?PLDCODE
  C:4515H         PUBLIC        ?C?PLDCODE
  -------         ENDMOD        ?C?PLDCODE

  -------         MODULE        UNGETC
  C:976CH         PUBLIC        _UNGETCHAR
  -------         ENDMOD        UNGETC

  -------         MODULE        ISSPACE
  C:96C4H         PUBLIC        _isspace
  -------         ENDMOD        ISSPACE

*** WARNING L16: UNCALLED SEGMENT, IGNORED FOR OVERLAY PROCESS
    SEGMENT: ?PR?_CHAL_ALLOCFRAMECP?HAL_COMMON

*** WARNING L16: UNCALLED SEGMENT, IGNORED FOR OVERLAY PROCESS
    SEGMENT: ?PR?CHAL_GETCPUTXQFRMCOUNT?HAL_COMMON

*** WARNING L16: UNCALLED SEGMENT, IGNORED FOR OVERLAY PROCESS
    SEGMENT: ?PR?HAL_COMMON_DISPLAY_QC_ERROR_STATS?HAL_COMMON

*** WARNING L16: UNCALLED SEGMENT, IGNORED FOR OVERLAY PROCESS
    SEGMENT: ?PR?GET_TIMERTICK?HAL_COMMON

*** WARNING L16: UNCALLED SEGMENT, IGNORED FOR OVERLAY PROCESS
    SEGMENT: ?PR?TIMER_HANDLER?HAL_COMMON

*** WARNING L16: UNCALLED SEGMENT, IGNORED FOR OVERLAY PROCESS
    SEGMENT: ?PR?_HAL_COMMON_REG_8_BIT_SET?HAL_COMMON

*** WARNING L16: UNCALLED SEGMENT, IGNORED FOR OVERLAY PROCESS
    SEGMENT: ?PR?_HAL_COMMON_REG_8_BIT_CLEAR?HAL_COMMON

*** WARNING L16: UNCALLED SEGMENT, IGNORED FOR OVERLAY PROCESS
    SEGMENT: ?PR?_HAL_COMMON_REG_8_BIT_TEST?HAL_COMMON

*** WARNING L16: UNCALLED SEGMENT, IGNORED FOR OVERLAY PROCESS
    SEGMENT: ?PR?_HAL_COMMON_REG_16_READ?HAL_COMMON

*** WARNING L16: UNCALLED SEGMENT, IGNORED FOR OVERLAY PROCESS
    SEGMENT: ?PR?_HAL_COMMON_REG_16_WRITE?HAL_COMMON

*** WARNING L16: UNCALLED SEGMENT, IGNORED FOR OVERLAY PROCESS
    SEGMENT: ?PR?_HAL_COMMON_BIT_FIELD_REG_READ?HAL_COMMON

*** WARNING L16: UNCALLED SEGMENT, IGNORED FOR OVERLAY PROCESS
    SEGMENT: ?PR?_HAL_COMMON_BIT_FIELD_GET?HAL_COMMON

BL51 BANKED LINKER/LOCATER V6.22                                                      01/10/2015  21:25:33  PAGE 253


*** WARNING L16: UNCALLED SEGMENT, IGNORED FOR OVERLAY PROCESS
    SEGMENT: ?PR?_GV701X_GPIO_READ?HAL_COMMON

*** WARNING L16: UNCALLED SEGMENT, IGNORED FOR OVERLAY PROCESS
    SEGMENT: ?PR?COM_INIT?HAL_MAIN

*** WARNING L16: UNCALLED SEGMENT, IGNORED FOR OVERLAY PROCESS
    SEGMENT: ?PR?_SLIST_PUSH?LIST

*** WARNING L16: UNCALLED SEGMENT, IGNORED FOR OVERLAY PROCESS
    SEGMENT: ?PR?_SLIST_PUT?LIST

*** WARNING L16: UNCALLED SEGMENT, IGNORED FOR OVERLAY PROCESS
    SEGMENT: ?PR?_SLIST_ADD?LIST

*** WARNING L16: UNCALLED SEGMENT, IGNORED FOR OVERLAY PROCESS
    SEGMENT: ?PR?_SLIST_REMOVE?LIST

*** WARNING L16: UNCALLED SEGMENT, IGNORED FOR OVERLAY PROCESS
    SEGMENT: ?PR?_SLIST_POP?LIST

*** WARNING L16: UNCALLED SEGMENT, IGNORED FOR OVERLAY PROCESS
    SEGMENT: ?PR?_DLIST_PUSH?LIST

*** WARNING L16: UNCALLED SEGMENT, IGNORED FOR OVERLAY PROCESS
    SEGMENT: ?PR?_DLIST_PUT?LIST

*** WARNING L16: UNCALLED SEGMENT, IGNORED FOR OVERLAY PROCESS
    SEGMENT: ?PR?_DLIST_REMOVE?LIST

*** WARNING L16: UNCALLED SEGMENT, IGNORED FOR OVERLAY PROCESS
    SEGMENT: ?PR?_CRC_CCITT_UPDATE?UTILS

*** WARNING L16: UNCALLED SEGMENT, IGNORED FOR OVERLAY PROCESS
    SEGMENT: ?PR?_MAC_UTILS_32_BIT_TO_BYTE_ARRAY?UTILS

*** WARNING L16: UNCALLED SEGMENT, IGNORED FOR OVERLAY PROCESS
    SEGMENT: ?PR?MAC_UTILS_64_BIT_TO_BYTE_ARRAY?UTILS

*** WARNING L16: UNCALLED SEGMENT, IGNORED FOR OVERLAY PROCESS
    SEGMENT: ?PR?_MAC_UTILS_BYTE_ARRAY_TO_64_BIT?UTILS

*** WARNING L16: UNCALLED SEGMENT, IGNORED FOR OVERLAY PROCESS
    SEGMENT: ?PR?_MAC_UTILS_CMD_SPI_WRITE?UTILS

*** WARNING L16: UNCALLED SEGMENT, IGNORED FOR OVERLAY PROCESS
    SEGMENT: ?PR?_MAC_UTILS_CMD_SPI_READ?UTILS

*** WARNING L16: UNCALLED SEGMENT, IGNORED FOR OVERLAY PROCESS
    SEGMENT: ?PR?_MAC_UTILS_CMD_GET?UTILS

*** WARNING L16: UNCALLED SEGMENT, IGNORED FOR OVERLAY PROCESS
    SEGMENT: ?PR?_MAC_UTILS_CMD_READ?UTILS

*** WARNING L16: UNCALLED SEGMENT, IGNORED FOR OVERLAY PROCESS
    SEGMENT: ?PR?_MAC_UTILS_CMD_WRITE?UTILS

BL51 BANKED LINKER/LOCATER V6.22                                                      01/10/2015  21:25:33  PAGE 254


*** WARNING L16: UNCALLED SEGMENT, IGNORED FOR OVERLAY PROCESS
    SEGMENT: ?PR?_ISM_ENABLECPUIRQ?ISM

*** WARNING L16: UNCALLED SEGMENT, IGNORED FOR OVERLAY PROCESS
    SEGMENT: ?PR?_ISM_DISABLECPUIRQ?ISM

*** WARNING L16: UNCALLED SEGMENT, IGNORED FOR OVERLAY PROCESS
    SEGMENT: ?PR?_ISM_ENABLEMACIRQ?ISM

*** WARNING L16: UNCALLED SEGMENT, IGNORED FOR OVERLAY PROCESS
    SEGMENT: ?PR?_ISM_DISABLEMACIRQ?ISM

*** WARNING L16: UNCALLED SEGMENT, IGNORED FOR OVERLAY PROCESS
    SEGMENT: ?PR?ISM_ENABLEINTERRUPTS?ISM

*** WARNING L16: UNCALLED SEGMENT, IGNORED FOR OVERLAY PROCESS
    SEGMENT: ?PR?ISM_ENABLEINTPOLLING?ISM

*** WARNING L16: UNCALLED SEGMENT, IGNORED FOR OVERLAY PROCESS
    SEGMENT: ?PR?ISM_INIT?ISM

*** WARNING L16: UNCALLED SEGMENT, IGNORED FOR OVERLAY PROCESS
    SEGMENT: ?PR?_ISM_REGISTERINTHANDLER?ISM

*** WARNING L16: UNCALLED SEGMENT, IGNORED FOR OVERLAY PROCESS
    SEGMENT: ?PR?_ISM_UNREGISTERINTRHANDLER?ISM

*** WARNING L16: UNCALLED SEGMENT, IGNORED FOR OVERLAY PROCESS
    SEGMENT: ?PR?_CHAL_READFRAME?HAL_HPGPRX

*** WARNING L16: UNCALLED SEGMENT, IGNORED FOR OVERLAY PROCESS
    SEGMENT: ?PR?HHAL_RXSOUNDINTHANDLER?HAL_HPGPRX

*** WARNING L16: UNCALLED SEGMENT, IGNORED FOR OVERLAY PROCESS
    SEGMENT: ?PR?HHAL_BCNRXINTHANDLER?HAL_HPGPRX

*** WARNING L16: UNCALLED SEGMENT, IGNORED FOR OVERLAY PROCESS
    SEGMENT: ?PR?HHAL_BCNRXTIMEOUTINTHANDLER?HAL_HPGPRX

*** WARNING L16: UNCALLED SEGMENT, IGNORED FOR OVERLAY PROCESS
    SEGMENT: ?PR?CHT_PKTBUFBANKSELTST?CHAL_TST

*** WARNING L16: UNCALLED SEGMENT, IGNORED FOR OVERLAY PROCESS
    SEGMENT: ?PR?_HHAL_DISABLELMBCNBUF?HAL_HPGP

*** WARNING L16: UNCALLED SEGMENT, IGNORED FOR OVERLAY PROCESS
    SEGMENT: ?PR?_HHAL_SETLMBCNBUF?HAL_HPGP

*** WARNING L16: UNCALLED SEGMENT, IGNORED FOR OVERLAY PROCESS
    SEGMENT: ?PR?_HHAL_SETCSMAREGIONS?HAL_HPGP

*** WARNING L16: UNCALLED SEGMENT, IGNORED FOR OVERLAY PROCESS
    SEGMENT: ?PR?_HHAL_REMOVENEK?HAL_HPGP

*** WARNING L16: UNCALLED SEGMENT, IGNORED FOR OVERLAY PROCESS
    SEGMENT: ?PR?_HHAL_REMOVEPPEK?HAL_HPGP

BL51 BANKED LINKER/LOCATER V6.22                                                      01/10/2015  21:25:33  PAGE 255


*** WARNING L16: UNCALLED SEGMENT, IGNORED FOR OVERLAY PROCESS
    SEGMENT: ?PR?HHAL_CLEARBCNINIT?HAL_HPGP

*** WARNING L16: UNCALLED SEGMENT, IGNORED FOR OVERLAY PROCESS
    SEGMENT: ?PR?HHAL_SETBCNINIT?HAL_HPGP

*** WARNING L16: UNCALLED SEGMENT, IGNORED FOR OVERLAY PROCESS
    SEGMENT: ?PR?HHAL_POWERSAVECONFIG?HAL_HPGP

*** WARNING L16: UNCALLED SEGMENT, IGNORED FOR OVERLAY PROCESS
    SEGMENT: ?PR?HAL_HPGP_SOFT_RESET?HAL_HPGP

*** WARNING L16: UNCALLED SEGMENT, IGNORED FOR OVERLAY PROCESS
    SEGMENT: ?PR?HHAL_SETSTASNIDVALID?HAL_HPGP

*** WARNING L16: UNCALLED SEGMENT, IGNORED FOR OVERLAY PROCESS
    SEGMENT: ?PR?_HHAL_ADJUSTNEXTBCNTIME?HAL_HPGP

*** WARNING L16: UNCALLED SEGMENT, IGNORED FOR OVERLAY PROCESS
    SEGMENT: ?PR?FREQDET_FREQDETECTRESET?HAL_HPGP

*** WARNING L16: UNCALLED SEGMENT, IGNORED FOR OVERLAY PROCESS
    SEGMENT: ?PR?SETCSMA_ONCCO1?HAL_HPGPTX

*** WARNING L16: UNCALLED SEGMENT, IGNORED FOR OVERLAY PROCESS
    SEGMENT: ?PR?HHAL_PLCPENDINGTX?HAL_HPGPTX

*** WARNING L16: UNCALLED SEGMENT, IGNORED FOR OVERLAY PROCESS
    SEGMENT: ?PR?_HHT_GETROBOMODFRMLEN?HHAL_TST

*** WARNING L16: UNCALLED SEGMENT, IGNORED FOR OVERLAY PROCESS
    SEGMENT: ?PR?_SENDSINGLEFRAME?HHAL_TST

*** WARNING L16: UNCALLED SEGMENT, IGNORED FOR OVERLAY PROCESS
    SEGMENT: ?PR?EHAL_ETHSENDPAUSE?HAL_ETH

*** WARNING L16: UNCALLED SEGMENT, IGNORED FOR OVERLAY PROCESS
    SEGMENT: ?PR?_CONNEXISTSLAVE?HAL_ETH

*** WARNING L16: UNCALLED SEGMENT, IGNORED FOR OVERLAY PROCESS
    SEGMENT: ?PR?_CONNEXISTMASTER?HAL_ETH

*** WARNING L16: UNCALLED SEGMENT, IGNORED FOR OVERLAY PROCESS
    SEGMENT: ?PR?_HHT_DEMOMODETX?HHAL_LED

*** WARNING L16: UNCALLED SEGMENT, IGNORED FOR OVERLAY PROCESS
    SEGMENT: ?PR?_HHT_TXLEDDEMO?HHAL_LED

*** WARNING L16: UNCALLED SEGMENT, IGNORED FOR OVERLAY PROCESS
    SEGMENT: ?PR?_HHT_LEDDEMOTXMENU?HHAL_LED

*** WARNING L16: UNCALLED SEGMENT, IGNORED FOR OVERLAY PROCESS
    SEGMENT: ?PR?_HHT_DEMOMODERX?HHAL_LED

*** WARNING L16: UNCALLED SEGMENT, IGNORED FOR OVERLAY PROCESS
    SEGMENT: ?PR?HAL_SPI_STATS_SHOW?HAL_SPI

BL51 BANKED LINKER/LOCATER V6.22                                                      01/10/2015  21:25:33  PAGE 256


*** WARNING L16: UNCALLED SEGMENT, IGNORED FOR OVERLAY PROCESS
    SEGMENT: ?PR?HAL_SPI_CLEANUP?HAL_SPI

*** WARNING L16: UNCALLED SEGMENT, IGNORED FOR OVERLAY PROCESS
    SEGMENT: ?PR?_HAL_SPI_TX_DMA_CP?HAL_SPI

*** WARNING L16: UNCALLED SEGMENT, IGNORED FOR OVERLAY PROCESS
    SEGMENT: ?PR?_HAL_SPI_TX_DIRECT?HAL_SPI

*** WARNING L16: UNCALLED SEGMENT, IGNORED FOR OVERLAY PROCESS
    SEGMENT: ?PR?_HAL_SPI_SET_DIRECT_MODE?HAL_SPI

*** WARNING L16: UNCALLED SEGMENT, IGNORED FOR OVERLAY PROCESS
    SEGMENT: ?PR?GV701X_CHIP_RESET?HAL_PROD_TST

*** WARNING L16: UNCALLED SEGMENT, IGNORED FOR OVERLAY PROCESS
    SEGMENT: ?PR?_FILLBUFFER?HAL_PROD_TST

*** WARNING L15: MULTIPLE CALL TO SEGMENT
    SEGMENT: ?PR?_HAL_COMMON_REG_32_READ?HAL_COMMON
    CALLER1: ?PR?LHTM_TASK?HAL_MAIN
    CALLER2: ?PR?GREEN_MAIN?HAL_MAIN

*** WARNING L15: MULTIPLE CALL TO SEGMENT
    SEGMENT: ?PR?PRINTF?PRINTF
    CALLER1: ?PR?LHTM_TASK?HAL_MAIN
    CALLER2: ?PR?GREEN_MAIN?HAL_MAIN

*** WARNING L15: MULTIPLE CALL TO SEGMENT
    SEGMENT: ?PR?_CHAL_FREECP?HAL_COMMON
    CALLER1: ?PR?LHTM_TASK?HAL_MAIN
    CALLER2: ?PR?GREEN_MAIN?HAL_MAIN

*** WARNING L15: MULTIPLE CALL TO SEGMENT
    SEGMENT: ?PR?_SET_PLC_PARAMTER?HAL_HPGP
    CALLER1: ?PR?LHTM_TASK?HAL_MAIN
    CALLER2: ?PR?GREEN_MAIN?HAL_MAIN

*** WARNING L15: MULTIPLE CALL TO SEGMENT
    SEGMENT: ?PR?_CHAL_DELAYTICKS?HAL_COMMON
    CALLER1: ?PR?LHTM_TASK?HAL_MAIN
    CALLER2: ?PR?GREEN_MAIN?HAL_MAIN

*** WARNING L15: MULTIPLE CALL TO SEGMENT
    SEGMENT: ?PR?_HHAL_SETDEVMODE?HAL_HPGP
    CALLER1: ?PR?LHTM_TASK?HAL_MAIN
    CALLER2: ?PR?GREEN_MAIN?HAL_MAIN

*** WARNING L15: MULTIPLE CALL TO SEGMENT
    SEGMENT: ?PR?_HHAL_SETPLCDEVMODE?HAL_HPGP
    CALLER1: ?PR?LHTM_TASK?HAL_MAIN
    CALLER2: ?PR?GREEN_MAIN?HAL_MAIN

*** WARNING L15: MULTIPLE CALL TO SEGMENT
    SEGMENT: ?PR?SETCSMA_ONCCO?HAL_HPGPTX
    CALLER1: ?PR?LHTM_TASK?HAL_MAIN
    CALLER2: ?PR?GREEN_MAIN?HAL_MAIN
BL51 BANKED LINKER/LOCATER V6.22                                                      01/10/2015  21:25:33  PAGE 257



*** WARNING L15: MULTIPLE CALL TO SEGMENT
    SEGMENT: ?PR?SETCSMA_ONSTA?HAL_HPGPTX
    CALLER1: ?PR?LHTM_TASK?HAL_MAIN
    CALLER2: ?PR?GREEN_MAIN?HAL_MAIN

*** WARNING L15: MULTIPLE CALL TO SEGMENT
    SEGMENT: ?PR?_HHAL_SETTEI?HAL_HPGP
    CALLER1: ?PR?LHTM_TASK?HAL_MAIN
    CALLER2: ?PR?GREEN_MAIN?HAL_MAIN

*** WARNING L15: MULTIPLE CALL TO SEGMENT
    SEGMENT: ?PR?_HHAL_SETSNID?HAL_HPGP
    CALLER1: ?PR?LHTM_TASK?HAL_MAIN
    CALLER2: ?PR?GREEN_MAIN?HAL_MAIN

*** WARNING L15: MULTIPLE CALL TO SEGMENT
    SEGMENT: ?PR?_FM_PRINTF?FM
    CALLER1: ?PR?LHTM_TASK?HAL_MAIN
    CALLER2: ?PR?GREEN_MAIN?HAL_MAIN

*** WARNING L15: MULTIPLE CALL TO SEGMENT
    SEGMENT: ?PR?_VPRINTF?VPRINTF
    CALLER1: ?PR?LHTM_TASK?HAL_MAIN
    CALLER2: ?PR?GREEN_MAIN?HAL_MAIN

*** WARNING L15: MULTIPLE CALL TO SEGMENT
    SEGMENT: ?PR?_MAC_UTILS_DELAY_MS?UTILS
    CALLER1: ?PR?LHTM_TASK?HAL_MAIN
    CALLER2: ?PR?GREEN_MAIN?HAL_MAIN

*** WARNING L15: MULTIPLE CALL TO SEGMENT
    SEGMENT: ?PR?_EHAL_ETHPHYREGOP?HAL_ETH
    CALLER1: ?PR?LHTM_TASK?HAL_MAIN
    CALLER2: ?PR?GREEN_MAIN?HAL_MAIN

*** WARNING L15: MULTIPLE CALL TO SEGMENT
    SEGMENT: ?PR?_HAL_COMMON_REG_BIT_SET?HAL_COMMON
    CALLER1: ?PR?LHTM_TASK?HAL_MAIN
    CALLER2: ?PR?GREEN_MAIN?HAL_MAIN

*** WARNING L15: MULTIPLE CALL TO SEGMENT
    SEGMENT: ?PR?_HAL_COMMON_REG_32_WRITE?HAL_COMMON
    CALLER1: ?PR?LHTM_TASK?HAL_MAIN
    CALLER2: ?PR?GREEN_MAIN?HAL_MAIN

*** WARNING L15: MULTIPLE CALL TO SEGMENT
    SEGMENT: ?PR?_HAL_COMMON_REG_BIT_CLEAR?HAL_COMMON
    CALLER1: ?PR?LHTM_TASK?HAL_MAIN
    CALLER2: ?PR?GREEN_MAIN?HAL_MAIN

*** WARNING L15: MULTIPLE CALL TO SEGMENT
    SEGMENT: ?PR?HAL_SPI_PREPARE_RX_CMD_ENGINE?HAL_SPI
    CALLER1: ?PR?LHTM_TASK?HAL_MAIN
    CALLER2: ?PR?GREEN_MAIN?HAL_MAIN

*** WARNING L15: MULTIPLE CALL TO SEGMENT
BL51 BANKED LINKER/LOCATER V6.22                                                      01/10/2015  21:25:33  PAGE 258


    SEGMENT: ?PR?_HAL_COMMON_BIT_FIELD_SET?HAL_COMMON
    CALLER1: ?PR?LHTM_TASK?HAL_MAIN
    CALLER2: ?PR?GREEN_MAIN?HAL_MAIN

*** WARNING L15: MULTIPLE CALL TO SEGMENT
    SEGMENT: ?PR?PRODTEST_INIT?HAL_PROD_TST
    CALLER1: ?PR?LHTM_TASK?HAL_MAIN
    CALLER2: ?PR?GREEN_MAIN?HAL_MAIN

*** WARNING L15: MULTIPLE CALL TO SEGMENT
    SEGMENT: ?PR?_HHAL_ADDNEK?HAL_HPGP
    CALLER1: ?PR?LHTM_TASK?HAL_MAIN
    CALLER2: ?PR?GREEN_MAIN?HAL_MAIN

*** WARNING L15: MULTIPLE CALL TO SEGMENT
    SEGMENT: ?PR?_FILL_TOOL_HEADER?HAL_PROD_TST
    CALLER1: ?PR?LHTM_TASK?HAL_MAIN
    CALLER2: ?PR?GREEN_MAIN?HAL_MAIN

*** WARNING L15: MULTIPLE CALL TO SEGMENT
    SEGMENT: ?PR?_HAL_SPI_TX_DMA?HAL_SPI
    CALLER1: ?PR?LHTM_TASK?HAL_MAIN
    CALLER2: ?PR?GREEN_MAIN?HAL_MAIN

*** WARNING L15: MULTIPLE CALL TO SEGMENT
    SEGMENT: ?PR?_HAL_COMMON_REG_BIT_TEST?HAL_COMMON
    CALLER1: ?PR?LHTM_TASK?HAL_MAIN
    CALLER2: ?PR?GREEN_MAIN?HAL_MAIN

*** WARNING L15: MULTIPLE CALL TO SEGMENT
    SEGMENT: ?PR?_HAL_SPI_SET_DMA_MODE?HAL_SPI
    CALLER1: ?PR?LHTM_TASK?HAL_MAIN
    CALLER2: ?PR?GREEN_MAIN?HAL_MAIN

*** WARNING L15: MULTIPLE CALL TO SEGMENT
    SEGMENT: ?PR?_CHAL_REQUESTCP?HAL_COMMON
    CALLER1: ?PR?LHTM_TASK?HAL_MAIN
    CALLER2: ?PR?GREEN_MAIN?HAL_MAIN

*** WARNING L15: MULTIPLE CALL TO SEGMENT
    SEGMENT: ?PR?CHAL_GETFREECPCNT?HAL_COMMON
    CALLER1: ?PR?LHTM_TASK?HAL_MAIN
    CALLER2: ?PR?GREEN_MAIN?HAL_MAIN

*** WARNING L15: MULTIPLE CALL TO SEGMENT
    SEGMENT: ?PR?_CHAL_GETACCESSTOCP?HAL_COMMON
    CALLER1: ?PR?LHTM_TASK?HAL_MAIN
    CALLER2: ?PR?GREEN_MAIN?HAL_MAIN

*** WARNING L15: MULTIPLE CALL TO SEGMENT
    SEGMENT: ?PR?_EHT_FILLETHERHEADER?DATAPATH
    CALLER1: ?PR?LHTM_TASK?HAL_MAIN
    CALLER2: ?PR?GREEN_MAIN?HAL_MAIN

*** WARNING L15: MULTIPLE CALL TO SEGMENT
    SEGMENT: ?PR?_ETH_FILLHYBRIIHEADER?DATAPATH
    CALLER1: ?PR?LHTM_TASK?HAL_MAIN
BL51 BANKED LINKER/LOCATER V6.22                                                      01/10/2015  21:25:33  PAGE 259


    CALLER2: ?PR?GREEN_MAIN?HAL_MAIN

*** WARNING L15: MULTIPLE CALL TO SEGMENT
    SEGMENT: ?PR?_EHAL_ETHTXQWRITE?HAL_ETH
    CALLER1: ?PR?LHTM_TASK?HAL_MAIN
    CALLER2: ?PR?GREEN_MAIN?HAL_MAIN

*** WARNING L15: MULTIPLE CALL TO SEGMENT
    SEGMENT: ?PR?EHAL_GETETHTXQFREEDESCCNT?HAL_ETH
    CALLER1: ?PR?LHTM_TASK?HAL_MAIN
    CALLER2: ?PR?GREEN_MAIN?HAL_MAIN

*** WARNING L15: MULTIPLE CALL TO SEGMENT
    SEGMENT: ?PR?_HHAL_SETSWSTATREQSCANFLAG?HAL_HPGP
    CALLER1: ?PR?LHTM_TASK?HAL_MAIN
    CALLER2: ?PR?GREEN_MAIN?HAL_MAIN

*** WARNING L15: MULTIPLE CALL TO SEGMENT
    SEGMENT: ?PR?_HHT_SENDBCN?HHAL_TST
    CALLER1: ?PR?LHTM_TASK?HAL_MAIN
    CALLER2: ?PR?GREEN_MAIN?HAL_MAIN

*** WARNING L15: MULTIPLE CALL TO SEGMENT
    SEGMENT: ?PR?HAL_SPI_RX_DONE_HANDLER?HAL_SPI
    CALLER1: ?PR?LHTM_TASK?HAL_MAIN
    CALLER2: ?PR?GREEN_MAIN?HAL_MAIN

*** WARNING L15: MULTIPLE CALL TO SEGMENT
    SEGMENT: ?PR?_HAL_SPI_SET_RX_PAYLOAD_RDY?HAL_SPI
    CALLER1: ?PR?LHTM_TASK?HAL_MAIN
    CALLER2: ?PR?GREEN_MAIN?HAL_MAIN

*** WARNING L15: MULTIPLE CALL TO SEGMENT
    SEGMENT: ?PR?_HAL_SPI_SETUP_RX_BUFFER?HAL_SPI
    CALLER1: ?PR?LHTM_TASK?HAL_MAIN
    CALLER2: ?PR?GREEN_MAIN?HAL_MAIN

*** WARNING L15: MULTIPLE CALL TO SEGMENT
    SEGMENT: ?PR?CHAL_CPUTXQNEMPTYINTHANDLER?HAL_COMMON
    CALLER1: ?PR?LHTM_TASK?HAL_MAIN
    CALLER2: ?PR?GREEN_MAIN?HAL_MAIN

*** WARNING L15: MULTIPLE CALL TO SEGMENT
    SEGMENT: ?PR?HHAL_REQ_GNT_READ_CPU_QD?HAL_COMMON
    CALLER1: ?PR?LHTM_TASK?HAL_MAIN
    CALLER2: ?PR?GREEN_MAIN?HAL_MAIN

*** WARNING L15: MULTIPLE CALL TO SEGMENT
    SEGMENT: ?PR?HHAL_REL_GNT_READ_CPU_QD?HAL_COMMON
    CALLER1: ?PR?LHTM_TASK?HAL_MAIN
    CALLER2: ?PR?GREEN_MAIN?HAL_MAIN

*** WARNING L15: MULTIPLE CALL TO SEGMENT
    SEGMENT: ?PR?_HAL_COMMON_FREE_FRAME?HAL_COMMON
    CALLER1: ?PR?LHTM_TASK?HAL_MAIN
    CALLER2: ?PR?GREEN_MAIN?HAL_MAIN

BL51 BANKED LINKER/LOCATER V6.22                                                      01/10/2015  21:25:33  PAGE 260


*** WARNING L15: MULTIPLE CALL TO SEGMENT
    SEGMENT: ?PR?_HAL_SPI_FRAME_RX?HAL_SPI
    CALLER1: ?PR?LHTM_TASK?HAL_MAIN
    CALLER2: ?PR?GREEN_MAIN?HAL_MAIN

*** WARNING L15: MULTIPLE CALL TO SEGMENT
    SEGMENT: ?PR?_ISPRODTSTCMD?HAL_PROD_TST
    CALLER1: ?PR?LHTM_TASK?HAL_MAIN
    CALLER2: ?PR?GREEN_MAIN?HAL_MAIN

*** WARNING L15: MULTIPLE CALL TO SEGMENT
    SEGMENT: ?PR?_PRODTESTEXECCMD?HAL_PROD_TST
    CALLER1: ?PR?LHTM_TASK?HAL_MAIN
    CALLER2: ?PR?GREEN_MAIN?HAL_MAIN

*** WARNING L15: MULTIPLE CALL TO SEGMENT
    SEGMENT: ?PR?_PRODTESTSENDRESPOREVENT?HAL_PROD_TST
    CALLER1: ?PR?LHTM_TASK?HAL_MAIN
    CALLER2: ?PR?GREEN_MAIN?HAL_MAIN

*** WARNING L15: MULTIPLE CALL TO SEGMENT
    SEGMENT: ?PR?CHECKSPITXDONE?ISM
    CALLER1: ?PR?LHTM_TASK?HAL_MAIN
    CALLER2: ?PR?GREEN_MAIN?HAL_MAIN

*** WARNING L15: MULTIPLE CALL TO SEGMENT
    SEGMENT: ?PR?_COPY_PLCTXTESTSTATS?HAL_PROD_TST
    CALLER1: ?PR?LHTM_TASK?HAL_MAIN
    CALLER2: ?PR?GREEN_MAIN?HAL_MAIN

*** WARNING L15: MULTIPLE CALL TO SEGMENT
    SEGMENT: ?PR?_CORRECTENDIENESS_SPLCSIMTXTESTPARAMS?PROD_TEST_CORRECT_ENDIENESS
    CALLER1: ?PR?LHTM_TASK?HAL_MAIN
    CALLER2: ?PR?GREEN_MAIN?HAL_MAIN

*** WARNING L15: MULTIPLE CALL TO SEGMENT
    SEGMENT: ?PR?_HHT_SIMULATETX?HAL_HPGP
    CALLER1: ?PR?LHTM_TASK?HAL_MAIN
    CALLER2: ?PR?GREEN_MAIN?HAL_MAIN

*** WARNING L15: MULTIPLE CALL TO SEGMENT
    SEGMENT: ?PR?_FM_HEXDUMP?FM
    CALLER1: ?PR?LHTM_TASK?HAL_MAIN
    CALLER2: ?PR?GREEN_MAIN?HAL_MAIN

*** WARNING L15: MULTIPLE CALL TO SEGMENT
    SEGMENT: ?PR?_HHT_GETMINMAXLEN?HAL_HPGP
    CALLER1: ?PR?LHTM_TASK?HAL_MAIN
    CALLER2: ?PR?GREEN_MAIN?HAL_MAIN

*** WARNING L15: MULTIPLE CALL TO SEGMENT
    SEGMENT: ?PR?_HHAL_PLCTXQWRITE?HAL_HPGPTX
    CALLER1: ?PR?LHTM_TASK?HAL_MAIN
    CALLER2: ?PR?GREEN_MAIN?HAL_MAIN

*** WARNING L15: MULTIPLE CALL TO SEGMENT
    SEGMENT: ?PR?POLL_KEY?HAL_MAIN
BL51 BANKED LINKER/LOCATER V6.22                                                      01/10/2015  21:25:33  PAGE 261


    CALLER1: ?PR?LHTM_TASK?HAL_MAIN
    CALLER2: ?PR?GREEN_MAIN?HAL_MAIN

*** WARNING L15: MULTIPLE CALL TO SEGMENT
    SEGMENT: ?PR?HHAL_DISPLAYPLCSTAT?HHAL_TST
    CALLER1: ?PR?LHTM_TASK?HAL_MAIN
    CALLER2: ?PR?GREEN_MAIN?HAL_MAIN

*** WARNING L15: MULTIPLE CALL TO SEGMENT
    SEGMENT: ?PR?_HHAL_GETPLCTXQFREEDESCCNT?HAL_HPGP
    CALLER1: ?PR?LHTM_TASK?HAL_MAIN
    CALLER2: ?PR?GREEN_MAIN?HAL_MAIN

*** WARNING L15: MULTIPLE CALL TO SEGMENT
    SEGMENT: ?PR?EHAL_DISPLAYETHSTAT?HAL_ETH
    CALLER1: ?PR?LHTM_TASK?HAL_MAIN
    CALLER2: ?PR?GREEN_MAIN?HAL_MAIN

*** WARNING L15: MULTIPLE CALL TO SEGMENT
    SEGMENT: ?PR?_HOST_RXHANDLER?DATAPATH
    CALLER1: ?PR?LHTM_TASK?HAL_MAIN
    CALLER2: ?PR?GREEN_MAIN?HAL_MAIN

*** WARNING L15: MULTIPLE CALL TO SEGMENT
    SEGMENT: ?PR?_FWDAGENT_HANDLEDATA?FRAMETASK
    CALLER1: ?PR?LHTM_TASK?HAL_MAIN
    CALLER2: ?PR?GREEN_MAIN?HAL_MAIN

*** WARNING L15: MULTIPLE CALL TO SEGMENT
    SEGMENT: ?PR?_FWDAGENT_QUEUETOHOST?FRAMETASK
    CALLER1: ?PR?LHTM_TASK?HAL_MAIN
    CALLER2: ?PR?GREEN_MAIN?HAL_MAIN

*** WARNING L15: MULTIPLE CALL TO SEGMENT
    SEGMENT: ?PR?_DATAPATH_QUEUETOHOST?DATAPATH
    CALLER1: ?PR?LHTM_TASK?HAL_MAIN
    CALLER2: ?PR?GREEN_MAIN?HAL_MAIN

*** WARNING L15: MULTIPLE CALL TO SEGMENT
    SEGMENT: ?PR?_EHT_SETFRAMETYPELEN?DATAPATH
    CALLER1: ?PR?LHTM_TASK?HAL_MAIN
    CALLER2: ?PR?GREEN_MAIN?HAL_MAIN

*** WARNING L15: MULTIPLE CALL TO SEGMENT
    SEGMENT: ?PR?_DATAPATH_QUEUE?DATAPATH
    CALLER1: ?PR?LHTM_TASK?HAL_MAIN
    CALLER2: ?PR?GREEN_MAIN?HAL_MAIN

*** WARNING L15: MULTIPLE CALL TO SEGMENT
    SEGMENT: ?PR?_CHAL_FREEFRAMECP?HAL_COMMON
    CALLER1: ?PR?LHTM_TASK?HAL_MAIN
    CALLER2: ?PR?GREEN_MAIN?HAL_MAIN

*** WARNING L15: MULTIPLE CALL TO SEGMENT
    SEGMENT: ?PR?_HHAL_RXINTHANDLER?HAL_HPGPRX
    CALLER1: ?PR?LHTM_TASK?HAL_MAIN
    CALLER2: ?PR?GREEN_MAIN?HAL_MAIN
BL51 BANKED LINKER/LOCATER V6.22                                                      01/10/2015  21:25:33  PAGE 262



*** WARNING L15: MULTIPLE CALL TO SEGMENT
    SEGMENT: ?PR?_HHT_PROCESSPLCMACFRAME?HHAL_TST
    CALLER1: ?PR?LHTM_TASK?HAL_MAIN
    CALLER2: ?PR?GREEN_MAIN?HAL_MAIN

*** WARNING L15: MULTIPLE CALL TO SEGMENT
    SEGMENT: ?PR?_UPDATESTATISTICDATA?HHAL_TST
    CALLER1: ?PR?LHTM_TASK?HAL_MAIN
    CALLER2: ?PR?GREEN_MAIN?HAL_MAIN

*** WARNING L15: MULTIPLE CALL TO SEGMENT
    SEGMENT: ?PR?CHAL_GETCPUTXQDESCCOUNT?HAL_COMMON
    CALLER1: ?PR?LHTM_TASK?HAL_MAIN
    CALLER2: ?PR?GREEN_MAIN?HAL_MAIN

*** WARNING L15: MULTIPLE CALL TO SEGMENT
    SEGMENT: ?PR?_CHAL_FREEFRAMECP?HAL_COMMON
    CALLER1: ?PR?GREEN_MAIN?HAL_MAIN
    CALLER2: ?PR?FRAME_TASK?FRAMETASK

*** WARNING L15: MULTIPLE CALL TO SEGMENT
    SEGMENT: ?PR?_CHAL_FREECP?HAL_COMMON
    CALLER1: ?PR?GREEN_MAIN?HAL_MAIN
    CALLER2: ?PR?FRAME_TASK?FRAMETASK

*** WARNING L15: MULTIPLE CALL TO SEGMENT
    SEGMENT: ?PR?_HHAL_PLCTXQWRITE?HAL_HPGPTX
    CALLER1: ?PR?GREEN_MAIN?HAL_MAIN
    CALLER2: ?PR?FRAME_TASK?FRAMETASK

*** WARNING L15: MULTIPLE CALL TO SEGMENT
    SEGMENT: ?PR?_HAL_COMMON_REG_BIT_TEST?HAL_COMMON
    CALLER1: ?PR?GREEN_MAIN?HAL_MAIN
    CALLER2: ?PR?FRAME_TASK?FRAMETASK

*** WARNING L15: MULTIPLE CALL TO SEGMENT
    SEGMENT: ?PR?_HAL_COMMON_REG_32_READ?HAL_COMMON
    CALLER1: ?PR?GREEN_MAIN?HAL_MAIN
    CALLER2: ?PR?FRAME_TASK?FRAMETASK

*** WARNING L15: MULTIPLE CALL TO SEGMENT
    SEGMENT: ?PR?_HAL_COMMON_REG_BIT_CLEAR?HAL_COMMON
    CALLER1: ?PR?GREEN_MAIN?HAL_MAIN
    CALLER2: ?PR?FRAME_TASK?FRAMETASK

*** WARNING L15: MULTIPLE CALL TO SEGMENT
    SEGMENT: ?PR?_HAL_COMMON_REG_32_WRITE?HAL_COMMON
    CALLER1: ?PR?GREEN_MAIN?HAL_MAIN
    CALLER2: ?PR?FRAME_TASK?FRAMETASK

*** WARNING L15: MULTIPLE CALL TO SEGMENT
    SEGMENT: ?PR?_HAL_COMMON_REG_BIT_SET?HAL_COMMON
    CALLER1: ?PR?GREEN_MAIN?HAL_MAIN
    CALLER2: ?PR?FRAME_TASK?FRAMETASK

*** WARNING L15: MULTIPLE CALL TO SEGMENT
BL51 BANKED LINKER/LOCATER V6.22                                                      01/10/2015  21:25:33  PAGE 263


    SEGMENT: ?PR?_FM_PRINTF?FM
    CALLER1: ?PR?GREEN_MAIN?HAL_MAIN
    CALLER2: ?PR?FRAME_TASK?FRAMETASK

*** WARNING L15: MULTIPLE CALL TO SEGMENT
    SEGMENT: ?PR?_VPRINTF?VPRINTF
    CALLER1: ?PR?GREEN_MAIN?HAL_MAIN
    CALLER2: ?PR?FRAME_TASK?FRAMETASK

*** WARNING L15: MULTIPLE CALL TO SEGMENT
    SEGMENT: ?PR?PRINTF?PRINTF
    CALLER1: ?PR?GREEN_MAIN?HAL_MAIN
    CALLER2: ?PR?FRAME_TASK?FRAMETASK

*** WARNING L15: MULTIPLE CALL TO SEGMENT
    SEGMENT: ?PR?_EHAL_ETHTXQWRITE?HAL_ETH
    CALLER1: ?PR?GREEN_MAIN?HAL_MAIN
    CALLER2: ?PR?FRAME_TASK?FRAMETASK

*** WARNING L15: MULTIPLE CALL TO SEGMENT
    SEGMENT: ?PR?EHAL_GETETHTXQFREEDESCCNT?HAL_ETH
    CALLER1: ?PR?GREEN_MAIN?HAL_MAIN
    CALLER2: ?PR?FRAME_TASK?FRAMETASK

Program Size: data=54.7 xdata=9885 code=81758
LINK/LOCATE RUN COMPLETE.  156 WARNING(S),  0 ERROR(S)
